 Gamex86

 Timestamp is 5c9c2290 (Wed Mar 27 21:25:36 2019)

 Preferred load address is 20000000

 Start         Length     Name                   Class
 0001:00000000 0000d291H .text$di                CODE
 0001:0000d2a0 0032537eH .text$mn                CODE
 0001:00332620 0000d4acH .text$x                 CODE
 0001:0033fad0 00002d6bH .text$yd                CODE
 0002:00000000 00000124H .idata$5                DATA
 0002:00000124 00000004H .CRT$XCA                DATA
 0002:00000128 00001088H .CRT$XCU                DATA
 0002:000011b0 00000004H .CRT$XCZ                DATA
 0002:000011b4 00000004H .CRT$XIA                DATA
 0002:000011b8 00000014H .CRT$XIC                DATA
 0002:000011cc 00000004H .CRT$XIZ                DATA
 0002:000011d0 00000004H .CRT$XPA                DATA
 0002:000011d4 00000008H .CRT$XPX                DATA
 0002:000011dc 00000004H .CRT$XPXA               DATA
 0002:000011e0 00000004H .CRT$XPZ                DATA
 0002:000011e4 00000004H .CRT$XTA                DATA
 0002:000011e8 00000004H .CRT$XTZ                DATA
 0002:000011f0 0005e388H .rdata                  DATA
 0002:0005f578 0000005cH .rdata$debug            DATA
 0002:0005f5d4 00007170H .rdata$r                DATA
 0002:00066750 00001798H .rdata$sxdata           DATA
 0002:00067ee8 00000004H .rtc$IAA                DATA
 0002:00067eec 00000004H .rtc$IZZ                DATA
 0002:00067ef0 00000004H .rtc$TAA                DATA
 0002:00067ef4 00000004H .rtc$TZZ                DATA
 0002:00067ef8 00017fbcH .xdata$x                DATA
 0002:0007fec0 00000049H .edata                  DATA
 0002:0007ff0c 00000028H .idata$2                DATA
 0002:0007ff34 00000014H .idata$3                DATA
 0002:0007ff48 00000124H .idata$4                DATA
 0002:0008006c 0000053aH .idata$6                DATA
 0003:00000000 0000b380H .data                   DATA
 0003:0000b380 00002cd8H .data$r                 DATA
 0003:0000e060 006cfda8H .bss                    DATA
 0004:00000000 00000058H .rsrc$01                DATA
 0004:00000060 00000180H .rsrc$02                DATA

  Address         Publics by Value              Rva+Base       Lib:Object

 0000:00000000       ___guard_flags             00000000     <absolute>
 0000:00000000       ___guard_fids_count        00000000     <absolute>
 0000:00000000       __except_list              00000000     <absolute>
 0000:00000000       ___guard_fids_table        00000000     <absolute>
 0000:000005e6       ___safe_se_handler_count   000005e6     <absolute>
 0000:00000000       ___ImageBase               20000000     <linker-defined>
 0001:0000d2a0       ??0idAnimState@@QAE@XZ     2000e2a0 f   Actor.obj
 0001:0000d2e0       ??1idAnimState@@QAE@XZ     2000e2e0 f   Actor.obj
 0001:0000d2f0       ?Save@idAnimState@@QBEXPAVidSaveGame@@@Z 2000e2f0 f   Actor.obj
 0001:0000d360       ?Restore@idAnimState@@QAEXPAVidRestoreGame@@@Z 2000e360 f   Actor.obj
 0001:0000d3e0       ?Init@idAnimState@@QAEXPAVidEntity@@PAVidAnimator@@H@Z 2000e3e0 f   Actor.obj
 0001:0000d430       ?Shutdown@idAnimState@@QAEXXZ 2000e430 f   Actor.obj
 0001:0000d440       ?SetState@idAnimState@@QAEXPBDHH@Z 2000e440 f   Actor.obj
 0001:0000d490       ?PostState@idAnimState@@QAEXPBDHHH@Z 2000e490 f   Actor.obj
 0001:0000d4e0       ?StopAnim@idAnimState@@QAEXH@Z 2000e4e0 f   Actor.obj
 0001:0000d520       ?PlayAnim@idAnimState@@QAEXH@Z 2000e520 f   Actor.obj
 0001:0000d570       ?CycleAnim@idAnimState@@QAEXH@Z 2000e570 f   Actor.obj
 0001:0000d5c0       ?BecomeIdle@idAnimState@@QAEXXZ 2000e5c0 f   Actor.obj
 0001:0000d5d0       ?UpdateState@idAnimState@@QAE_NXZ 2000e5d0 f   Actor.obj
 0001:0000d5f0       ?Disabled@idAnimState@@QBE_NXZ 2000e5f0 f   Actor.obj
 0001:0000d600       ?Enable@idAnimState@@QAEXH@Z 2000e600 f   Actor.obj
 0001:0000d620       ?Disable@idAnimState@@QAEXXZ 2000e620 f   Actor.obj
 0001:0000d630       ?AnimDone@idAnimState@@QBE_NH@Z 2000e630 f   Actor.obj
 0001:0000d680       ?IsIdle@idAnimState@@QBE_NXZ 2000e680 f   Actor.obj
 0001:0000d6a0       ?GetAnimFlags@idAnimState@@QBE?AUanimFlags_t@@XZ 2000e6a0 f   Actor.obj
 0001:0000d6f0       ?RegisterClassA@idActor@@SAXXZ 2000e6f0 f   Actor.obj
 0001:0000d780       ?CreateInstance@idActor@@SAPAVidClass@@XZ 2000e780 f   Actor.obj
 0001:0000d820       ?GetClassType@idActor@@SAAAVidTypeInfo@@XZ 2000e820 f   Actor.obj
 0001:0000d830       ?GetType@idActor@@UBEPAVidTypeInfo@@XZ 2000e830 f   Actor.obj
 0001:0000d840       ??0idActor@@QAE@XZ         2000e840 f   Actor.obj
 0001:0000dda0       ??1idActor@@UAE@XZ         2000eda0 f   Actor.obj
 0001:0000e0c0       ?Spawn@idActor@@QAEXXZ     2000f0c0 f   Actor.obj
 0001:0000eae0       ?Restart@idActor@@UAEXXZ   2000fae0 f   Actor.obj
 0001:0000eb30       ?Save@idActor@@QBEXPAVidSaveGame@@@Z 2000fb30 f   Actor.obj
 0001:0000eef0       ?Restore@idActor@@QAEXPAVidRestoreGame@@@Z 2000fef0 f   Actor.obj
 0001:0000fa70       ?Hide@idActor@@UAEXXZ      20010a70 f   Actor.obj
 0001:0000fb40       ?Show@idActor@@UAEXXZ      20010b40 f   Actor.obj
 0001:0000fc10       ?GetDefaultSurfaceType@idActor@@UBEHXZ 20010c10 f   Actor.obj
 0001:0000fc20       ?ProjectOverlay@idActor@@UAEXABVidVec3@@0MPBD@Z 20010c20 f   Actor.obj
 0001:0000fcc0       ?LoadAF@idActor@@UAE_NPBD_N@Z 20010cc0 f   Actor.obj
 0001:0000fdb0       ?SetupBody@idActor@@QAEXXZ 20010db0 f   Actor.obj
 0001:00010010       ?CheckBlink@idActor@@UAEXXZ 20011010 f   Actor.obj
 0001:00010130       ?GetPhysicsToVisualTransform@idActor@@UAE_NAAVidVec3@@AAVidMat3@@@Z 20011130 f   Actor.obj
 0001:00010200       ?GetPhysicsToSoundTransform@idActor@@UAE_NAAVidVec3@@AAVidMat3@@@Z 20011200 f   Actor.obj
 0001:000103a0       ?ShutdownThreads@idActor@@QAEXXZ 200113a0 f   Actor.obj
 0001:000103d0       ?UpdateState@idActor@@QAEXXZ 200113d0 f   Actor.obj
 0001:000103e0       ?OnStateThreadClear@idActor@@UAEXPBDH@Z 200113e0 f   Actor.obj
 0001:000103f0       ?SetState@idActor@@QAEXPBDH@Z 200113f0 f   Actor.obj
 0001:00010420       ?PostState@idActor@@QAEXPBDHH@Z 20011420 f   Actor.obj
 0001:00010470       ?InterruptState@idActor@@QAEXPBDHH@Z 20011470 f   Actor.obj
 0001:000104c0       ?SetEyeHeight@idActor@@QAEXM@Z 200114c0 f   Actor.obj
 0001:00010530       ?SetChestHeight@idActor@@QAEXM@Z 20011530 f   Actor.obj
 0001:000105a0       ?EyeHeight@idActor@@QBEMXZ 200115a0 f   Actor.obj
 0001:000105b0       ?GetEyePosition@idActor@@UBE?AVidVec3@@XZ 200115b0 f   Actor.obj
 0001:000106b0       ?GetChestPosition@idActor@@UBE?AVidVec3@@XZ 200116b0 f   Actor.obj
 0001:000107b0       ?GetGroundEntity@idActor@@QBEPAVidEntity@@XZ 200117b0 f   Actor.obj
 0001:000107c0       ?GetGroundElevator@idActor@@UBEPAVidEntity@@PAV2@@Z 200117c0 f   Actor.obj
 0001:00010980       ?Present@idActor@@UAEXXZ   20011980 f   Actor.obj
 0001:000109a0       ?GetViewPos@idActor@@UBEXAAVidVec3@@AAVidMat3@@@Z 200119a0 f   Actor.obj
 0001:00010a30       ?SetFOV@idActor@@QAEXMM@Z  20011a30 f   Actor.obj
 0001:00010a90       ?CheckFOV@idActor@@QBE_NABVidVec3@@M@Z 20011a90 f   Actor.obj
 0001:00010cf0       ?HasFOV@idActor@@UAE_NPAVidEntity@@@Z 20011cf0 f   Actor.obj
 0001:00010d00       ?CanSee@idActor@@UBE_NPBVidEntity@@_N@Z 20011d00 f   Actor.obj
 0001:00010d30       ?CanSeeFrom@idActor@@UBE_NABVidVec3@@PBVidEntity@@_N@Z 20011d30 f   Actor.obj
 0001:00010e20       ?CanSeeFrom@idActor@@UBE_NABVidVec3@@0_N@Z 20011e20 f   Actor.obj
 0001:00010e90       ?SetupDamageGroups@idActor@@QAEXXZ 20011e90 f   Actor.obj
 0001:00011480       ?Damage@idActor@@UAEXPAVidEntity@@0ABVidVec3@@PBDMH@Z 20012480 f   Actor.obj
 0001:00011cd0       ?GetDamageForLocation@idActor@@UAEHHH@Z 20012cd0 f   Actor.obj
 0001:00011d30       ?GetDamageGroup@idActor@@QAEPBDH@Z 20012d30 f   Actor.obj
 0001:00011d60       ?ClearPain@idActor@@QAEXXZ 20012d60 f   Actor.obj
 0001:00011d70       ?Pain@idActor@@UAE_NPAVidEntity@@0HABVidVec3@@H@Z 20012d70 f   Actor.obj
 0001:00012110       ?AddDamageEffect@idActor@@UAEXABUtrace_t@@ABVidVec3@@PBDPAVidEntity@@@Z 20013110 f   Actor.obj
 0001:00012170       ?SetCombatModel@idActor@@QAEXXZ 20013170 f   Actor.obj
 0001:00012240       ?GetCombatModel@idActor@@QBEPAVidClipModel@@XZ 20013240 f   Actor.obj
 0001:00012250       ?LinkCombat@idActor@@UAEXXZ 20013250 f   Actor.obj
 0001:000122c0       ?UnlinkCombat@idActor@@UAEXXZ 200132c0 f   Actor.obj
 0001:00012310       ?StartRagdoll@idActor@@QAE_NXZ 20013310 f   Actor.obj
 0001:000129d0       ?StopRagdoll@idActor@@QAEXXZ 200139d0 f   Actor.obj
 0001:000129f0       ?UpdateAnimationControllers@idActor@@UAE_NXZ 200139f0 f   Actor.obj
 0001:00012e40       ?GetDeltaViewAngles@idActor@@QBEABVidAngles@@XZ 20013e40 f   Actor.obj
 0001:00012e50       ?SetDeltaViewAngles@idActor@@QAEXABVidAngles@@@Z 20013e50 f   Actor.obj
 0001:00012e80       ?HasEnemies@idActor@@QBE_NXZ 20013e80 f   Actor.obj
 0001:00012ed0       ?ClosestEnemyToPoint@idActor@@QAEPAV1@ABVidVec3@@M_N1@Z 20013ed0 f   Actor.obj
 0001:00013050       ?EnemyWithMostHealth@idActor@@QAEPAV1@XZ 20014050 f   Actor.obj
 0001:000130b0       ?OnLadder@idActor@@UBE_NXZ 200140b0 f   Actor.obj
 0001:000130c0       ?OnStateChange@idActor@@UAEXH@Z 200140c0 f   Actor.obj
 0001:000130e0       ?OnFriendlyFire@idActor@@UAEXPAV1@@Z 200140e0 f   Actor.obj
 0001:000130f0       ?GetAASLocation@idActor@@UBEXPAVidAAS@@AAVidVec3@@AAH@Z 200140f0 f   Actor.obj
 0001:000131a0       ?Attach@idActor@@QAEXPAVidEntity@@@Z 200141a0 f   Actor.obj
 0001:00013870       ?FindAttachment@idActor@@QAEPAVidEntity@@PBD@Z 20014870 f   Actor.obj
 0001:00013910       ?HideAttachment@idActor@@QAEXPBD@Z 20014910 f   Actor.obj
 0001:00013930       ?ShowAttachment@idActor@@QAEXPBD@Z 20014930 f   Actor.obj
 0001:00013950       ?Teleport@idActor@@UAEXABVidVec3@@ABVidAngles@@PAVidEntity@@@Z 20014950 f   Actor.obj
 0001:00013a40       ?GetRenderView@idActor@@UAEPAUrenderView_s@@XZ 20014a40 f   Actor.obj
 0001:00013ad0       ?PlayAnim@idActor@@QAEHHPBDH@Z 20014ad0 f   Actor.obj
 0001:00013da0       ?PlayCycle@idActor@@QAE_NHPBDH@Z 20014da0 f   Actor.obj
 0001:00013ff0       ?IdleAnim@idActor@@QAEXHPBDH@Z 20014ff0 f   Actor.obj
 0001:00014020       ?OverrideAnim@idActor@@QAEXH@Z 20015020 f   Actor.obj
 0001:00014030       ?HasAnim@idActor@@QAE_NHPBD_N@Z 20015030 f   Actor.obj
 0001:00014050       ?GetAnim@idActor@@QAEHHPBD_N@Z 20015050 f   Actor.obj
 0001:00014130       ?AnimDone@idActor@@QAE_NHH@Z 20015130 f   Actor.obj
 0001:00014150       ?UpdateAnimState@idActor@@QAEXXZ 20015150 f   Actor.obj
 0001:00014180       ?SetAnimState@idActor@@QAEXHPBDHH@Z 20015180 f   Actor.obj
 0001:00014200       ?PostAnimState@idActor@@QAEXHPBDHHH@Z 20015200 f   Actor.obj
 0001:00014230       ?StopAnimState@idActor@@QAEXH@Z 20015230 f   Actor.obj
 0001:00014250       ?SpawnGibs@idActor@@UAEXABVidVec3@@PBD@Z 20015250 f   Actor.obj
 0001:00014270       ?GuidedProjectileIncoming@idActor@@UAEXPAVidGuidedProjectile@@@Z 20015270 f   Actor.obj
 0001:000142c0       ?DebugFilter@idActor@@QBE_NABVidCVar@@@Z 200152c0 f   Actor.obj
 0001:00014310       ?SkipImpulse@idActor@@UAE_NPAVidEntity@@H@Z 20015310 f   Actor.obj
 0001:00014380       ?Gib@idActor@@MAEXABVidVec3@@PBD@Z 20015380 f   Actor.obj
 0001:00014470       ?CheckDeathObjectives@idActor@@IAEXXZ 20015470 f   Actor.obj
 0001:00014680       ?EnterVehicle@idActor@@MAE_NPAVidEntity@@@Z 20015680 f   Actor.obj
 0001:000146f0       ?ExitVehicle@idActor@@MAE_N_N@Z 200156f0 f   Actor.obj
 0001:000148a0       ?RemoveAttachments@idActor@@IAEXXZ 200158a0 f   Actor.obj
 0001:00014920       ?FlashlightUpdate@idActor@@IAEX_N@Z 20015920 f   Actor.obj
 0001:00014b00       ?InitDeathPush@idActor@@IAEXABVidVec3@@HPBVidDict@@M@Z 20015b00 f   Actor.obj
 0001:00014db0       ?DeathPush@idActor@@IAEXXZ 20015db0 f   Actor.obj
 0001:00014f10       ?GetDebugInfo@idActor@@MAEXP6AXPBD00PAX@Z1@Z 20015f10 f   Actor.obj
 0001:000151d0       ?FootStep@idActor@@MAEXXZ  200161d0 f   Actor.obj
 0001:00015280       ?SetupHead@idActor@@MAEXPBDVidVec3@@@Z 20016280 f   Actor.obj
 0001:00015a40       ?SyncAnimChannels@idActor@@AAEXHHH@Z 20016a40 f   Actor.obj
 0001:00015c90       ?FinishSetup@idActor@@AAEXXZ 20016c90 f   Actor.obj
 0001:00015cd0       ?Event_EnableEyeFocus@idActor@@AAEXXZ 20016cd0 f   Actor.obj
 0001:00015d40       ?Event_DisableEyeFocus@idActor@@AAEXXZ 20016d40 f   Actor.obj
 0001:00015da0       ?Event_EnableBlink@idActor@@AAEXXZ 20016da0 f   Actor.obj
 0001:00015e00       ?Event_DisableBlink@idActor@@AAEXXZ 20016e00 f   Actor.obj
 0001:00015e10       ?Event_Footstep@idActor@@AAEXXZ 20016e10 f   Actor.obj
 0001:00015e20       ?Event_EnableWalkIK@idActor@@AAEXXZ 20016e20 f   Actor.obj
 0001:00015e30       ?Event_DisableWalkIK@idActor@@AAEXXZ 20016e30 f   Actor.obj
 0001:00015e40       ?Event_EnableLegIK@idActor@@AAEXH@Z 20016e40 f   Actor.obj
 0001:00015e50       ?Event_DisableLegIK@idActor@@AAEXH@Z 20016e50 f   Actor.obj
 0001:00015e60       ?Event_SetAnimPrefix@idActor@@AAEXPBD@Z 20016e60 f   Actor.obj
 0001:00015e70       ?Event_PreventPain@idActor@@AAEXM@Z 20016e70 f   Actor.obj
 0001:00015ea0       ?Event_DisablePain@idActor@@AAEXXZ 20016ea0 f   Actor.obj
 0001:00015eb0       ?Event_EnablePain@idActor@@AAEXXZ 20016eb0 f   Actor.obj
 0001:00015ec0       ?Event_StopAnim@idActor@@AAEXHH@Z 20016ec0 f   Actor.obj
 0001:00015f20       ?Event_PlayAnim@idActor@@AAEXHPBD@Z 20016f20 f   Actor.obj
 0001:00015f60       ?Event_PlayCycle@idActor@@AAEXHPBD@Z 20016f60 f   Actor.obj
 0001:00015f80       ?Event_IdleAnim@idActor@@AAEXHPBD@Z 20016f80 f   Actor.obj
 0001:000162f0       ?Event_SetSyncedAnimWeight@idActor@@AAEXHHM@Z 200172f0 f   Actor.obj
 0001:000164c0       ?Event_OverrideAnim@idActor@@AAEXH@Z 200174c0 f   Actor.obj
 0001:00016580       ?Event_EnableAnim@idActor@@AAEXHH@Z 20017580 f   Actor.obj
 0001:000165e0       ?Event_SetBlendFrames@idActor@@AAEXHH@Z 200175e0 f   Actor.obj
 0001:00016640       ?Event_GetBlendFrames@idActor@@AAEXH@Z 20017640 f   Actor.obj
 0001:000166a0       ?Event_HasEnemies@idActor@@AAEXXZ 200176a0 f   Actor.obj
 0001:000166b0       ?Event_NextEnemy@idActor@@AAEXPAVidEntity@@@Z 200176b0 f   Actor.obj
 0001:00016780       ?Event_ClosestEnemyToPoint@idActor@@AAEXABVidVec3@@@Z 20017780 f   Actor.obj
 0001:000167b0       ?Event_StopSound@idActor@@AAEXHH@Z 200177b0 f   Actor.obj
 0001:00016810       ?Event_GetHead@idActor@@AAEXXZ 20017810 f   Actor.obj
 0001:00016850       ?Event_Teleport@idActor@@AAEXAAVidVec3@@0@Z 20017850 f   Actor.obj
 0001:00016880       ?Event_Flashlight@idActor@@AAEX_N@Z 20017880 f   Actor.obj
 0001:00016930       ?Event_EnterVehicle@idActor@@AAEXPAVidEntity@@@Z 20017930 f   Actor.obj
 0001:00016960       ?Event_ExitVehicle@idActor@@AAEX_N@Z 20017960 f   Actor.obj
 0001:00016990       ?Event_PreExitVehicle@idActor@@AAEX_N@Z 20017990 f   Actor.obj
 0001:00016a60       ?Event_SetAnimRate@idActor@@AAEXM@Z 20017a60 f   Actor.obj
 0001:00016a80       ?Event_DamageOverTime@idActor@@AAEXHHPAVidEntity@@0AAVidVec3@@PBDMH@Z 20017a80 f   Actor.obj
 0001:00016b90       ?Event_DamageOverTimeEffect@idActor@@EAEXHHPBD@Z 20017b90 f   Actor.obj
 0001:00016c90       ?Event_JointCrawlEffect@idActor@@AAEXPBDM@Z 20017c90 f   Actor.obj
 0001:00016d70       ?State_Wait_LegsAnim@idActor@@IAE?AW4stateResult_t@@ABUstateParms_t@@@Z 20017d70 f   Actor.obj
 0001:00016da0       ?State_Wait_TorsoAnim@idActor@@IAE?AW4stateResult_t@@ABUstateParms_t@@@Z 20017da0 f   Actor.obj
 0001:00016dd0       ?State_Wait_Frame@idActor@@IAE?AW4stateResult_t@@ABUstateParms_t@@@Z 20017dd0 f   Actor.obj
 0001:00016de0       ?DisableAnimState@idActor@@IAEXH@Z 20017de0 f   Actor.obj
 0001:00016df0       ?EnableAnimState@idActor@@IAEXH@Z 20017df0 f   Actor.obj
 0001:00016e10       ?GetAnimState@idActor@@IAEAAVidAnimState@@H@Z 20017e10 f   Actor.obj
 0001:00016e60       ?Register_idActor@@YAXXZ   20017e60 f   Actor.obj
 0001:00016e65       ??_9idActor@@$BBNI@AE      20017e65 f i Actor.obj
 0001:00016e70       ??0idDict@@QAE@XZ          20017e70 f i Actor.obj
 0001:00016ff0       ??0idStr@@QAE@XZ           20017ff0 f i Actor.obj
 0001:00016ff0       ??0mpBanInfo_s@@QAE@XZ     20017ff0 f i Game_network.obj
 0001:00016ff0       ??0debugJumpPoint_s@@QAE@XZ 20017ff0 f i Game_Debug.obj
 0001:00017010       ??1?$idList@VidStr@@@@QAE@XZ 20018010 f i Actor.obj
 0001:00017070       ??1idDict@@QAE@XZ          20018070 f i Actor.obj
 0001:00017100       ??1idHashIndex@@QAE@XZ     20018100 f i Actor.obj
 0001:00017110       ??4?$idEntityPtr@VidEntity@@@@QAEAAV0@AAV0@@Z 20018110 f i Actor.obj
 0001:00017160       ??4idMat3@@QAEAAV0@ABV0@@Z 20018160 f i Actor.obj
 0001:000171a0       ??_EidStr@@QAEPAXI@Z       200181a0 f i Actor.obj
 0001:00017240       ??_H@YGXPAXIHP6EPAX0@Z@Z   20018240 f i Actor.obj
 0001:00017270       ?AdjustHealthByDamage@idActor@@UAEXH@Z 20018270 f i Actor.obj
 0001:00017280       ??2@YAPAXI@Z               20018280 f i Actor.obj
 0001:00017280       ?Allocate@Memory@@SAPAXI@Z 20018280 f i Actor.obj
 0001:000172b0       ?Collide@idEntity@@UAE_NABUtrace_t@@ABVidVec3@@AA_N@Z 200182b0 f i Actor.obj
 0001:000172d0       ??3@YAXPAX@Z               200182d0 f i Actor.obj
 0001:000172d0       ??_V@YAXPAX@Z              200182d0 f i Actor.obj
 0001:000172d0       ?Free@Memory@@SAXPAX@Z     200182d0 f i Actor.obj
 0001:00017300       ?GetAnimator@idAnimatedEntity@@UBEPBVidAnimator@@XZ 20018300 f i Actor.obj
 0001:00017310       ?GetInstance@idEntity@@UBEHXZ 20018310 f i Actor.obj
 0001:00017320       ?GetLastBlocker@idEntity@@UAEHXZ 20018320 f i Actor.obj
 0001:00017330       ?GetRefSoundShaderFlags@idEntity@@UBEHXZ 20018330 f i Actor.obj
 0001:00017340       ?IsLoaded@idAF@@QBE_NXZ    20018340 f i Actor.obj
 0001:00017360       ?IsType@idClass@@QBE_NPBVidTypeInfo@@@Z 20018360 f i Actor.obj
 0001:00017390       ?RegisterInGame@rvStat@@MAEXPAVrvPlayerStat@@@Z 20018390 f i StatEvent.obj
 0001:00017390       ?LastBlockedBy@idEntity@@UAEXH@Z 20018390 f i Actor.obj
 0001:00017390       ?SetupLoadingGui@idGameLocal@@UAEXPAVidUserInterface@@@Z 20018390 f i Game_local.obj
 0001:00017390       ?RepeaterClientDisconnect@idGameLocal@@UAEXH@Z 20018390 f i Game_local.obj
 0001:00017390       ?GuidedProjectileIncoming@idEntity@@UAEXPAVidGuidedProjectile@@@Z 20018390 f i AFEntity.obj
 0001:00017390       ?InternalSetBool@idCVar@@EAEX_N@Z 20018390 f i Game_local.obj
 0001:00017390       ?Save@idClass@@QBEXPAVidSaveGame@@@Z 20018390 f i Class.obj
 0001:00017390       ?Save@rvAITetherRadius@@QBEXPAVidSaveGame@@@Z 20018390 f i AI_Util.obj
 0001:00017390       ?RepeaterClientBegin@idGameLocal@@UAEXH@Z 20018390 f i Game_local.obj
 0001:00017390       ?Save@rvAITetherBehind@@QBEXPAVidSaveGame@@@Z 20018390 f i AI_Util.obj
 0001:00017390       ?Restore@idClass@@QAEXPAVidRestoreGame@@@Z 20018390 f i Class.obj
 0001:00017390       ?InternalSetString@idCVar@@EAEXPBD@Z 20018390 f i Game_local.obj
 0001:00017390       ?Impulse@rvVehiclePart@@UAEXH@Z 20018390 f i VehicleParts.obj
 0001:00017390       ?RepeaterClientConnect@idGameLocal@@UAEXH@Z 20018390 f i Game_local.obj
 0001:00017390       ?InternalSetFloat@idCVar@@EAEXM@Z 20018390 f i Game_local.obj
 0001:00017390       ?RepeaterWriteInitialReliableMessages@idGameLocal@@UAEXH@Z 20018390 f i Game_local.obj
 0001:00017390       ?AdjustOrigin@idMapPrimitive@@UAEXAAVidVec3@@@Z 20018390 f i idLib:mapfile.obj
 0001:00017390       ?InternalSetInteger@idCVar@@EAEXH@Z 20018390 f i Game_local.obj
 0001:000173a0       ?ProjectHeadOverlay@idAnimatedEntity@@UAEXABVidVec3@@0MPBD@Z 200183a0 f i Actor.obj
 0001:000173b0       ?SetClipWorld@idEntity@@UAEXH@Z 200183b0 f i Actor.obj
 0001:000173f0       ?SetRefSoundShaderFlags@idEntity@@UAEXH@Z 200183f0 f i Actor.obj
 0001:00017400       ??0idAF@@QAE@XZ            20018400 f   AF.obj
 0001:000175a0       ??1idAF@@QAE@XZ            200185a0 f   AF.obj
 0001:00017690       ?Save@idAF@@QBEXPAVidSaveGame@@@Z 20018690 f   AF.obj
 0001:00017730       ?Restore@idAF@@QAEXPAVidRestoreGame@@@Z 20018730 f   AF.obj
 0001:00017860       ?Load@idAF@@QAE_NPAVidEntity@@PBD_N@Z 20018860 f   AF.obj
 0001:000180a0       ?SetupPose@idAF@@QAEXPAVidEntity@@H@Z 200190a0 f   AF.obj
 0001:00018600       ?ChangePose@idAF@@QAEXPAVidEntity@@H@Z 20019600 f   AF.obj
 0001:00018be0       ?EntitiesTouchingAF@idAF@@QBEHQAUafTouch_s@@@Z 20019be0 f   AF.obj
 0001:00018dd0       ?Start@idAF@@QAEXXZ        20019dd0 f   AF.obj
 0001:00018e30       ?StartFromCurrentPose@idAF@@QAEXH@Z 20019e30 f   AF.obj
 0001:00018ed0       ?Stop@idAF@@QAEXXZ         20019ed0 f   AF.obj
 0001:00018ef0       ?Rest@idAF@@QAEXXZ         20019ef0 f   AF.obj
 0001:00018f00       ?SetConstraintPosition@idAF@@QAEXPBDABVidVec3@@@Z 20019f00 f   AF.obj
 0001:00019070       ?GetBounds@idAF@@QBE?AVidBounds@@XZ 2001a070 f   AF.obj
 0001:000196c0       ?UpdateAnimation@idAF@@QAE_NXZ 2001a6c0 f   AF.obj
 0001:0001a020       ?GetPhysicsToVisualTransform@idAF@@QBEXAAVidVec3@@AAVidMat3@@@Z 2001b020 f   AF.obj
 0001:0001a0f0       ?GetImpactInfo@idAF@@QAEXPAVidEntity@@HABVidVec3@@PAUimpactInfo_s@@@Z 2001b0f0 f   AF.obj
 0001:0001a130       ?ApplyImpulse@idAF@@QAEXPAVidEntity@@HABVidVec3@@1@Z 2001b130 f   AF.obj
 0001:0001a170       ?AddForce@idAF@@QAEXPAVidEntity@@HABVidVec3@@1@Z 2001b170 f   AF.obj
 0001:0001a1b0       ?BodyForClipModelId@idAF@@QBEHH@Z 2001b1b0 f   AF.obj
 0001:0001a1e0       ?SaveState@idAF@@QBEXAAVidDict@@@Z 2001b1e0 f   AF.obj
 0001:0001a400       ?LoadState@idAF@@QAEXABVidDict@@@Z 2001b400 f   AF.obj
 0001:0001a5c0       ?AddBindConstraints@idAF@@QAEXXZ 2001b5c0 f   AF.obj
 0001:0001b2f0       ?RemoveBindConstraints@idAF@@QAEXXZ 2001c2f0 f   AF.obj
 0001:0001b410       ?TestSolid@idAF@@QBE_NXZ   2001c410 f   AF.obj
 0001:0001b600       ?SetBase@idAF@@IAEXPAVidAFBody@@PBVidJointMat@@@Z 2001c600 f   AF.obj
 0001:0001b6c0       ?AddBody@idAF@@IAEXPAVidAFBody@@PBVidJointMat@@PBDW4AFJointModType_t@@@Z 2001c6c0 f   AF.obj
 0001:0001bbc0       ?LoadBody@idAF@@IAE_NPBVidDeclAF_Body@@PBVidJointMat@@@Z 2001cbc0 f   AF.obj
 0001:0001c760       ?LoadConstraint@idAF@@IAE_NPBVidDeclAF_Constraint@@@Z 2001d760 f   AF.obj
 0001:0001d2a0       ??H@YA?AVidStr@@PBDABV0@@Z 2001e2a0 f i AF.obj
 0001:0001d390       ?SetWorldAxis@idAFBody@@QAEXABVidMat3@@@Z 2001e390 f i AF.obj
 0001:0001d3e0       ?AF_SpawnEntity@idGameEdit@@UAE_NPBD@Z 2001e3e0 f   AFEntity.obj
 0001:0001d7c0       ?AF_UpdateEntities@idGameEdit@@UAEXPBD@Z 2001e7c0 f   AFEntity.obj
 0001:0001d8b0       ?AF_UndoChanges@idGameEdit@@UAEXXZ 2001e8b0 f   AFEntity.obj
 0001:0001d9b0       ?AF_CreateMesh@idGameEdit@@UAEPAVidRenderModel@@ABVidDict@@AAVidVec3@@AAVidMat3@@AA_N@Z 2001e9b0 f   AFEntity.obj
 0001:0001f4b0       ?RegisterClassA@idMultiModelAF@@SAXXZ 200204b0 f   AFEntity.obj
 0001:0001f540       ?CreateInstance@idMultiModelAF@@SAPAVidClass@@XZ 20020540 f   AFEntity.obj
 0001:0001f650       ?GetClassType@idMultiModelAF@@SAAAVidTypeInfo@@XZ 20020650 f   AFEntity.obj
 0001:0001f660       ?GetType@idMultiModelAF@@UBEPAVidTypeInfo@@XZ 20020660 f   AFEntity.obj
 0001:0001f670       ?Spawn@idMultiModelAF@@QAEXXZ 20020670 f   AFEntity.obj
 0001:0001f690       ??1idMultiModelAF@@UAE@XZ  20020690 f   AFEntity.obj
 0001:0001f7e0       ?Think@idMultiModelAF@@UAEXXZ 200207e0 f   AFEntity.obj
 0001:0001f7f0       ?Present@idMultiModelAF@@UAEXXZ 200207f0 f   AFEntity.obj
 0001:0001f920       ?SetModelForId@idMultiModelAF@@IAEXHABVidStr@@@Z 20020920 f   AFEntity.obj
 0001:0001fc30       ?RegisterClassA@idChain@@SAXXZ 20020c30 f   AFEntity.obj
 0001:0001fcc0       ?CreateInstance@idChain@@SAPAVidClass@@XZ 20020cc0 f   AFEntity.obj
 0001:0001fdd0       ?GetClassType@idChain@@SAAAVidTypeInfo@@XZ 20020dd0 f   AFEntity.obj
 0001:0001fde0       ?GetType@idChain@@UBEPAVidTypeInfo@@XZ 20020de0 f   AFEntity.obj
 0001:0001fdf0       ?Spawn@idChain@@QAEXXZ     20020df0 f   AFEntity.obj
 0001:00020060       ?BuildChain@idChain@@IAEXABVidStr@@ABVidVec3@@MMMH_N@Z 20021060 f   AFEntity.obj
 0001:000209a0       ?RegisterClassA@idAFAttachment@@SAXXZ 200219a0 f   AFEntity.obj
 0001:00020a30       ?CreateInstance@idAFAttachment@@SAPAVidClass@@XZ 20021a30 f   AFEntity.obj
 0001:00020ad0       ?GetClassType@idAFAttachment@@SAAAVidTypeInfo@@XZ 20021ad0 f   AFEntity.obj
 0001:00020ae0       ?GetType@idAFAttachment@@UBEPAVidTypeInfo@@XZ 20021ae0 f   AFEntity.obj
 0001:00020af0       ??0idAFAttachment@@QAE@XZ  20021af0 f   AFEntity.obj
 0001:00020bb0       ??1idAFAttachment@@UAE@XZ  20021bb0 f   AFEntity.obj
 0001:00020ca0       ?Spawn@idAFAttachment@@QAEXXZ 20021ca0 f   AFEntity.obj
 0001:00020e50       ?Save@idAFAttachment@@QBEXPAVidSaveGame@@@Z 20021e50 f   AFEntity.obj
 0001:00020f40       ?Restore@idAFAttachment@@QAEXPAVidRestoreGame@@@Z 20021f40 f   AFEntity.obj
 0001:000211c0       ?SetBody@idAFAttachment@@QAEXPAVidAnimatedEntity@@PBDW4jointHandle_t@@@Z 200221c0 f   AFEntity.obj
 0001:00021280       ?ClearBody@idAFAttachment@@QAEXXZ 20022280 f   AFEntity.obj
 0001:000212a0       ?GetBody@idAFAttachment@@QBEPAVidEntity@@XZ 200222a0 f   AFEntity.obj
 0001:000212d0       ?Think@idAFAttachment@@UAEXXZ 200222d0 f   AFEntity.obj
 0001:000212e0       ?Hide@idAFAttachment@@UAEXXZ 200222e0 f   AFEntity.obj
 0001:00021300       ?Show@idAFAttachment@@UAEXXZ 20022300 f   AFEntity.obj
 0001:00021320       ?UpdateAnimationControllers@idAFAttachment@@UAE_NXZ 20022320 f   AFEntity.obj
 0001:00021330       ?PlayIdleAnim@idAFAttachment@@QAEXHH@Z 20022330 f   AFEntity.obj
 0001:00021380       ?GetDamageEntity@idAFAttachment@@UAEPAVidEntity@@XZ 20022380 f   AFEntity.obj
 0001:00021400       ?GetPhysicsToSoundTransform@idAFAttachment@@UAE_NAAVidVec3@@AAVidMat3@@@Z 20022400 f   AFEntity.obj
 0001:000214f0       ?Event_PlayAnim@idAFAttachment@@QAEXHPBD@Z 200224f0 f   AFEntity.obj
 0001:000215c0       ?Event_PlayCycle@idAFAttachment@@QAEXHPBD@Z 200225c0 f   AFEntity.obj
 0001:00021650       ?Event_ClearAnims@idAFAttachment@@QAEXXZ 20022650 f   AFEntity.obj
 0001:00021670       ?GetImpactInfo@idAFAttachment@@UAEXPAVidEntity@@HABVidVec3@@PAUimpactInfo_s@@@Z 20022670 f   AFEntity.obj
 0001:00021700       ?ApplyImpulse@idAFAttachment@@UAEXPAVidEntity@@HABVidVec3@@1_N@Z 20022700 f   AFEntity.obj
 0001:00021790       ?AddForce@idAFAttachment@@UAEXPAVidEntity@@HABVidVec3@@1@Z 20022790 f   AFEntity.obj
 0001:00021820       ?Damage@idAFAttachment@@UAEXPAVidEntity@@0ABVidVec3@@PBDMH@Z 20022820 f   AFEntity.obj
 0001:000218a0       ?CanPlayImpactEffect@idAFAttachment@@UAE_NPAVidEntity@@0@Z 200228a0 f   AFEntity.obj
 0001:00021900       ?AddDamageEffect@idAFAttachment@@UAEXABUtrace_t@@ABVidVec3@@PBDPAVidEntity@@@Z 20022900 f   AFEntity.obj
 0001:00021990       ?SetCombatModel@idAFAttachment@@QAEXXZ 20022990 f   AFEntity.obj
 0001:00021a70       ?GetCombatModel@idAFAttachment@@QBEPAVidClipModel@@XZ 20022a70 f   AFEntity.obj
 0001:00021a80       ?LinkCombat@idAFAttachment@@UAEXXZ 20022a80 f   AFEntity.obj
 0001:00021ac0       ?UnlinkCombat@idAFAttachment@@UAEXXZ 20022ac0 f   AFEntity.obj
 0001:00021ad0       ?InitCopyJoints@idAFAttachment@@QAEXXZ 20022ad0 f   AFEntity.obj
 0001:00021ee0       ?CopyJointsFromBody@idAFAttachment@@QAEXXZ 20022ee0 f   AFEntity.obj
 0001:000222c0       ?GetNoPlayerImpactFX@idAFAttachment@@QAE_NXZ 200232c0 f   AFEntity.obj
 0001:00022320       ?RegisterClassA@idAFEntity_Base@@SAXXZ 20023320 f   AFEntity.obj
 0001:000223b0       ?CreateInstance@idAFEntity_Base@@SAPAVidClass@@XZ 200233b0 f   AFEntity.obj
 0001:00022450       ?GetClassType@idAFEntity_Base@@SAAAVidTypeInfo@@XZ 20023450 f   AFEntity.obj
 0001:00022460       ?GetType@idAFEntity_Base@@UBEPAVidTypeInfo@@XZ 20023460 f   AFEntity.obj
 0001:00022470       ??0idAFEntity_Base@@QAE@XZ 20023470 f   AFEntity.obj
 0001:00022590       ??1idAFEntity_Base@@UAE@XZ 20023590 f   AFEntity.obj
 0001:00022630       ?Spawn@idAFEntity_Base@@QAEXXZ 20023630 f   AFEntity.obj
 0001:00022700       ?Save@idAFEntity_Base@@QBEXPAVidSaveGame@@@Z 20023700 f   AFEntity.obj
 0001:00022770       ?Restore@idAFEntity_Base@@QAEXPAVidRestoreGame@@@Z 20023770 f   AFEntity.obj
 0001:000227f0       ?Think@idAFEntity_Base@@UAEXXZ 200237f0 f   AFEntity.obj
 0001:00022880       ?GetImpactInfo@idAFEntity_Base@@UAEXPAVidEntity@@HABVidVec3@@PAUimpactInfo_s@@@Z 20023880 f   AFEntity.obj
 0001:000228a0       ?ApplyImpulse@idAFEntity_Base@@UAEXPAVidEntity@@HABVidVec3@@1_N@Z 200238a0 f   AFEntity.obj
 0001:00022980       ?AddForce@idAFEntity_Base@@UAEXPAVidEntity@@HABVidVec3@@1@Z 20023980 f   AFEntity.obj
 0001:000229e0       ?CanPlayImpactEffect@idAFEntity_Base@@UAE_NPAVidEntity@@0@Z 200239e0 f   AFEntity.obj
 0001:00022a40       ?Collide@idAFEntity_Base@@UAE_NABUtrace_t@@ABVidVec3@@@Z 20023a40 f   AFEntity.obj
 0001:00022b10       ?GetPhysicsToVisualTransform@idAFEntity_Base@@UAE_NAAVidVec3@@AAVidMat3@@@Z 20023b10 f   AFEntity.obj
 0001:00022b40       ?UpdateAnimationControllers@idAFEntity_Base@@UAE_NXZ 20023b40 f   AFEntity.obj
 0001:00022b60       ?FreeModelDef@idAFEntity_Base@@UAEXXZ 20023b60 f   AFEntity.obj
 0001:00022b80       ?LoadAF@idAFEntity_Base@@UAE_NPBD@Z 20023b80 f   AFEntity.obj
 0001:00022cf0       ?SetCombatModel@idAFEntity_Base@@QAEXXZ 20023cf0 f   AFEntity.obj
 0001:00022da0       ?GetCombatModel@idAFEntity_Base@@QBEPAVidClipModel@@XZ 20023da0 f   AFEntity.obj
 0001:00022db0       ?SetCombatContents@idAFEntity_Base@@QAEX_N@Z 20023db0 f   AFEntity.obj
 0001:00022e10       ?LinkCombat@idAFEntity_Base@@UAEXXZ 20023e10 f   AFEntity.obj
 0001:00022e50       ?UnlinkCombat@idAFEntity_Base@@UAEXXZ 20023e50 f   AFEntity.obj
 0001:00022e60       ?BodyForClipModelId@idAFEntity_Base@@QBEHH@Z 20023e60 f   AFEntity.obj
 0001:00022e70       ?SaveState@idAFEntity_Base@@QBEXAAVidDict@@@Z 20023e70 f   AFEntity.obj
 0001:00022f40       ?LoadState@idAFEntity_Base@@QAEXABVidDict@@@Z 20023f40 f   AFEntity.obj
 0001:00022f50       ?AddBindConstraints@idAFEntity_Base@@QAEXXZ 20023f50 f   AFEntity.obj
 0001:00022f60       ?RemoveBindConstraints@idAFEntity_Base@@QAEXXZ 20023f60 f   AFEntity.obj
 0001:00022f70       ?ShowEditingDialog@idAFEntity_Base@@UAEXXZ 20023f70 f   AFEntity.obj
 0001:00022f90       ?DropAFs@idAFEntity_Base@@SAXPAVidEntity@@PBDPAV?$idList@PAVidEntity@@@@@Z 20023f90 f   AFEntity.obj
 0001:00023480       ?GetNoPlayerImpactFX@idAFEntity_Base@@QAE_NXZ 20024480 f   AFEntity.obj
 0001:000234f0       ?Event_SetConstraintPosition@idAFEntity_Base@@IAEXPBDABVidVec3@@@Z 200244f0 f   AFEntity.obj
 0001:00023500       ?RegisterClassA@idAFEntity_Gibbable@@SAXXZ 20024500 f   AFEntity.obj
 0001:00023590       ?CreateInstance@idAFEntity_Gibbable@@SAPAVidClass@@XZ 20024590 f   AFEntity.obj
 0001:00023630       ?GetClassType@idAFEntity_Gibbable@@SAAAVidTypeInfo@@XZ 20024630 f   AFEntity.obj
 0001:00023640       ?GetType@idAFEntity_Gibbable@@UBEPAVidTypeInfo@@XZ 20024640 f   AFEntity.obj
 0001:00023650       ??0idAFEntity_Gibbable@@QAE@XZ 20024650 f   AFEntity.obj
 0001:00023680       ??1idAFEntity_Gibbable@@UAE@XZ 20024680 f   AFEntity.obj
 0001:000236f0       ?Spawn@idAFEntity_Gibbable@@QAEXXZ 200246f0 f   AFEntity.obj
 0001:00023720       ?Save@idAFEntity_Gibbable@@QBEXPAVidSaveGame@@@Z 20024720 f   AFEntity.obj
 0001:00023760       ?Restore@idAFEntity_Gibbable@@QAEXPAVidRestoreGame@@@Z 20024760 f   AFEntity.obj
 0001:000237c0       ?Present@idAFEntity_Gibbable@@UAEXXZ 200247c0 f   AFEntity.obj
 0001:00023870       ?Damage@idAFEntity_Gibbable@@UAEXPAVidEntity@@0ABVidVec3@@PBDMH@Z 20024870 f   AFEntity.obj
 0001:000238f0       ?SpawnGibs@idAFEntity_Gibbable@@UAEXABVidVec3@@PBD@Z 200248f0 f   AFEntity.obj
 0001:00023ca0       ?Gib@idAFEntity_Gibbable@@MAEXABVidVec3@@PBD@Z 20024ca0 f   AFEntity.obj
 0001:00023e40       ?InitSkeletonModel@idAFEntity_Gibbable@@IAEXXZ 20024e40 f   AFEntity.obj
 0001:00023f10       ?Event_Gib@idAFEntity_Gibbable@@IAEXPBD@Z 20024f10 f   AFEntity.obj
 0001:00023f40       ?RegisterClassA@idAFEntity_Generic@@SAXXZ 20024f40 f   AFEntity.obj
 0001:00023fd0       ?CreateInstance@idAFEntity_Generic@@SAPAVidClass@@XZ 20024fd0 f   AFEntity.obj
 0001:00024070       ?GetClassType@idAFEntity_Generic@@SAAAVidTypeInfo@@XZ 20025070 f   AFEntity.obj
 0001:00024080       ?GetType@idAFEntity_Generic@@UBEPAVidTypeInfo@@XZ 20025080 f   AFEntity.obj
 0001:00024090       ??0idAFEntity_Generic@@QAE@XZ 20025090 f   AFEntity.obj
 0001:000240b0       ??1idAFEntity_Generic@@UAE@XZ 200250b0 f   AFEntity.obj
 0001:000240c0       ?Spawn@idAFEntity_Generic@@QAEXXZ 200250c0 f   AFEntity.obj
 0001:00024150       ?Save@idAFEntity_Generic@@QBEXPAVidSaveGame@@@Z 20025150 f   AFEntity.obj
 0001:00024170       ?Restore@idAFEntity_Generic@@QAEXPAVidRestoreGame@@@Z 20025170 f   AFEntity.obj
 0001:00024190       ?Think@idAFEntity_Generic@@UAEXXZ 20025190 f   AFEntity.obj
 0001:000241b0       ?Event_Activate@idAFEntity_Generic@@AAEXPAVidEntity@@@Z 200251b0 f   AFEntity.obj
 0001:000242f0       ?RegisterClassA@idAFEntity_WithAttachedHead@@SAXXZ 200252f0 f   AFEntity.obj
 0001:00024380       ?CreateInstance@idAFEntity_WithAttachedHead@@SAPAVidClass@@XZ 20025380 f   AFEntity.obj
 0001:00024420       ?GetClassType@idAFEntity_WithAttachedHead@@SAAAVidTypeInfo@@XZ 20025420 f   AFEntity.obj
 0001:00024430       ?GetType@idAFEntity_WithAttachedHead@@UBEPAVidTypeInfo@@XZ 20025430 f   AFEntity.obj
 0001:00024440       ??0idAFEntity_WithAttachedHead@@QAE@XZ 20025440 f   AFEntity.obj
 0001:00024460       ??1idAFEntity_WithAttachedHead@@UAE@XZ 20025460 f   AFEntity.obj
 0001:00024530       ?Spawn@idAFEntity_WithAttachedHead@@QAEXXZ 20025530 f   AFEntity.obj
 0001:000246a0       ?Save@idAFEntity_WithAttachedHead@@QBEXPAVidSaveGame@@@Z 200256a0 f   AFEntity.obj
 0001:000246c0       ?Restore@idAFEntity_WithAttachedHead@@QAEXPAVidRestoreGame@@@Z 200256c0 f   AFEntity.obj
 0001:000246e0       ?SetupHead@idAFEntity_WithAttachedHead@@UAEXPBD@Z 200256e0 f   AFEntity.obj
 0001:00024bc0       ?Think@idAFEntity_WithAttachedHead@@UAEXXZ 20025bc0 f   AFEntity.obj
 0001:00024bd0       ?Hide@idAFEntity_WithAttachedHead@@UAEXXZ 20025bd0 f   AFEntity.obj
 0001:00024c40       ?Show@idAFEntity_WithAttachedHead@@UAEXXZ 20025c40 f   AFEntity.obj
 0001:00024cb0       ?ProjectOverlay@idAFEntity_WithAttachedHead@@UAEXABVidVec3@@0MPBD@Z 20025cb0 f   AFEntity.obj
 0001:00024d40       ?LinkCombat@idAFEntity_WithAttachedHead@@UAEXXZ 20025d40 f   AFEntity.obj
 0001:00024db0       ?UnlinkCombat@idAFEntity_WithAttachedHead@@UAEXXZ 20025db0 f   AFEntity.obj
 0001:00024e00       ?Gib@idAFEntity_WithAttachedHead@@MAEXABVidVec3@@PBD@Z 20025e00 f   AFEntity.obj
 0001:00024e80       ?Event_Gib@idAFEntity_WithAttachedHead@@AAEXPBD@Z 20025e80 f   AFEntity.obj
 0001:00024eb0       ?Event_Activate@idAFEntity_WithAttachedHead@@AAEXPAVidEntity@@@Z 20025eb0 f   AFEntity.obj
 0001:00024ff0       ?RegisterClassA@idAFEntity_Vehicle@@SAXXZ 20025ff0 f   AFEntity.obj
 0001:00025080       ?CreateInstance@idAFEntity_Vehicle@@SAPAVidClass@@XZ 20026080 f   AFEntity.obj
 0001:00025120       ?GetClassType@idAFEntity_Vehicle@@SAAAVidTypeInfo@@XZ 20026120 f   AFEntity.obj
 0001:00025130       ?GetType@idAFEntity_Vehicle@@UBEPAVidTypeInfo@@XZ 20026130 f   AFEntity.obj
 0001:00025140       ??0idAFEntity_Vehicle@@QAE@XZ 20026140 f   AFEntity.obj
 0001:00025190       ?Spawn@idAFEntity_Vehicle@@QAEXXZ 20026190 f   AFEntity.obj
 0001:000252b0       ?Use@idAFEntity_Vehicle@@QAEXPAVidPlayer@@@Z 200262b0 f   AFEntity.obj
 0001:00025420       ?GetSteerAngle@idAFEntity_Vehicle@@IAEMXZ 20026420 f   AFEntity.obj
 0001:000254a0       ?RegisterClassA@idAFEntity_VehicleFourWheels@@SAXXZ 200264a0 f   AFEntity.obj
 0001:00025530       ?CreateInstance@idAFEntity_VehicleFourWheels@@SAPAVidClass@@XZ 20026530 f   AFEntity.obj
 0001:000255d0       ?GetClassType@idAFEntity_VehicleFourWheels@@SAAAVidTypeInfo@@XZ 200265d0 f   AFEntity.obj
 0001:000255e0       ?GetType@idAFEntity_VehicleFourWheels@@UBEPAVidTypeInfo@@XZ 200265e0 f   AFEntity.obj
 0001:000255f0       ??0idAFEntity_VehicleFourWheels@@QAE@XZ 200265f0 f   AFEntity.obj
 0001:00025690       ?Spawn@idAFEntity_VehicleFourWheels@@QAEXXZ 20026690 f   AFEntity.obj
 0001:00025830       ?Think@idAFEntity_VehicleFourWheels@@UAEXXZ 20026830 f   AFEntity.obj
 0001:00025c00       ?RegisterClassA@idAFEntity_VehicleSixWheels@@SAXXZ 20026c00 f   AFEntity.obj
 0001:00025c90       ?CreateInstance@idAFEntity_VehicleSixWheels@@SAPAVidClass@@XZ 20026c90 f   AFEntity.obj
 0001:00025d30       ?GetClassType@idAFEntity_VehicleSixWheels@@SAAAVidTypeInfo@@XZ 20026d30 f   AFEntity.obj
 0001:00025d40       ?GetType@idAFEntity_VehicleSixWheels@@UBEPAVidTypeInfo@@XZ 20026d40 f   AFEntity.obj
 0001:00025d50       ??0idAFEntity_VehicleSixWheels@@QAE@XZ 20026d50 f   AFEntity.obj
 0001:00025e40       ?Spawn@idAFEntity_VehicleSixWheels@@QAEXXZ 20026e40 f   AFEntity.obj
 0001:00025ff0       ?Think@idAFEntity_VehicleSixWheels@@UAEXXZ 20026ff0 f   AFEntity.obj
 0001:00026450       ?RegisterClassA@idAFEntity_SteamPipe@@SAXXZ 20027450 f   AFEntity.obj
 0001:000264e0       ?CreateInstance@idAFEntity_SteamPipe@@SAPAVidClass@@XZ 200274e0 f   AFEntity.obj
 0001:00026580       ?GetClassType@idAFEntity_SteamPipe@@SAAAVidTypeInfo@@XZ 20027580 f   AFEntity.obj
 0001:00026590       ?GetType@idAFEntity_SteamPipe@@UBEPAVidTypeInfo@@XZ 20027590 f   AFEntity.obj
 0001:000265a0       ??0idAFEntity_SteamPipe@@QAE@XZ 200275a0 f   AFEntity.obj
 0001:00026630       ??1idAFEntity_SteamPipe@@UAE@XZ 20027630 f   AFEntity.obj
 0001:000266a0       ?Spawn@idAFEntity_SteamPipe@@QAEXXZ 200276a0 f   AFEntity.obj
 0001:00026830       ?Save@idAFEntity_SteamPipe@@QBEXPAVidSaveGame@@@Z 20027830 f   AFEntity.obj
 0001:00026840       ?Restore@idAFEntity_SteamPipe@@QAEXPAVidRestoreGame@@@Z 20027840 f   AFEntity.obj
 0001:00026850       ?Think@idAFEntity_SteamPipe@@UAEXXZ 20027850 f   AFEntity.obj
 0001:000269f0       ?InitSteamRenderEntity@idAFEntity_SteamPipe@@AAEXXZ 200279f0 f   AFEntity.obj
 0001:00026be0       ?RegisterClassA@idAFEntity_ClawFourFingers@@SAXXZ 20027be0 f   AFEntity.obj
 0001:00026c70       ?CreateInstance@idAFEntity_ClawFourFingers@@SAPAVidClass@@XZ 20027c70 f   AFEntity.obj
 0001:00026d10       ?GetClassType@idAFEntity_ClawFourFingers@@SAAAVidTypeInfo@@XZ 20027d10 f   AFEntity.obj
 0001:00026d20       ?GetType@idAFEntity_ClawFourFingers@@UBEPAVidTypeInfo@@XZ 20027d20 f   AFEntity.obj
 0001:00026d30       ??0idAFEntity_ClawFourFingers@@QAE@XZ 20027d30 f   AFEntity.obj
 0001:00026d70       ?Spawn@idAFEntity_ClawFourFingers@@QAEXXZ 20027d70 f   AFEntity.obj
 0001:00026df0       ?Save@idAFEntity_ClawFourFingers@@QBEXPAVidSaveGame@@@Z 20027df0 f   AFEntity.obj
 0001:00026e20       ?Restore@idAFEntity_ClawFourFingers@@QAEXPAVidRestoreGame@@@Z 20027e20 f   AFEntity.obj
 0001:00026e90       ?Event_SetFingerAngle@idAFEntity_ClawFourFingers@@AAEXM@Z 20027e90 f   AFEntity.obj
 0001:00026ee0       ?Event_StopFingers@idAFEntity_ClawFourFingers@@AAEXXZ 20027ee0 f   AFEntity.obj
 0001:00026f10       ?RegisterClassA@rvAFAttractor@@SAXXZ 20027f10 f   AFEntity.obj
 0001:00026fa0       ?CreateInstance@rvAFAttractor@@SAPAVidClass@@XZ 20027fa0 f   AFEntity.obj
 0001:00027050       ?GetClassType@rvAFAttractor@@SAAAVidTypeInfo@@XZ 20028050 f   AFEntity.obj
 0001:00027060       ?GetType@rvAFAttractor@@UBEPAVidTypeInfo@@XZ 20028060 f   AFEntity.obj
 0001:00027070       ?Register_idMultiModelAF@@YAXXZ 20028070 f   AFEntity.obj
 0001:00027080       ?Register_idChain@@YAXXZ   20028080 f   AFEntity.obj
 0001:00027090       ?Register_idAFAttachment@@YAXXZ 20028090 f   AFEntity.obj
 0001:000270a0       ?Register_idAFEntity_Base@@YAXXZ 200280a0 f   AFEntity.obj
 0001:000270b0       ?Register_idAFEntity_Gibbable@@YAXXZ 200280b0 f   AFEntity.obj
 0001:000270c0       ?Register_idAFEntity_Generic@@YAXXZ 200280c0 f   AFEntity.obj
 0001:000270d0       ?Register_idAFEntity_WithAttachedHead@@YAXXZ 200280d0 f   AFEntity.obj
 0001:000270e0       ?Register_idAFEntity_Vehicle@@YAXXZ 200280e0 f   AFEntity.obj
 0001:000270f0       ?Register_idAFEntity_VehicleFourWheels@@YAXXZ 200280f0 f   AFEntity.obj
 0001:00027100       ?Register_idAFEntity_VehicleSixWheels@@YAXXZ 20028100 f   AFEntity.obj
 0001:00027110       ?Register_idAFEntity_SteamPipe@@YAXXZ 20028110 f   AFEntity.obj
 0001:00027120       ?Register_idAFEntity_ClawFourFingers@@YAXXZ 20028120 f   AFEntity.obj
 0001:00027290       ?Register_rvAFAttractor@@YAXXZ 20028290 f   AFEntity.obj
 0001:000272a0       ??4idBounds@@QAEAAV0@ABV0@@Z 200282a0 f i AFEntity.obj
 0001:000272d0       ??4idTraceModel@@QAEAAV0@ABV0@@Z 200282d0 f i AFEntity.obj
 0001:00027510       ??4renderEntity_s@@QAEAAU0@ABU0@@Z 20028510 f i AFEntity.obj
 0001:000276f0       ??H@YA?AVidStr@@ABV0@0@Z   200286f0 f i AFEntity.obj
 0001:000277d0       ??_EidAFAttachment@@UAEPAXI@Z 200287d0 f i AFEntity.obj
 0001:000277d0       ??_GidAFAttachment@@UAEPAXI@Z 200287d0 f i AFEntity.obj
 0001:00027800       ??_GidAFEntity_Generic@@UAEPAXI@Z 20028800 f i AFEntity.obj
 0001:00027800       ??_EidAFEntity_Generic@@UAEPAXI@Z 20028800 f i AFEntity.obj
 0001:00027830       ??_GidAFEntity_Gibbable@@UAEPAXI@Z 20028830 f i AFEntity.obj
 0001:00027830       ??_EidAFEntity_Gibbable@@UAEPAXI@Z 20028830 f i AFEntity.obj
 0001:00027860       ??_GidAFEntity_SteamPipe@@UAEPAXI@Z 20028860 f i AFEntity.obj
 0001:00027860       ??_EidAFEntity_SteamPipe@@UAEPAXI@Z 20028860 f i AFEntity.obj
 0001:00027890       ??_GidAFEntity_Vehicle@@UAEPAXI@Z 20028890 f i AFEntity.obj
 0001:00027890       ??_EidAFEntity_Vehicle@@UAEPAXI@Z 20028890 f i AFEntity.obj
 0001:00027890       ??_EidAFEntity_ClawFourFingers@@UAEPAXI@Z 20028890 f i AFEntity.obj
 0001:00027890       ??_GidAFEntity_VehicleSixWheels@@UAEPAXI@Z 20028890 f i AFEntity.obj
 0001:00027890       ??_EidAFEntity_VehicleSixWheels@@UAEPAXI@Z 20028890 f i AFEntity.obj
 0001:00027890       ??_EidAFEntity_VehicleFourWheels@@UAEPAXI@Z 20028890 f i AFEntity.obj
 0001:00027890       ??_GidAFEntity_Base@@UAEPAXI@Z 20028890 f i AFEntity.obj
 0001:00027890       ??_GidAFEntity_ClawFourFingers@@UAEPAXI@Z 20028890 f i AFEntity.obj
 0001:00027890       ??_EidAFEntity_Base@@UAEPAXI@Z 20028890 f i AFEntity.obj
 0001:00027890       ??_GidAFEntity_VehicleFourWheels@@UAEPAXI@Z 20028890 f i AFEntity.obj
 0001:000278c0       ??_EidAFEntity_WithAttachedHead@@UAEPAXI@Z 200288c0 f i AFEntity.obj
 0001:000278c0       ??_GidAFEntity_WithAttachedHead@@UAEPAXI@Z 200288c0 f i AFEntity.obj
 0001:000278f0       ??_EidChain@@UAEPAXI@Z     200288f0 f i AFEntity.obj
 0001:000278f0       ??_GidChain@@UAEPAXI@Z     200288f0 f i AFEntity.obj
 0001:000278f0       ??_EidMultiModelAF@@UAEPAXI@Z 200288f0 f i AFEntity.obj
 0001:000278f0       ??_GidMultiModelAF@@UAEPAXI@Z 200288f0 f i AFEntity.obj
 0001:00027920       ?GetEyePosition@idEntity@@UBE?AVidVec3@@XZ 20028920 f i AFEntity.obj
 0001:00027960       ?RegisterClassA@idBrittleFracture@@SAXXZ 20028960 f   BrittleFracture.obj
 0001:000279f0       ?CreateInstance@idBrittleFracture@@SAPAVidClass@@XZ 200289f0 f   BrittleFracture.obj
 0001:00027a90       ?GetClassType@idBrittleFracture@@SAAAVidTypeInfo@@XZ 20028a90 f   BrittleFracture.obj
 0001:00027aa0       ?GetType@idBrittleFracture@@UBEPAVidTypeInfo@@XZ 20028aa0 f   BrittleFracture.obj
 0001:00027ab0       ??0idBrittleFracture@@QAE@XZ 20028ab0 f   BrittleFracture.obj
 0001:00027c60       ??1idBrittleFracture@@UAE@XZ 20028c60 f   BrittleFracture.obj
 0001:00027e20       ?Save@idBrittleFracture@@QBEXPAVidSaveGame@@@Z 20028e20 f   BrittleFracture.obj
 0001:00028180       ?Restore@idBrittleFracture@@QAEXPAVidRestoreGame@@@Z 20029180 f   BrittleFracture.obj
 0001:00028a00       ?Spawn@idBrittleFracture@@QAEXXZ 20029a00 f   BrittleFracture.obj
 0001:00028d90       ?Present@idBrittleFracture@@UAEXXZ 20029d90 f   BrittleFracture.obj
 0001:00028ee0       ?Think@idBrittleFracture@@UAEXXZ 20029ee0 f   BrittleFracture.obj
 0001:00029160       ?ApplyImpulse@idBrittleFracture@@UAEXPAVidEntity@@HABVidVec3@@1_N@Z 2002a160 f   BrittleFracture.obj
 0001:000291d0       ?AddForce@idBrittleFracture@@UAEXPAVidEntity@@HABVidVec3@@1@Z 2002a1d0 f   BrittleFracture.obj
 0001:00029240       ?AddDamageEffect@idBrittleFracture@@UAEXABUtrace_t@@ABVidVec3@@PBDPAVidEntity@@@Z 2002a240 f   BrittleFracture.obj
 0001:00029270       ?Killed@idBrittleFracture@@UAEXPAVidEntity@@0HABVidVec3@@H@Z 2002a270 f   BrittleFracture.obj
 0001:00029290       ?ProjectDecal@idBrittleFracture@@QAEXABVidVec3@@0HPBD@Z 2002a290 f   BrittleFracture.obj
 0001:00029c30       ?IsBroken@idBrittleFracture@@QBE_NXZ 2002ac30 f   BrittleFracture.obj
 0001:00029c40       ?ClientPredictionThink@idBrittleFracture@@UAEXXZ 2002ac40 f   BrittleFracture.obj
 0001:00029c50       ?ClientReceiveEvent@idBrittleFracture@@UAE_NHHABVidBitMsg@@@Z 2002ac50 f   BrittleFracture.obj
 0001:00029d50       ?UpdateRenderEntity@idBrittleFracture@@ABE_NPAUrenderEntity_s@@PBUrenderView_s@@@Z 2002ad50 f   BrittleFracture.obj
 0001:0002ab70       ?ModelCallback@idBrittleFracture@@CA_NPAUrenderEntity_s@@PBUrenderView_s@@@Z 2002bb70 f   BrittleFracture.obj
 0001:0002abb0       ?AddShard@idBrittleFracture@@AAEXPAVidClipModel@@AAVidFixedWinding@@@Z 2002bbb0 f   BrittleFracture.obj
 0001:0002b060       ?RemoveShard@idBrittleFracture@@AAEXH@Z 2002c060 f   BrittleFracture.obj
 0001:0002b110       ?DropShard@idBrittleFracture@@AAEXPAUshard_s@@ABVidVec3@@1MH@Z 2002c110 f   BrittleFracture.obj
 0001:0002b620       ?Shatter@idBrittleFracture@@AAEXABVidVec3@@0H@Z 2002c620 f   BrittleFracture.obj
 0001:0002b900       ?DropFloatingIslands@idBrittleFracture@@AAEXABVidVec3@@0H@Z 2002c900 f   BrittleFracture.obj
 0001:0002bb40       ?Break@idBrittleFracture@@AAEXXZ 2002cb40 f   BrittleFracture.obj
 0001:0002bb60       ?Fracture_r@idBrittleFracture@@AAEXAAVidFixedWinding@@@Z 2002cb60 f   BrittleFracture.obj
 0001:0002c220       ?CreateFractures@idBrittleFracture@@AAEXPBVidRenderModel@@@Z 2002d220 f   BrittleFracture.obj
 0001:0002c480       ?FindNeighbours@idBrittleFracture@@AAEXXZ 2002d480 f   BrittleFracture.obj
 0001:0002d140       ?Event_Activate@idBrittleFracture@@AAEXPAVidEntity@@@Z 2002e140 f   BrittleFracture.obj
 0001:0002d160       ?Event_Touch@idBrittleFracture@@AAEXPAVidEntity@@PAUtrace_t@@@Z 2002e160 f   BrittleFracture.obj
 0001:0002d230       ?Register_idBrittleFracture@@YAXXZ 2002e230 f   BrittleFracture.obj
 0001:0002d240       ??0shard_s@@QAE@XZ         2002e240 f i BrittleFracture.obj
 0001:0002d320       ??1idFixedWinding@@UAE@XZ  2002e320 f i BrittleFracture.obj
 0001:0002d370       ??1idWinding@@UAE@XZ       2002e370 f i BrittleFracture.obj
 0001:0002d3c0       ??1shard_s@@QAE@XZ         2002e3c0 f i BrittleFracture.obj
 0001:0002d540       ??4idFixedWinding@@QAEAAV0@ABV0@@Z 2002e540 f i BrittleFracture.obj
 0001:0002d5d0       ??_GidBrittleFracture@@UAEPAXI@Z 2002e5d0 f i BrittleFracture.obj
 0001:0002d5d0       ??_EidBrittleFracture@@UAEPAXI@Z 2002e5d0 f i BrittleFracture.obj
 0001:0002d600       ??_GidFixedWinding@@UAEPAXI@Z 2002e600 f i BrittleFracture.obj
 0001:0002d600       ??_EidFixedWinding@@UAEPAXI@Z 2002e600 f i BrittleFracture.obj
 0001:0002d680       ??_EidWinding@@UAEPAXI@Z   2002e680 f i BrittleFracture.obj
 0001:0002d680       ??_GidWinding@@UAEPAXI@Z   2002e680 f i BrittleFracture.obj
 0001:0002d700       ?Clear@idFixedWinding@@UAEXXZ 2002e700 f i BrittleFracture.obj
 0001:0002d710       ?Clear@idWinding@@UAEXXZ   2002e710 f i BrittleFracture.obj
 0001:0002d760       ?RegisterClassA@idCamera@@SAXXZ 2002e760 f   Camera.obj
 0001:0002d7f0       ?CreateInstance@idCamera@@SAPAVidClass@@XZ 2002e7f0 f   Camera.obj
 0001:0002d810       ?GetClassType@idCamera@@SAAAVidTypeInfo@@XZ 2002e810 f   Camera.obj
 0001:0002d820       ?GetType@idCamera@@UBEPAVidTypeInfo@@XZ 2002e820 f   Camera.obj
 0001:0002d830       ?Spawn@idCamera@@QAEXXZ    2002e830 f   Camera.obj
 0001:0002d840       ?GetRenderView@idCamera@@UAEPAUrenderView_s@@XZ 2002e840 f   Camera.obj
 0001:0002d860       ?RegisterClassA@idCameraView@@SAXXZ 2002e860 f   Camera.obj
 0001:0002d8f0       ?CreateInstance@idCameraView@@SAPAVidClass@@XZ 2002e8f0 f   Camera.obj
 0001:0002d990       ?GetClassType@idCameraView@@SAAAVidTypeInfo@@XZ 2002e990 f   Camera.obj
 0001:0002d9a0       ?GetType@idCameraView@@UBEPAVidTypeInfo@@XZ 2002e9a0 f   Camera.obj
 0001:0002d9b0       ??0idCameraView@@QAE@XZ    2002e9b0 f   Camera.obj
 0001:0002da70       ?Save@idCameraView@@QBEXPAVidSaveGame@@@Z 2002ea70 f   Camera.obj
 0001:0002daf0       ?Restore@idCameraView@@QAEXPAVidRestoreGame@@@Z 2002eaf0 f   Camera.obj
 0001:0002db90       ?Spawn@idCameraView@@QAEXXZ 2002eb90 f   Camera.obj
 0001:0002dcf0       ?GetViewParms@idCameraView@@UAEXPAUrenderView_s@@@Z 2002ecf0 f   Camera.obj
 0001:0002dea0       ?Stop@idCameraView@@UAEXXZ 2002eea0 f   Camera.obj
 0001:0002df00       ?Event_Activate@idCameraView@@IAEXPAVidEntity@@@Z 2002ef00 f   Camera.obj
 0001:0002dfb0       ?Event_SetAttachments@idCameraView@@IAEXXZ 2002efb0 f   Camera.obj
 0001:0002dfe0       ?SetAttachment@idCameraView@@IAEXPAPAVidEntity@@PBD@Z 2002efe0 f   Camera.obj
 0001:0002e030       ?Event_SetFOV@idCameraView@@IAEXM@Z 2002f030 f   Camera.obj
 0001:0002e090       ?Event_BlendFOV@idCameraView@@IAEXMMM@Z 2002f090 f   Camera.obj
 0001:0002e110       ?Event_GetFOV@idCameraView@@IAEXXZ 2002f110 f   Camera.obj
 0001:0002e140       ??0rvCameraAnimation@@QAE@XZ 2002f140 f   Camera.obj
 0001:0002e210       ??0rvCameraAnimation@@QAE@PBVidDeclCameraDef@@PBV0@@Z 2002f210 f   Camera.obj
 0001:0002e650       ??1rvCameraAnimation@@QAE@XZ 2002f650 f   Camera.obj
 0001:0002e7b0       ?SetAnim@rvCameraAnimation@@QAEXPBVidDeclCameraDef@@PBD1VidStr@@@Z 2002f7b0 f   Camera.obj
 0001:0002ef30       ?Name@rvCameraAnimation@@QBEPBDXZ 2002ff30 f   Camera.obj
 0001:0002ef40       ?FullName@rvCameraAnimation@@QBEPBDXZ 2002ff40 f   Camera.obj
 0001:0002ef50       ?NumFrames@rvCameraAnimation@@QBEHXZ 2002ff50 f   Camera.obj
 0001:0002ef60       ?NumCuts@rvCameraAnimation@@QBEHXZ 2002ff60 f   Camera.obj
 0001:0002ef70       ?AddFrameCommand@rvCameraAnimation@@QAEPBDPBVidDeclCameraDef@@ABV?$idList@H@@AAVidLexer@@PBVidDict@@@Z 2002ff70 f   Camera.obj
 0001:00030fd0       ?CallFrameCommands@rvCameraAnimation@@QBEXPAVidEntity@@HH@Z 20031fd0 f   Camera.obj
 0001:00031520       ?CallFrameCommandSound@rvCameraAnimation@@QBEXABUframeCommand_t@@PAVidEntity@@H@Z 20032520 f   Camera.obj
 0001:00031570       ??0idDeclCameraDef@@QAE@XZ 20032570 f   Camera.obj
 0001:000315d0       ??1idDeclCameraDef@@UAE@XZ 200325d0 f   Camera.obj
 0001:00031660       ?Size@idDeclCameraDef@@UBEIXZ 20032660 f   Camera.obj
 0001:00031670       ?DefaultDefinition@idDeclCameraDef@@UBEPBDXZ 20032670 f   Camera.obj
 0001:00031680       ?Parse@idDeclCameraDef@@UAE_NPBDH_N@Z 20032680 f   Camera.obj
 0001:00031a40       ?FreeData@idDeclCameraDef@@UAEXXZ 20032a40 f   Camera.obj
 0001:00031ae0       ?Validate@idDeclCameraDef@@UBE_NPBDHAAVidStr@@@Z 20032ae0 f   Camera.obj
 0001:00031b30       ?Touch@idDeclCameraDef@@QBEXXZ 20032b30 f   Camera.obj
 0001:00031b40       ?NumAnims@idDeclCameraDef@@QBEHXZ 20032b40 f   Camera.obj
 0001:00031b50       ?GetSpecificAnim@idDeclCameraDef@@QBEHPBD@Z 20032b50 f   Camera.obj
 0001:00031ba0       ?GetAnim@idDeclCameraDef@@QBEHPBD@Z 20032ba0 f   Camera.obj
 0001:00031c50       ?HasAnim@idDeclCameraDef@@QBE_NPBD@Z 20032c50 f   Camera.obj
 0001:00031ca0       ?CopyDecl@idDeclCameraDef@@AAEXPBV1@@Z 20032ca0 f   Camera.obj
 0001:00031e30       ?ParseAnim@idDeclCameraDef@@AAE_NAAVidLexer@@H@Z 20032e30 f   Camera.obj
 0001:00032670       ?RegisterClassA@idCameraAnim@@SAXXZ 20033670 f   Camera.obj
 0001:00032700       ?CreateInstance@idCameraAnim@@SAPAVidClass@@XZ 20033700 f   Camera.obj
 0001:000327a0       ?GetClassType@idCameraAnim@@SAAAVidTypeInfo@@XZ 200337a0 f   Camera.obj
 0001:000327b0       ?GetType@idCameraAnim@@UBEPAVidTypeInfo@@XZ 200337b0 f   Camera.obj
 0001:000327c0       ??0idCameraAnim@@QAE@XZ    200337c0 f   Camera.obj
 0001:000328b0       ??1idCameraAnim@@UAE@XZ    200338b0 f   Camera.obj
 0001:000329c0       ?Save@idCameraAnim@@QBEXPAVidSaveGame@@@Z 200339c0 f   Camera.obj
 0001:00032a20       ?Restore@idCameraAnim@@QAEXPAVidRestoreGame@@@Z 20033a20 f   Camera.obj
 0001:00032a90       ?Spawn@idCameraAnim@@QAEXXZ 20033a90 f   Camera.obj
 0001:00032cf0       ?GetViewParms@idCameraAnim@@UAEXPAUrenderView_s@@@Z 20033cf0 f   Camera.obj
 0001:00033660       ?Start@idCameraAnim@@AAEXXZ 20034660 f   Camera.obj
 0001:00033770       ?Stop@idCameraAnim@@EAEXXZ 20034770 f   Camera.obj
 0001:00033850       ?Think@idCameraAnim@@EAEXXZ 20034850 f   Camera.obj
 0001:000339d0       ?LoadAnim@idCameraAnim@@AAEXXZ 200349d0 f   Camera.obj
 0001:00033af0       ?Event_Start@idCameraAnim@@AAEXXZ 20034af0 f   Camera.obj
 0001:00033b00       ?Event_Stop@idCameraAnim@@AAEXXZ 20034b00 f   Camera.obj
 0001:00033b10       ?Event_SetCallback@idCameraAnim@@AAEXXZ 20034b10 f   Camera.obj
 0001:00033b50       ?Event_Activate@idCameraAnim@@AAEXPAVidEntity@@@Z 20034b50 f   Camera.obj
 0001:00033ba0       ?Event_IsActive@idCameraAnim@@AAEXXZ 20034ba0 f   Camera.obj
 0001:00033be0       ?RegisterClassA@rvCameraPortalSky@@SAXXZ 20034be0 f   Camera.obj
 0001:00033c70       ?CreateInstance@rvCameraPortalSky@@SAPAVidClass@@XZ 20034c70 f   Camera.obj
 0001:00033d20       ?GetClassType@rvCameraPortalSky@@SAAAVidTypeInfo@@XZ 20034d20 f   Camera.obj
 0001:00033d30       ?GetType@rvCameraPortalSky@@UBEPAVidTypeInfo@@XZ 20034d30 f   Camera.obj
 0001:00033d40       ?Save@rvCameraPortalSky@@QBEXPAVidSaveGame@@@Z 20034d40 f   Camera.obj
 0001:00033d50       ?Restore@rvCameraPortalSky@@QAEXPAVidRestoreGame@@@Z 20034d50 f   Camera.obj
 0001:00033d60       ?Spawn@rvCameraPortalSky@@QAEXXZ 20034d60 f   Camera.obj
 0001:00033d90       ?GetViewParms@rvCameraPortalSky@@UAEXPAUrenderView_s@@@Z 20034d90 f   Camera.obj
 0001:00033dd0       ?RegisterClassA@rvCameraPlayback@@SAXXZ 20034dd0 f   Camera.obj
 0001:00033e60       ?CreateInstance@rvCameraPlayback@@SAPAVidClass@@XZ 20034e60 f   Camera.obj
 0001:00033f10       ?GetClassType@rvCameraPlayback@@SAAAVidTypeInfo@@XZ 20034f10 f   Camera.obj
 0001:00033f20       ?GetType@rvCameraPlayback@@UBEPAVidTypeInfo@@XZ 20034f20 f   Camera.obj
 0001:00033f30       ?Save@rvCameraPlayback@@QBEXPAVidSaveGame@@@Z 20034f30 f   Camera.obj
 0001:00033f40       ?Restore@rvCameraPlayback@@QAEXPAVidRestoreGame@@@Z 20034f40 f   Camera.obj
 0001:00033f50       ?Spawn@rvCameraPlayback@@QAEXXZ 20034f50 f   Camera.obj
 0001:00033f80       ?GetViewParms@rvCameraPlayback@@UAEXPAUrenderView_s@@@Z 20034f80 f   Camera.obj
 0001:00034070       ?Register_idCamera@@YAXXZ  20035070 f   Camera.obj
 0001:00034080       ?Register_idCameraView@@YAXXZ 20035080 f   Camera.obj
 0001:00034090       ?Register_idCameraAnim@@YAXXZ 20035090 f   Camera.obj
 0001:000340a0       ?Register_rvCameraPortalSky@@YAXXZ 200350a0 f   Camera.obj
 0001:000340b0       ?Register_rvCameraPlayback@@YAXXZ 200350b0 f   Camera.obj
 0001:000340c0       ??0?$idInterpolate@M@@QAE@XZ 200350c0 f i Camera.obj
 0001:00034100       ??1?$idInterpolate@M@@UAE@XZ 20035100 f i Camera.obj
 0001:00034110       ??1?$idList@VidAFPoseJointMod@@@@QAE@XZ 20035110 f i Anim_Blend.obj
 0001:00034110       ??1?$idList@PAUshard_s@@@@QAE@XZ 20035110 f i BrittleFracture.obj
 0001:00034110       ??1?$idList@V?$idEntityPtr@VidAI@@@@@@QAE@XZ 20035110 f i SplineMover.obj
 0001:00034110       ??1?$idList@PAVidEntity@@@@QAE@XZ 20035110 f i Actor.obj
 0001:00034110       ??1?$idList@VrvLightningPath@@@@QAE@XZ 20035110 f i WeaponLightningGun.obj
 0001:00034110       ??1?$idList@V?$idEntityPtr@VrvCTF_AssaultPoint@@@@@@QAE@XZ 20035110 f i Game_local.obj
 0001:00034110       ??1?$idList@PAVidDict@@@@QAE@XZ 20035110 f i Player.obj
 0001:00034110       ??1?$idList@PAVidAnim@@@@QAE@XZ 20035110 f i Anim_Blend.obj
 0001:00034110       ??1?$idList@H@@QAE@XZ      20035110 f i AF.obj
 0001:00034110       ??1?$idList@V?$rvPair@PAVrvIcon@@H@@@@QAE@XZ 20035110 f i IconManager.obj
 0001:00034110       ??1?$idList@PAVidStr@@@@QAE@XZ 20035110 f i Game_local.obj
 0001:00034110       ??1?$idList@PAVidAFTree@@@@QAE@XZ 20035110 f i Physics_AF.obj
 0001:00034110       ??1?$idList@PAVidRoutingObstacle@@@@QAE@XZ 20035110 f i AAS.obj
 0001:00034110       ??1?$idList@V?$idEntityPtr@VidDoor@@@@@@QAE@XZ 20035110 f i TramGate.obj
 0001:00034110       ??1?$idList@UcameraFrame_t@@@@QAE@XZ 20035110 f i Camera.obj
 0001:00034110       ??1?$idList@PAVidClipModel@@@@QAE@XZ 20035110 f i Physics_StaticMulti.obj
 0001:00034110       ??1?$idList@PAVrvCameraAnimation@@@@QAE@XZ 20035110 f i Camera.obj
 0001:00034110       ??1?$idList@V?$idEntityPtr@VrvSplineMover@@@@@@QAE@XZ 20035110 f i SplineMover.obj
 0001:00034110       ??1?$idList@Usignal_t@@@@QAE@XZ 20035110 f i Entity.obj
 0001:00034110       ??1?$idList@UrvAIAttackAnimInfo_s@@@@QAE@XZ 20035110 f i AI.obj
 0001:00034110       ??1?$idList@PAVrvSplineMover@@@@QAE@XZ 20035110 f i SplineMover.obj
 0001:00034110       ??1?$idList@VidAttachInfo@@@@QAE@XZ 20035110 f i Actor.obj
 0001:00034110       ??1?$idList@PAVidMapBrushSide@@@@QAE@XZ 20035110 f i idLib:mapfile.obj
 0001:00034110       ??1?$idList@W4jointHandle_t@@@@QAE@XZ 20035110 f i Actor.obj
 0001:00034110       ??1?$idList@PAVrvClientMoveable@@@@QAE@XZ 20035110 f i Player.obj
 0001:00034110       ??1?$idList@UjointAnimInfo_t@@@@QAE@XZ 20035110 f i Anim.obj
 0001:00034110       ??1?$idList@PAVidTypeDef@@@@QAE@XZ 20035110 f i Script_Compiler.obj
 0001:00034110       ??1?$idList@PAVidAFBody@@@@QAE@XZ 20035110 f i Physics_AF.obj
 0001:00034110       ??1?$idList@V?$idEntityPtr@VidGuidedProjectile@@@@@@QAE@XZ 20035110 f i Vehicle.obj
 0001:00034110       ??1?$idList@V?$rvPair@PAVrvStat@@H@@@@QAE@XZ 20035110 f i StatManager.obj
 0001:00034110       ??1?$idList@UAFCollision_s@@@@QAE@XZ 20035110 f i Physics_AF.obj
 0001:00034110       ??1?$idList@PAVidRenderModel@@@@QAE@XZ 20035110 f i AFEntity.obj
 0001:00034110       ??1?$idList@PAVidTimer@@@@QAE@XZ 20035110 f i idLib:Timer.obj
 0001:00034110       ??1?$idList@PAVidVarDefName@@@@QAE@XZ 20035110 f i Script_Program.obj
 0001:00034110       ??1?$idList@VidKeyValue@@@@QAE@XZ 20035110 f i Actor.obj
 0001:00034110       ??1?$idList@VidAngles@@@@QAE@XZ 20035110 f i AI.obj
 0001:00034110       ??1?$idList@VidBounds@@@@QAE@XZ 20035110 f i Anim.obj
 0001:00034110       ??1?$idList@UaiAvoid_s@@@@QAE@XZ 20035110 f i AI_Manager.obj
 0001:00034110       ??1?$idList@PAVidAAS@@@@QAE@XZ 20035110 f i Game_local.obj
 0001:00034110       ??1?$idList@PAUrvMarker@@@@QAE@XZ 20035110 f i AI_Move.obj
 0001:00034110       ??1?$idList@UsurfaceEdge_s@@@@QAE@XZ 20035110 f i idLib:mapfile.obj
 0001:00034110       ??1?$idList@UcontactInfo_t@@@@QAE@XZ 20035110 f i Physics_Base.obj
 0001:00034110       ??1?$idList@PAVidClip@@@@QAE@XZ 20035110 f i Game_local.obj
 0001:00034110       ??1?$idList@PBVfunction_t@@@@QAE@XZ 20035110 f i Script_Compiler.obj
 0001:00034110       ??1?$idList@V?$rvPair@HM@@@@QAE@XZ 20035110 f i MultiplayerGame.obj
 0001:00034110       ??1?$idList@UjointConversion_s@@@@QAE@XZ 20035110 f i AF.obj
 0001:00034110       ??1?$idList@UjointInfo_t@@@@QAE@XZ 20035110 f i Anim_Blend.obj
 0001:00034110       ??1?$idList@PAVidMD5Anim@@@@QAE@XZ 20035110 f i Anim.obj
 0001:00034110       ??1?$idList@PAUaasFeature_s@@@@QAE@XZ 20035110 f i AAS_tactical.obj
 0001:00034110       ??1?$idList@PAVidMapEntity@@@@QAE@XZ 20035110 f i Game_local.obj
 0001:00034110       ??1?$idList@UcopyJoints_t@@@@QAE@XZ 20035110 f i AFEntity.obj
 0001:00034110       ??1?$idList@PAVidMapPrimitive@@@@QAE@XZ 20035110 f i GameEdit.obj
 0001:00034110       ??1?$idList@PAVidAFConstraint_Contact@@@@QAE@XZ 20035110 f i Physics_AF.obj
 0001:00034110       ??1?$idList@VidDrawVert@@@@QAE@XZ 20035110 f i idLib:mapfile.obj
 0001:00034110       ??1?$idList@V?$idEntityPtr@VidEntity@@@@@@QAE@XZ 20035110 f i Entity.obj
 0001:00034110       ??1?$idList@PAVidPoolStr@@@@QAE@XZ 20035110 f i idLib:Dict.obj
 0001:00034110       ??1?$idList@PAVidFixedWinding@@@@QAE@XZ 20035110 f i BrittleFracture.obj
 0001:00034110       ??1?$idList@UaasLocation_t@@@@QAE@XZ 20035110 f i Player.obj
 0001:00034110       ??1?$idList@PAUjointMod_t@@@@QAE@XZ 20035110 f i Anim_Blend.obj
 0001:00034110       ??1?$idList@PBD@@QAE@XZ    20035110 f i AI.obj
 0001:00034110       ??1?$idList@PBVidClass@@@@QAE@XZ 20035110 f i SaveGame.obj
 0001:00034110       ??1?$idList@PAVidPlayer@@@@QAE@XZ 20035110 f i Game_local.obj
 0001:00034110       ??1?$idList@VidJointQuat@@@@QAE@XZ 20035110 f i Anim.obj
 0001:00034110       ??1?$idList@PAVidThread@@@@QAE@XZ 20035110 f i Game_local.obj
 0001:00034110       ??1?$idList@I@@QAE@XZ      20035110 f i Camera.obj
 0001:00034110       ??1?$idList@V?$rvPair@PAVidPlayer@@H@@@@QAE@XZ 20035110 f i Game_local.obj
 0001:00034110       ??1?$idList@V?$idEntityPtr@VrvVehicle@@@@@@QAE@XZ 20035110 f i SplineMover.obj
 0001:00034110       ??1?$idList@M@@QAE@XZ      20035110 f i Actor.obj
 0001:00034110       ??1?$idList@PBVidPoolStr@@@@QAE@XZ 20035110 f i idLib:Dict.obj
 0001:00034110       ??1?$idList@PAVidVarDef@@@@QAE@XZ 20035110 f i Script_Program.obj
 0001:00034110       ??1?$idList@PAVrvVehiclePart@@@@QAE@XZ 20035110 f i VehiclePosition.obj
 0001:00034110       ??1?$idList@PAVidPlayerStart@@@@QAE@XZ 20035110 f i Game_local.obj
 0001:00034110       ??1?$idList@PAVrvGravityArea@@@@QAE@XZ 20035110 f i Game_local.obj
 0001:00034110       ??1?$idList@_N@@QAE@XZ     20035110 f i BrittleFracture.obj
 0001:00034110       ??1?$idList@VidStaticPState@@@@QAE@XZ 20035110 f i Physics_StaticMulti.obj
 0001:00034110       ??1?$idList@PAVrvInstance@@@@QAE@XZ 20035110 f i Game_local.obj
 0001:00034110       ??1?$idList@UframeCommand_t@@@@QAE@XZ 20035110 f i Camera.obj
 0001:00034110       ??1?$idList@UspawnSpot_t@@@@QAE@XZ 20035110 f i Game_local.obj
 0001:00034110       ??1?$idList@V?$rvPair@H_N@@@@QAE@XZ 20035110 f i StatManager.obj
 0001:00034110       ??1?$idList@UframeLookup_t@@@@QAE@XZ 20035110 f i Camera.obj
 0001:00034110       ??1?$idList@PAVidAFConstraint@@@@QAE@XZ 20035110 f i Physics_AF.obj
 0001:00034160       ??1idCamera@@UAE@XZ        20035160 f i Camera.obj
 0001:00034160       ??1idDamagable@@UAE@XZ     20035160 f i Misc.obj
 0001:00034160       ??1idTarget@@UAE@XZ        20035160 f i Target.obj
 0001:00034170       ??1idDecl@@UAE@XZ          20035170 f i Camera.obj
 0001:00034180       ??_G?$idInterpolate@M@@UAEPAXI@Z 20035180 f i Camera.obj
 0001:00034180       ??_E?$idInterpolate@M@@UAEPAXI@Z 20035180 f i Camera.obj
 0001:000341d0       ??_G?$idList@VidStr@@@@QAEPAXI@Z 200351d0 f i Camera.obj
 0001:00034260       ??_EidCameraAnim@@UAEPAXI@Z 20035260 f i Camera.obj
 0001:00034260       ??_GidCameraAnim@@UAEPAXI@Z 20035260 f i Camera.obj
 0001:00034290       ??_GidCameraView@@UAEPAXI@Z 20035290 f i Camera.obj
 0001:00034290       ??_EidCameraView@@UAEPAXI@Z 20035290 f i Camera.obj
 0001:000342c0       ??_GidDecl@@UAEPAXI@Z      200352c0 f i Camera.obj
 0001:000342c0       ??_EidDecl@@UAEPAXI@Z      200352c0 f i Camera.obj
 0001:00034310       ??_EidDeclCameraDef@@UAEPAXI@Z 20035310 f i Camera.obj
 0001:00034310       ??_GidDeclCameraDef@@UAEPAXI@Z 20035310 f i Camera.obj
 0001:00034360       ??_GrvCameraPlayback@@UAEPAXI@Z 20035360 f i Camera.obj
 0001:00034360       ??_ErvCameraPlayback@@UAEPAXI@Z 20035360 f i Camera.obj
 0001:00034390       ??_GrvCameraPortalSky@@UAEPAXI@Z 20035390 f i Camera.obj
 0001:00034390       ??_ErvCameraPortalSky@@UAEPAXI@Z 20035390 f i Camera.obj
 0001:000343c0       ?DefaultDefinition@idDecl@@UBEPBDXZ 200353c0 f i Camera.obj
 0001:000343d0       ?FreeData@idDecl@@UAEXXZ   200353d0 f i Camera.obj
 0001:000343e0       ?GetCurrentValue@?$idInterpolate@M@@UBEMM@Z 200353e0 f i Camera.obj
 0001:00034450       ?GetDeltaValue@?$idInterpolate@M@@UBEMMM@Z 20035450 f i Camera.obj
 0001:000344a0       ?Init@rvDeclPlaybackData@@QAEXXZ 200354a0 f i Camera.obj
 0001:00034510       ?List@idDecl@@UBEXXZ       20035510 f i Camera.obj
 0001:00034520       ?Parse@idDecl@@UAE_NPBDH_N@Z 20035520 f i Camera.obj
 0001:00034530       ?Print@idDecl@@UBEXXZ      20035530 f i Camera.obj
 0001:00034540       ?RebuildTextSource@idDecl@@UAE_NXZ 20035540 f i Camera.obj
 0001:00034550       ?SetDefaultText@idDecl@@UAE_NXZ 20035550 f i Camera.obj
 0001:00034560       ?SetReferencedThisLevel@idDecl@@UAEXXZ 20035560 f i Camera.obj
 0001:00034570       ?Size@idDecl@@UBEIXZ       20035570 f i Camera.obj
 0001:00034580       ?Validate@idDecl@@UBE_NPBDHAAVidStr@@@Z 20035580 f i Camera.obj
 0001:00034590       ?RegisterClassA@rvClientAFEntity@@SAXXZ 20035590 f   ClientAFEntity.obj
 0001:00034620       ?CreateInstance@rvClientAFEntity@@SAPAVidClass@@XZ 20035620 f   ClientAFEntity.obj
 0001:000346c0       ?GetClassType@rvClientAFEntity@@SAAAVidTypeInfo@@XZ 200356c0 f   ClientAFEntity.obj
 0001:000346d0       ?GetType@rvClientAFEntity@@UBEPAVidTypeInfo@@XZ 200356d0 f   ClientAFEntity.obj
 0001:000346e0       ??0rvClientAFEntity@@QAE@XZ 200356e0 f   ClientAFEntity.obj
 0001:00034800       ??1rvClientAFEntity@@UAE@XZ 20035800 f   ClientAFEntity.obj
 0001:000348a0       ?Spawn@rvClientAFEntity@@QAEXXZ 200358a0 f   ClientAFEntity.obj
 0001:00034940       ?Think@rvClientAFEntity@@UAEXXZ 20035940 f   ClientAFEntity.obj
 0001:00034960       ?GetImpactInfo@rvClientAFEntity@@UAEXPAVidEntity@@HABVidVec3@@PAUimpactInfo_s@@@Z 20035960 f   ClientAFEntity.obj
 0001:00034980       ?ApplyImpulse@rvClientAFEntity@@UAEXPAVidEntity@@HABVidVec3@@1_N@Z 20035980 f   ClientAFEntity.obj
 0001:000349e0       ?AddForce@rvClientAFEntity@@UAEXPAVidEntity@@HABVidVec3@@1@Z 200359e0 f   ClientAFEntity.obj
 0001:00034a40       ?CanPlayImpactEffect@rvClientAFEntity@@UAE_NPAVidEntity@@0@Z 20035a40 f   ClientAFEntity.obj
 0001:00034a50       ?Collide@rvClientAFEntity@@UAE_NABUtrace_t@@ABVidVec3@@@Z 20035a50 f   ClientAFEntity.obj
 0001:00034b20       ?GetPhysicsToVisualTransform@rvClientAFEntity@@UAE_NAAVidVec3@@AAVidMat3@@@Z 20035b20 f   ClientAFEntity.obj
 0001:00034b50       ?UpdateAnimationControllers@rvClientAFEntity@@UAE_NXZ 20035b50 f   ClientAFEntity.obj
 0001:00034b70       ?FreeEntityDef@rvClientAFEntity@@UAEXXZ 20035b70 f   ClientAFEntity.obj
 0001:00034b80       ?LoadAF@rvClientAFEntity@@UAE_NPBD@Z 20035b80 f   ClientAFEntity.obj
 0001:00034de0       ?SetCombatModel@rvClientAFEntity@@QAEXXZ 20035de0 f   ClientAFEntity.obj
 0001:00034e90       ?GetCombatModel@rvClientAFEntity@@QBEPAVidClipModel@@XZ 20035e90 f   ClientAFEntity.obj
 0001:00034ea0       ?SetCombatContents@rvClientAFEntity@@QAEX_N@Z 20035ea0 f   ClientAFEntity.obj
 0001:00034f00       ?LinkCombat@rvClientAFEntity@@UAEXXZ 20035f00 f   ClientAFEntity.obj
 0001:00034f30       ?UnlinkCombat@rvClientAFEntity@@UAEXXZ 20035f30 f   ClientAFEntity.obj
 0001:00034f40       ?BodyForClipModelId@rvClientAFEntity@@QBEHH@Z 20035f40 f   ClientAFEntity.obj
 0001:00034f50       ?SaveState@rvClientAFEntity@@QBEXAAVidDict@@@Z 20035f50 f   ClientAFEntity.obj
 0001:00035020       ?LoadState@rvClientAFEntity@@QAEXABVidDict@@@Z 20036020 f   ClientAFEntity.obj
 0001:00035030       ?AddBindConstraints@rvClientAFEntity@@QAEXXZ 20036030 f   ClientAFEntity.obj
 0001:00035040       ?RemoveBindConstraints@rvClientAFEntity@@QAEXXZ 20036040 f   ClientAFEntity.obj
 0001:00035050       ?GetNoPlayerImpactFX@rvClientAFEntity@@QAE_NXZ 20036050 f   ClientAFEntity.obj
 0001:00035060       ?RegisterClassA@rvClientAFAttachment@@SAXXZ 20036060 f   ClientAFEntity.obj
 0001:000350f0       ?CreateInstance@rvClientAFAttachment@@SAPAVidClass@@XZ 200360f0 f   ClientAFEntity.obj
 0001:00035190       ?GetClassType@rvClientAFAttachment@@SAAAVidTypeInfo@@XZ 20036190 f   ClientAFEntity.obj
 0001:000351a0       ?GetType@rvClientAFAttachment@@UBEPAVidTypeInfo@@XZ 200361a0 f   ClientAFEntity.obj
 0001:000351b0       ??0rvClientAFAttachment@@QAE@XZ 200361b0 f   ClientAFEntity.obj
 0001:00035250       ??1rvClientAFAttachment@@UAE@XZ 20036250 f   ClientAFEntity.obj
 0001:00035330       ?Spawn@rvClientAFAttachment@@QAEXXZ 20036330 f   ClientAFEntity.obj
 0001:00035350       ?SetBody@rvClientAFAttachment@@QAEXPAVidAnimatedEntity@@PBDW4jointHandle_t@@@Z 20036350 f   ClientAFEntity.obj
 0001:00035400       ?ClearBody@rvClientAFAttachment@@QAEXXZ 20036400 f   ClientAFEntity.obj
 0001:00035420       ?GetBody@rvClientAFAttachment@@QBEPAVidEntity@@XZ 20036420 f   ClientAFEntity.obj
 0001:00035450       ?Think@rvClientAFAttachment@@UAEXXZ 20036450 f   ClientAFEntity.obj
 0001:00035460       ?Hide@rvClientAFAttachment@@UAEXXZ 20036460 f   ClientAFEntity.obj
 0001:00035470       ?Show@rvClientAFAttachment@@UAEXXZ 20036470 f   ClientAFEntity.obj
 0001:00035480       ?UpdateAnimationControllers@rvClientAFAttachment@@UAE_NXZ 20036480 f   ClientAFEntity.obj
 0001:00035490       ?PlayIdleAnim@rvClientAFAttachment@@QAEXHH@Z 20036490 f   ClientAFEntity.obj
 0001:000354e0       ?GetImpactInfo@rvClientAFAttachment@@UAEXPAVidEntity@@HABVidVec3@@PAUimpactInfo_s@@@Z 200364e0 f   ClientAFEntity.obj
 0001:00035560       ?ApplyImpulse@rvClientAFAttachment@@UAEXPAVidEntity@@HABVidVec3@@1_N@Z 20036560 f   ClientAFEntity.obj
 0001:000355f0       ?AddForce@rvClientAFAttachment@@UAEXPAVidEntity@@HABVidVec3@@1@Z 200365f0 f   ClientAFEntity.obj
 0001:00035680       ?CanPlayImpactEffect@rvClientAFAttachment@@UAE_NPAVidEntity@@0@Z 20036680 f   ClientAFEntity.obj
 0001:00035690       ?AddDamageEffect@rvClientAFAttachment@@UAEXABUtrace_t@@ABVidVec3@@PBDPAVidEntity@@@Z 20036690 f   ClientAFEntity.obj
 0001:00035720       ?SetCombatModel@rvClientAFAttachment@@QAEXXZ 20036720 f   ClientAFEntity.obj
 0001:00035800       ?GetCombatModel@rvClientAFAttachment@@QBEPAVidClipModel@@XZ 20036800 f   ClientAFEntity.obj
 0001:00035810       ?LinkCombat@rvClientAFAttachment@@UAEXXZ 20036810 f   ClientAFEntity.obj
 0001:00035840       ?UnlinkCombat@rvClientAFAttachment@@UAEXXZ 20036840 f   ClientAFEntity.obj
 0001:00035850       ?InitCopyJoints@rvClientAFAttachment@@QAEXXZ 20036850 f   ClientAFEntity.obj
 0001:00035c60       ?CopyJointsFromBody@rvClientAFAttachment@@QAEXXZ 20036c60 f   ClientAFEntity.obj
 0001:00036040       ?Register_rvClientAFEntity@@YAXXZ 20037040 f   ClientAFEntity.obj
 0001:00036050       ?Register_rvClientAFAttachment@@YAXXZ 20037050 f   ClientAFEntity.obj
 0001:00036060       ??_GrvClientAFAttachment@@UAEPAXI@Z 20037060 f i ClientAFEntity.obj
 0001:00036060       ??_ErvClientAFAttachment@@UAEPAXI@Z 20037060 f i ClientAFEntity.obj
 0001:00036090       ??_ErvClientAFEntity@@UAEPAXI@Z 20037090 f i ClientAFEntity.obj
 0001:00036090       ??_GrvClientAFEntity@@UAEPAXI@Z 20037090 f i ClientAFEntity.obj
 0001:000360c0       ?GetAnimator@rvAnimatedClientEntity@@UAEPAVidAnimator@@XZ 200370c0 f i ClientAFEntity.obj
 0001:000360c0       ?GetAnimator@rvAnimatedClientEntity@@UBEPBVidAnimator@@XZ 200370c0 f i ClientAFEntity.obj
 0001:000360d0       ?GetRenderEntity@rvClientModel@@UAEPAUrenderEntity_s@@XZ 200370d0 f i ClientAFEntity.obj
 0001:000360e0       ?RegisterClassA@rvEffect@@SAXXZ 200370e0 f   Effect.obj
 0001:00036170       ?CreateInstance@rvEffect@@SAPAVidClass@@XZ 20037170 f   Effect.obj
 0001:00036210       ?GetClassType@rvEffect@@SAAAVidTypeInfo@@XZ 20037210 f   Effect.obj
 0001:00036220       ?GetType@rvEffect@@UBEPAVidTypeInfo@@XZ 20037220 f   Effect.obj
 0001:00036230       ??0rvEffect@@QAE@XZ        20037230 f   Effect.obj
 0001:00036290       ?Spawn@rvEffect@@QAEXXZ    20037290 f   Effect.obj
 0001:00036480       ?Think@rvEffect@@UAEXXZ    20037480 f   Effect.obj
 0001:00036500       ?Save@rvEffect@@QBEXPAVidSaveGame@@@Z 20037500 f   Effect.obj
 0001:00036560       ?Restore@rvEffect@@QAEXPAVidRestoreGame@@@Z 20037560 f   Effect.obj
 0001:00036620       ?Play@rvEffect@@QAE_NXZ    20037620 f   Effect.obj
 0001:00036790       ?Stop@rvEffect@@QAEX_N@Z   20037790 f   Effect.obj
 0001:000367b0       ?Restart@rvEffect@@QAEXXZ  200377b0 f   Effect.obj
 0001:000367d0       ?Attenuate@rvEffect@@QAEXM@Z 200377d0 f   Effect.obj
 0001:00036840       ?UpdateChangeableSpawnArgs@rvEffect@@UAEXPBVidDict@@@Z 20037840 f   Effect.obj
 0001:00036a70       ?ShowEditingDialog@rvEffect@@UAEXXZ 20037a70 f   Effect.obj
 0001:00036a90       ?WriteToSnapshot@rvEffect@@UBEXAAVidBitMsgDelta@@@Z 20037a90 f   Effect.obj
 0001:00036b50       ?ReadFromSnapshot@rvEffect@@UAEXABVidBitMsgDelta@@@Z 20037b50 f   Effect.obj
 0001:00036c40       ?ClientPredictionThink@rvEffect@@UAEXXZ 20037c40 f   Effect.obj
 0001:00036c60       ?InstanceLeave@rvEffect@@UAEXXZ 20037c60 f   Effect.obj
 0001:00036c80       ?InstanceJoin@rvEffect@@UAEXXZ 20037c80 f   Effect.obj
 0001:00036c90       ?Event_Activate@rvEffect@@AAEXPAVidEntity@@@Z 20037c90 f   Effect.obj
 0001:00036cd0       ?Event_LookAtTarget@rvEffect@@AAEXXZ 20037cd0 f   Effect.obj
 0001:00036f60       ?Event_EarthQuake@rvEffect@@AAEXM@Z 20037f60 f   Effect.obj
 0001:00037050       ?Event_Start@rvEffect@@AAEXXZ 20038050 f   Effect.obj
 0001:000370c0       ?Event_Stop@rvEffect@@AAEXXZ 200380c0 f   Effect.obj
 0001:000370e0       ?Event_Attenuate@rvEffect@@AAEXM@Z 200380e0 f   Effect.obj
 0001:00037100       ?Event_IsActive@rvEffect@@AAEXXZ 20038100 f   Effect.obj
 0001:00037140       ?Register_rvEffect@@YAXXZ  20038140 f   Effect.obj
 0001:00037150       ??C?$rvClientEntityPtr@VrvClientEffect@@@@QBEPAVrvClientEffect@@XZ 20038150 f i Effect.obj
 0001:00037150       ??B?$rvClientEntityPtr@VrvClientAFAttachment@@@@QBEPAVrvClientAFAttachment@@XZ 20038150 f i Player.obj
 0001:00037150       ??B?$rvClientEntityPtr@VrvClientEffect@@@@QBEPAVrvClientEffect@@XZ 20038150 f i Effect.obj
 0001:00037180       ?ParseSpawnArgsToRenderEntity@idGameEdit@@UAEXPBVidDict@@PAUrenderEntity_s@@@Z 20038180 f   Entity.obj
 0001:00037770       ?ParseSpawnArgsToRefSound@idGameEdit@@UAEXPBVidDict@@PAUrefSound_t@@@Z 20038770 f   Entity.obj
 0001:00037b10       ?RegisterClassA@idEntity@@SAXXZ 20038b10 f   Entity.obj
 0001:00037ba0       ?CreateInstance@idEntity@@SAPAVidClass@@XZ 20038ba0 f   Entity.obj
 0001:00037bc0       ?GetClassType@idEntity@@SAAAVidTypeInfo@@XZ 20038bc0 f   Entity.obj
 0001:00037bd0       ?GetType@idEntity@@UBEPAVidTypeInfo@@XZ 20038bd0 f   Entity.obj
 0001:00037be0       ??0idEntity@@QAE@XZ        20038be0 f   Entity.obj
 0001:00037fd0       ??1idEntity@@UAE@XZ        20038fd0 f   Entity.obj
 0001:00038230       ?Spawn@idEntity@@QAEXXZ    20039230 f   Entity.obj
 0001:000387d0       ?Save@idEntity@@QBEXPAVidSaveGame@@@Z 200397d0 f   Entity.obj
 0001:00038aa0       ?Restore@idEntity@@QAEXPAVidRestoreGame@@@Z 20039aa0 f   Entity.obj
 0001:00039190       ?GetEntityDefName@idEntity@@QBEPBDXZ 2003a190 f   Entity.obj
 0001:000391c0       ?SetName@idEntity@@QAEXPBD@Z 2003a1c0 f   Entity.obj
 0001:00039260       ?GetName@idEntity@@QBEPBDXZ 2003a260 f   Entity.obj
 0001:00039270       ?UpdateChangeableSpawnArgs@idEntity@@UAEXPBVidDict@@@Z 2003a270 f   Entity.obj
 0001:000392f0       ?GetRenderView@idEntity@@UAEPAUrenderView_s@@XZ 2003a2f0 f   Entity.obj
 0001:00039480       ?Think@idEntity@@UAEXXZ    2003a480 f   Entity.obj
 0001:00039490       ?CheckDormant@idEntity@@QAE_NXZ 2003a490 f   Entity.obj
 0001:00039520       ?DormantBegin@idEntity@@UAEXXZ 2003a520 f   Entity.obj
 0001:00039530       ?DormantEnd@idEntity@@UAEXXZ 2003a530 f   Entity.obj
 0001:00039540       ?IsActive@idEntity@@QBE_NXZ 2003a540 f   Entity.obj
 0001:00039550       ?BecomeActive@idEntity@@QAEXH@Z 2003a550 f   Entity.obj
 0001:00039640       ?BecomeInactive@idEntity@@QAEXH@Z 2003a640 f   Entity.obj
 0001:00039720       ?UpdatePVSAreas@idEntity@@QAEXABVidVec3@@@Z 2003a720 f   Entity.obj
 0001:000397a0       ?GetPosition@idEntity@@UBEXAAVidVec3@@AAVidMat3@@@Z 2003a7a0 f   Entity.obj
 0001:00039820       ?GetLocalAngles@idEntity@@UAEXAAVidAngles@@@Z 2003a820 f   Entity.obj
 0001:00039880       ?Present@idEntity@@UAEXXZ  2003a880 f   Entity.obj
 0001:00039980       ?InstanceJoin@idEntity@@UAEXXZ 2003a980 f   Entity.obj
 0001:000399a0       ?InstanceLeave@idEntity@@UAEXXZ 2003a9a0 f   Entity.obj
 0001:000399c0       ?SetModel@idEntity@@UAEXPBD@Z 2003a9c0 f   Entity.obj
 0001:00039ac0       ?SetSkin@idEntity@@QAEXPBVidDeclSkin@@@Z 2003aac0 f   Entity.obj
 0001:00039ae0       ?GetSkin@idEntity@@QBEPBVidDeclSkin@@XZ 2003aae0 f   Entity.obj
 0001:00039af0       ?HideSurface@idEntity@@QAEXPBD@Z 2003aaf0 f   Entity.obj
 0001:00039b20       ?ShowSurface@idEntity@@QAEXPBD@Z 2003ab20 f   Entity.obj
 0001:00039b60       ?ClearSkin@idEntity@@QAEXXZ 2003ab60 f   Entity.obj
 0001:00039bc0       ?SetShaderParm@idEntity@@QAEXHM@Z 2003abc0 f   Entity.obj
 0001:00039c00       ?SetColor@idEntity@@UAEXMMM@Z 2003ac00 f   Entity.obj
 0001:00039c40       ?SetColor@idEntity@@UAEXABVidVec3@@@Z 2003ac40 f   Entity.obj
 0001:00039c80       ?GetColor@idEntity@@UBEXAAVidVec3@@@Z 2003ac80 f   Entity.obj
 0001:00039cb0       ?SetColor@idEntity@@UAEXABVidVec4@@@Z 2003acb0 f   Entity.obj
 0001:00039cf0       ?GetColor@idEntity@@UBEXAAVidVec4@@@Z 2003acf0 f   Entity.obj
 0001:00039d20       ?FreeModelDef@idEntity@@UAEXXZ 2003ad20 f   Entity.obj
 0001:00039d80       ?FreeLightDef@idEntity@@UAEXXZ 2003ad80 f   Entity.obj
 0001:00039d90       ?Hide@idEntity@@UAEXXZ     2003ad90 f   Entity.obj
 0001:00039dc0       ?Show@idEntity@@UAEXXZ     2003adc0 f   Entity.obj
 0001:00039de0       ?IsHidden@idEntity@@QBE_NXZ 2003ade0 f   Entity.obj
 0001:00039df0       ?UpdateVisuals@idEntity@@QAEXXZ 2003adf0 f   Entity.obj
 0001:00039e00       ?UpdateModel@idEntity@@QAEXXZ 2003ae00 f   Entity.obj
 0001:00039e30       ?UpdateModelTransform@idEntity@@UAEXXZ 2003ae30 f   Entity.obj
 0001:0003a1a0       ?UpdateRenderEntityCallback@idEntity@@UAEXXZ 2003b1a0 f   Entity.obj
 0001:0003a1b0       ?ProjectOverlay@idEntity@@UAEXABVidVec3@@0MPBD@Z 2003b1b0 f   Entity.obj
 0001:0003a7c0       ?GetNumPVSAreas@idEntity@@QAEHXZ 2003b7c0 f   Entity.obj
 0001:0003a7e0       ?GetPVSAreas@idEntity@@QAEPBHXZ 2003b7e0 f   Entity.obj
 0001:0003a800       ?ClearPVSAreas@idEntity@@QAEXXZ 2003b800 f   Entity.obj
 0001:0003a810       ?PhysicsTeamInPVS@idEntity@@QAE_NUpvsHandle_s@@@Z 2003b810 f   Entity.obj
 0001:0003a890       ?UpdateAnimationControllers@idEntity@@UAE_NXZ 2003b890 f   Entity.obj
 0001:0003a8a0       ?UpdateRenderEntity@idEntity@@QAE_NPAUrenderEntity_s@@PBUrenderView_s@@@Z 2003b8a0 f   Entity.obj
 0001:0003a8e0       ?ModelCallback@idEntity@@SA_NPAUrenderEntity_s@@PBUrenderView_s@@@Z 2003b8e0 f   Entity.obj
 0001:0003a920       ?GetAnimator@idEntity@@UAEPAVidAnimator@@XZ 2003b920 f   Entity.obj
 0001:0003a930       ?CanPlayChatterSounds@idEntity@@UBE_NXZ 2003b930 f   Entity.obj
 0001:0003a940       ?StartSound@idEntity@@QAE_NPBDHH_NPAH@Z 2003b940 f   Entity.obj
 0001:0003aa90       ?StartSoundShader@idEntity@@QAE_NPBVidSoundShader@@HH_NPAH@Z 2003ba90 f   Entity.obj
 0001:0003acd0       ?StopSound@idEntity@@QAEXH_N@Z 2003bcd0 f   Entity.obj
 0001:0003ada0       ?SetSoundVolume@idEntity@@QAEXM@Z 2003bda0 f   Entity.obj
 0001:0003adc0       ?UpdateSound@idEntity@@QAEXXZ 2003bdc0 f   Entity.obj
 0001:0003af40       ?GetListenerId@idEntity@@QBEHXZ 2003bf40 f   Entity.obj
 0001:0003af50       ?GetSoundEmitter@idEntity@@QBEHXZ 2003bf50 f   Entity.obj
 0001:0003af60       ?FreeSoundEmitter@idEntity@@QAEX_N@Z 2003bf60 f   Entity.obj
 0001:0003af90       ?PlayEffect@idEntity@@QAEPAVrvClientEffect@@PBVidDecl@@W4jointHandle_t@@ABVidVec3@@ABVidMat3@@_N24W4effectCategory_t@@ABVidVec4@@@Z 2003bf90 f   Entity.obj
 0001:0003b2d0       ?PlayEffect@idEntity@@QAEPAVrvClientEffect@@PBVidDecl@@ABVidVec3@@ABVidMat3@@_N13W4effectCategory_t@@ABVidVec4@@@Z 2003c2d0 f   Entity.obj
 0001:0003b950       ?StopEffect@idEntity@@QAEXPBD_N@Z 2003c950 f   Entity.obj
 0001:0003b980       ?StopEffect@idEntity@@QAEXPBVidDecl@@_N@Z 2003c980 f   Entity.obj
 0001:0003ba10       ?StopAllEffects@idEntity@@QAEX_N@Z 2003ca10 f   Entity.obj
 0001:0003ba80       ?DistanceTo2d@idEntity@@QBEMABVidVec3@@@Z 2003ca80 f   Entity.obj
 0001:0003bc60       ?PreBind@idEntity@@UAEXXZ  2003cc60 f   Entity.obj
 0001:0003bc70       ?PostBind@idEntity@@UAEXXZ 2003cc70 f   Entity.obj
 0001:0003bc80       ?PreUnbind@idEntity@@UAEXXZ 2003cc80 f   Entity.obj
 0001:0003bc90       ?PostUnbind@idEntity@@UAEXXZ 2003cc90 f   Entity.obj
 0001:0003bca0       ?JoinTeam@idEntity@@QAEXPAV1@@Z 2003cca0 f   Entity.obj
 0001:0003bde0       ?Bind@idEntity@@QAEXPAV1@_N@Z 2003cde0 f   Entity.obj
 0001:0003be60       ?BindToJoint@idEntity@@QAEXPAV1@PBD_N@Z 2003ce60 f   Entity.obj
 0001:0003bf30       ?BindToJoint@idEntity@@QAEXPAV1@W4jointHandle_t@@_N@Z 2003cf30 f   Entity.obj
 0001:0003bfb0       ?BindToBody@idEntity@@QAEXPAV1@H_N@Z 2003cfb0 f   Entity.obj
 0001:0003c050       ?Unbind@idEntity@@QAEXXZ   2003d050 f   Entity.obj
 0001:0003c1f0       ?IsBound@idEntity@@QBE_NXZ 2003d1f0 f   Entity.obj
 0001:0003c220       ?IsBoundTo@idEntity@@QBE_NPBV1@@Z 2003d220 f   Entity.obj
 0001:0003c2b0       ?GetBindMaster@idEntity@@QBEPAV1@XZ 2003d2b0 f   Entity.obj
 0001:0003c2e0       ?GetBindJoint@idEntity@@QBE?AW4jointHandle_t@@XZ 2003d2e0 f   Entity.obj
 0001:0003c2f0       ?GetBindBody@idEntity@@QBEHXZ 2003d2f0 f   Entity.obj
 0001:0003c300       ?GetTeamMaster@idEntity@@QBEPAV1@XZ 2003d300 f   Entity.obj
 0001:0003c310       ?GetNextTeamEntity@idEntity@@QBEPAV1@XZ 2003d310 f   Entity.obj
 0001:0003c320       ?ConvertLocalToWorldTransform@idEntity@@UAEXAAVidVec3@@AAVidMat3@@@Z 2003d320 f   Entity.obj
 0001:0003c5c0       ?GetLocalVector@idEntity@@QBE?AVidVec3@@ABV2@@Z 2003d5c0 f   Entity.obj
 0001:0003c6a0       ?GetLocalCoordinates@idEntity@@QBE?AVidVec3@@ABV2@@Z 2003d6a0 f   Entity.obj
 0001:0003c7a0       ?GetWorldVector@idEntity@@QBE?AVidVec3@@ABV2@@Z 2003d7a0 f   Entity.obj
 0001:0003c8a0       ?GetWorldCoordinates@idEntity@@QBE?AVidVec3@@ABV2@@Z 2003d8a0 f   Entity.obj
 0001:0003c9c0       ?GetMasterPosition@idEntity@@UBE_NAAVidVec3@@AAVidMat3@@@Z 2003d9c0 f   Entity.obj
 0001:0003cf70       ?GetWorldVelocities@idEntity@@QBEXAAVidVec3@@0@Z 2003df70 f   Entity.obj
 0001:0003d150       ?SetPhysics@idEntity@@QAEXPAVidPhysics@@@Z 2003e150 f   Entity.obj
 0001:0003d210       ?RestorePhysics@idEntity@@QAEXPAVidPhysics@@@Z 2003e210 f   Entity.obj
 0001:0003d220       ?RunPhysics@idEntity@@QAE_NXZ 2003e220 f   Entity.obj
 0001:0003d510       ?SetOrigin@idEntity@@QAEXABVidVec3@@@Z 2003e510 f   Entity.obj
 0001:0003d540       ?SetAxis@idEntity@@QAEXABVidMat3@@@Z 2003e540 f   Entity.obj
 0001:0003d5f0       ?SetAngles@idEntity@@QAEXABVidAngles@@@Z 2003e5f0 f   Entity.obj
 0001:0003d620       ?GetFloorPos@idEntity@@QBE_NMAAVidVec3@@@Z 2003e620 f   Entity.obj
 0001:0003d730       ?GetPhysicsToVisualTransform@idEntity@@UAE_NAAVidVec3@@AAVidMat3@@@Z 2003e730 f   Entity.obj
 0001:0003d740       ?GetPhysicsToSoundTransform@idEntity@@UAE_NAAVidVec3@@AAVidMat3@@@Z 2003e740 f   Entity.obj
 0001:0003d830       ?Collide@idEntity@@UAE_NABUtrace_t@@ABVidVec3@@@Z 2003e830 f   Entity.obj
 0001:0003d840       ?GetImpactInfo@idEntity@@UAEXPAV1@HABVidVec3@@PAUimpactInfo_s@@@Z 2003e840 f   Entity.obj
 0001:0003d860       ?ApplyImpulse@idEntity@@UAEXPAV1@HABVidVec3@@1_N@Z 2003e860 f   Entity.obj
 0001:0003d8a0       ?AddForce@idEntity@@UAEXPAV1@HABVidVec3@@1@Z 2003e8a0 f   Entity.obj
 0001:0003d8c0       ?ActivatePhysics@idEntity@@UAEXPAV1@@Z 2003e8c0 f   Entity.obj
 0001:0003d8d0       ?IsAtRest@idEntity@@UBE_NXZ 2003e8d0 f   Entity.obj
 0001:0003d8e0       ?GetRestStartTime@idEntity@@UBEHXZ 2003e8e0 f   Entity.obj
 0001:0003d8f0       ?AddContactEntity@idEntity@@UAEXPAV1@@Z 2003e8f0 f   Entity.obj
 0001:0003d910       ?RemoveContactEntity@idEntity@@UAEXPAV1@@Z 2003e910 f   Entity.obj
 0001:0003d930       ?DrawDebugEntityInfo@idEntity@@UAEXPAVidBounds@@0PAVidVec4@@@Z 2003e930 f   Entity.obj
 0001:0003df80       ?SkipImpulse@idEntity@@UAE_NPAV1@H@Z 2003ef80 f   Entity.obj
 0001:0003df90       ?ApplyImpulse@idEntity@@UAEXPAV1@HABVidVec3@@1PBVidDict@@@Z 2003ef90 f   Entity.obj
 0001:0003e020       ?GetDamageEntity@idEntity@@UAEPAV1@XZ 2003f020 f   Entity.obj
 0001:0003e070       ?CanDamage@idEntity@@UBE_NABVidVec3@@AAV2@PAV1@@Z 2003f070 f   Entity.obj
 0001:0003e460       ?Damage@idEntity@@UAEXPAV1@0ABVidVec3@@PBDMH@Z 2003f460 f   Entity.obj
 0001:0003e7b0       ?AddDamageEffect@idEntity@@UAEXABUtrace_t@@ABVidVec3@@PBDPAV1@@Z 2003f7b0 f   Entity.obj
 0001:0003e9a0       ?CanPlayImpactEffect@idEntity@@UAE_NPAV1@0@Z 2003f9a0 f   Entity.obj
 0001:0003eaf0       ?DamageFeedback@idEntity@@UAEXPAV1@0AAH@Z 2003faf0 f   Entity.obj
 0001:0003eb00       ?Pain@idEntity@@UAE_NPAV1@0HABVidVec3@@H@Z 2003fb00 f   Entity.obj
 0001:0003eb10       ?Killed@idEntity@@UAEXPAV1@0HABVidVec3@@H@Z 2003fb10 f   Entity.obj
 0001:0003eb20       ?ShouldConstructScriptObjectAtSpawn@idEntity@@UBE_NXZ 2003fb20 f   Entity.obj
 0001:0003eb30       ?ConstructScriptObject@idEntity@@UAEPAVidThread@@XZ 2003fb30 f   Entity.obj
 0001:0003ebe0       ?DeconstructScriptObject@idEntity@@UAEXXZ 2003fbe0 f   Entity.obj
 0001:0003ec90       ?SetSignal@idEntity@@QAEXW4signalNum_t@@PAVidThread@@PBVfunction_t@@@Z 2003fc90 f   Entity.obj
 0001:0003ef50       ?ClearSignal@idEntity@@QAEXPAVidThread@@W4signalNum_t@@@Z 2003ff50 f   Entity.obj
 0001:0003efd0       ?ClearSignalThread@idEntity@@QAEXW4signalNum_t@@PAVidThread@@@Z 2003ffd0 f   Entity.obj
 0001:0003f060       ?HasSignal@idEntity@@QBE_NW4signalNum_t@@@Z 20040060 f   Entity.obj
 0001:0003f090       ?Signal@idEntity@@QAEXW4signalNum_t@@@Z 20040090 f   Entity.obj
 0001:0003f160       ?SignalEvent@idEntity@@QAEXPAVidThread@@W4signalNum_t@@@Z 20040160 f   Entity.obj
 0001:0003f1a0       ?TriggerGuis@idEntity@@QAEXXZ 200401a0 f   Entity.obj
 0001:0003f1d0       ?HandleGuiCommands@idEntity@@QAE_NPAV1@PBD@Z 200401d0 f   Entity.obj
 0001:0003f9b0       ?HandleSingleGuiCommand@idEntity@@UAE_NPAV1@PAVidLexer@@@Z 200409b0 f   Entity.obj
 0001:0003f9c0       ?FindTargets@idEntity@@UAEXXZ 200409c0 f   Entity.obj
 0001:0003fa30       ?RemoveNullTargets@idEntity@@UAEXXZ 20040a30 f   Entity.obj
 0001:0003fae0       ?ActivateTargets@idEntity@@UBEXPAV1@@Z 20040ae0 f   Entity.obj
 0001:0003fbc0       ?UnbindTargets@idEntity@@QBEXPAV1@@Z 20040bc0 f   Entity.obj
 0001:0003fc10       ?AppendTarget@idEntity@@QAEHPAV1@@Z 20040c10 f   Entity.obj
 0001:0003ff70       ?RemoveTarget@idEntity@@QAEXPAV1@@Z 20040f70 f   Entity.obj
 0001:000400a0       ?RemoveTargets@idEntity@@QAEX_N@Z 200410a0 f   Entity.obj
 0001:00040220       ?Teleport@idEntity@@UAEXABVidVec3@@ABVidAngles@@PAV1@@Z 20041220 f   Entity.obj
 0001:00040270       ?TouchTriggers@idEntity@@QBE_NPBVidTypeInfo@@@Z 20041270 f   Entity.obj
 0001:000404b0       ?GetSpline@idEntity@@QBEPAV?$idCurve_Spline@VidVec3@@@@XZ 200414b0 f   Entity.obj
 0001:00040890       ?ShowEditingDialog@idEntity@@UAEXXZ 20041890 f   Entity.obj
 0001:000408a0       ?ClientPredictionThink@idEntity@@UAEXXZ 200418a0 f   Entity.obj
 0001:000408b0       ?WriteToSnapshot@idEntity@@UBEXAAVidBitMsgDelta@@@Z 200418b0 f   Entity.obj
 0001:000408c0       ?ReadFromSnapshot@idEntity@@UAEXABVidBitMsgDelta@@@Z 200418c0 f   Entity.obj
 0001:000408d0       ?ServerReceiveEvent@idEntity@@UAE_NHHABVidBitMsg@@@Z 200418d0 f   Entity.obj
 0001:000408e0       ?ClientReceiveEvent@idEntity@@UAE_NHHABVidBitMsg@@@Z 200418e0 f   Entity.obj
 0001:00040d90       ?ClientStale@idEntity@@UAE_NXZ 20041d90 f   Entity.obj
 0001:00040dc0       ?ClientUnstale@idEntity@@UAEXXZ 20041dc0 f   Entity.obj
 0001:00040dd0       ?WriteBindToSnapshot@idEntity@@QBEXAAVidBitMsgDelta@@@Z 20041dd0 f   Entity.obj
 0001:00040ea0       ?ReadBindFromSnapshot@idEntity@@QAEXABVidBitMsgDelta@@@Z 20041ea0 f   Entity.obj
 0001:00040f40       ?WriteColorToSnapshot@idEntity@@QBEXAAVidBitMsgDelta@@@Z 20041f40 f   Entity.obj
 0001:00040f70       ?ReadColorFromSnapshot@idEntity@@QAEXABVidBitMsgDelta@@@Z 20041f70 f   Entity.obj
 0001:00040fb0       ?WriteGUIToSnapshot@idEntity@@QBEXAAVidBitMsgDelta@@@Z 20041fb0 f   Entity.obj
 0001:00041020       ?ReadGUIFromSnapshot@idEntity@@QAEXABVidBitMsgDelta@@@Z 20042020 f   Entity.obj
 0001:00041070       ?ServerSendEvent@idEntity@@QBEXHPBVidBitMsg@@_NH@Z 20042070 f   Entity.obj
 0001:00041180       ?ServerSendInstanceEvent@idEntity@@QBEXHPBVidBitMsg@@_NH@Z 20042180 f   Entity.obj
 0001:00041290       ?ClientSendEvent@idEntity@@QBEXHPBVidBitMsg@@@Z 20042290 f   Entity.obj
 0001:00041380       ?GetDebugInfo@idEntity@@UAEXP6AXPBD00PAX@Z1@Z 20042380 f   Entity.obj
 0001:00041670       ?Size@idEntity@@UBEIXZ     20042670 f   Entity.obj
 0001:00041680       ?SetInstance@idEntity@@UAEXH@Z 20042680 f   Entity.obj
 0001:000416b0       ?DoDormantTests@idEntity@@MAE_NXZ 200426b0 f   Entity.obj
 0001:00041700       ?InitDefaultPhysics@idEntity@@IAEXABVidVec3@@ABVidMat3@@@Z 20042700 f   Entity.obj
 0001:00041bf0       ?UpdateFromPhysics@idEntity@@IAEX_N@Z 20042bf0 f   Entity.obj
 0001:00041c90       ?InitBind@idEntity@@IAE_NPAV1@@Z 20042c90 f   Entity.obj
 0001:00041d10       ?FinishBind@idEntity@@IAEXXZ 20042d10 f   Entity.obj
 0001:00041de0       ?RemoveBinds@idEntity@@IAEXXZ 20042de0 f   Entity.obj
 0001:00041e50       ?QuitTeam@idEntity@@IAEXXZ 20042e50 f   Entity.obj
 0001:00041f00       ?UpdatePVSAreas@idEntity@@IAEXXZ 20042f00 f   Entity.obj
 0001:00042010       ?RemoveClientEntities@idEntity@@IAEXXZ 20043010 f   Entity.obj
 0001:00042060       ?Event_GetName@idEntity@@IAEXXZ 20043060 f   Entity.obj
 0001:00042070       ?Event_SetName@idEntity@@IAEXPBD@Z 20043070 f   Entity.obj
 0001:00042080       ?Event_FindTargets@idEntity@@IAEXXZ 20043080 f   Entity.obj
 0001:00042090       ?Event_ActivateTargets@idEntity@@IAEXPAV1@@Z 20043090 f   Entity.obj
 0001:000420a0       ?Event_NumTargets@idEntity@@IAEXXZ 200430a0 f   Entity.obj
 0001:000420c0       ?Event_GetTarget@idEntity@@IAEXM@Z 200430c0 f   Entity.obj
 0001:00042130       ?Event_RandomTarget@idEntity@@IAEXPBD@Z 20043130 f   Entity.obj
 0001:00042250       ?Event_Bind@idEntity@@IAEXPAV1@@Z 20043250 f   Entity.obj
 0001:00042270       ?Event_BindPosition@idEntity@@IAEXPAV1@@Z 20043270 f   Entity.obj
 0001:00042290       ?Event_BindToJoint@idEntity@@IAEXPAV1@PBDM@Z 20043290 f   Entity.obj
 0001:000422c0       ?Event_Unbind@idEntity@@IAEXXZ 200432c0 f   Entity.obj
 0001:000422d0       ?Event_RemoveBinds@idEntity@@IAEXXZ 200432d0 f   Entity.obj
 0001:000422e0       ?Event_SpawnBind@idEntity@@IAEXXZ 200432e0 f   Entity.obj
 0001:00042540       ?Event_SetOwner@idEntity@@IAEXPAV1@@Z 20043540 f   Entity.obj
 0001:00042590       ?Event_SetModel@idEntity@@IAEXPBD@Z 20043590 f   Entity.obj
 0001:000425a0       ?Event_SetSkin@idEntity@@IAEXPBD@Z 200435a0 f   Entity.obj
 0001:000425d0       ?Event_GetShaderParm@idEntity@@IAEXH@Z 200435d0 f   Entity.obj
 0001:00042620       ?Event_SetShaderParm@idEntity@@IAEXHM@Z 20043620 f   Entity.obj
 0001:00042640       ?Event_SetShaderParms@idEntity@@IAEXMMMM@Z 20043640 f   Entity.obj
 0001:00042680       ?Event_SetColor@idEntity@@IAEXMMM@Z 20043680 f   Entity.obj
 0001:000426b0       ?Event_GetColor@idEntity@@IAEXXZ 200436b0 f   Entity.obj
 0001:000426d0       ?Event_IsHidden@idEntity@@IAEXXZ 200436d0 f   Entity.obj
 0001:000426f0       ?Event_Hide@idEntity@@IAEXXZ 200436f0 f   Entity.obj
 0001:00042700       ?Event_Show@idEntity@@IAEXXZ 20043700 f   Entity.obj
 0001:00042710       ?Event_CacheSoundShader@idEntity@@IAEXPBD@Z 20043710 f   Entity.obj
 0001:00042730       ?Event_StartSoundShader@idEntity@@IAEXPBDH@Z 20043730 f   Entity.obj
 0001:00042790       ?Event_StopSound@idEntity@@IAEXHH@Z 20043790 f   Entity.obj
 0001:000427b0       ?Event_StartSound@idEntity@@IAEXPBDHH@Z 200437b0 f   Entity.obj
 0001:00042800       ?Event_FadeSound@idEntity@@IAEXHMM@Z 20043800 f   Entity.obj
 0001:00042850       ?Event_GetWorldOrigin@idEntity@@IAEXXZ 20043850 f   Entity.obj
 0001:00042870       ?Event_SetWorldOrigin@idEntity@@IAEXABVidVec3@@@Z 20043870 f   Entity.obj
 0001:000428a0       ?Event_GetOrigin@idEntity@@IAEXXZ 200438a0 f   Entity.obj
 0001:000428e0       ?Event_SetOrigin@idEntity@@IAEXABVidVec3@@@Z 200438e0 f   Entity.obj
 0001:000428f0       ?Event_GetAngles@idEntity@@IAEXXZ 200438f0 f   Entity.obj
 0001:00042940       ?Event_SetAngles@idEntity@@IAEXABVidAngles@@@Z 20043940 f   Entity.obj
 0001:00042950       ?Event_SetLinearVelocity@idEntity@@IAEXABVidVec3@@@Z 20043950 f   Entity.obj
 0001:00042970       ?Event_GetLinearVelocity@idEntity@@IAEXXZ 20043970 f   Entity.obj
 0001:00042990       ?Event_SetAngularVelocity@idEntity@@IAEXABVidVec3@@@Z 20043990 f   Entity.obj
 0001:000429b0       ?Event_GetAngularVelocity@idEntity@@IAEXXZ 200439b0 f   Entity.obj
 0001:000429d0       ?Event_SetSize@idEntity@@IAEXABVidVec3@@0@Z 200439d0 f   Entity.obj
 0001:00042a40       ?Event_GetSize@idEntity@@IAEXXZ 20043a40 f   Entity.obj
 0001:00042a90       ?Event_GetMins@idEntity@@IAEXXZ 20043a90 f   Entity.obj
 0001:00042ab0       ?Event_GetMaxs@idEntity@@IAEXXZ 20043ab0 f   Entity.obj
 0001:00042ad0       ?Event_Touches@idEntity@@IAEXPAV1@@Z 20043ad0 f   Entity.obj
 0001:00042b70       ?Event_SetGuiParm@idEntity@@IAEXPBD0@Z 20043b70 f   Entity.obj
 0001:00042ce0       ?Event_SetGuiFloat@idEntity@@IAEXPBDM@Z 20043ce0 f   Entity.obj
 0001:00042d40       ?Event_GetNextKey@idEntity@@IAEXPBD0@Z 20043d40 f   Entity.obj
 0001:00042d90       ?Event_SetKey@idEntity@@IAEXPBD0@Z 20043d90 f   Entity.obj
 0001:00042da0       ?Event_GetKey@idEntity@@IAEXPBD@Z 20043da0 f   Entity.obj
 0001:00042de0       ?Event_GetIntKey@idEntity@@IAEXPBD@Z 20043de0 f   Entity.obj
 0001:00042e20       ?Event_GetFloatKey@idEntity@@IAEXPBD@Z 20043e20 f   Entity.obj
 0001:00042e60       ?Event_GetVectorKey@idEntity@@IAEXPBD@Z 20043e60 f   Entity.obj
 0001:00042e90       ?Event_GetEntityKey@idEntity@@IAEXPBD@Z 20043e90 f   Entity.obj
 0001:00042f00       ?Event_RestorePosition@idEntity@@IAEXXZ 20043f00 f   Entity.obj
 0001:000430a0       ?Event_UpdateCameraTarget@idEntity@@IAEXXZ 200440a0 f   Entity.obj
 0001:00043260       ?Event_DistanceTo@idEntity@@IAEXPAV1@@Z 20044260 f   Entity.obj
 0001:00043330       ?Event_DistanceToPoint@idEntity@@IAEXABVidVec3@@@Z 20044330 f   Entity.obj
 0001:000433d0       ?Event_StartFx@idEntity@@IAEXPBD@Z 200443d0 f   Entity.obj
 0001:000433e0       ?Event_WaitFrame@idEntity@@IAEXXZ 200443e0 f   Entity.obj
 0001:00043400       ?Event_Wait@idEntity@@IAEXM@Z 20044400 f   Entity.obj
 0001:00043440       ?Event_HasFunction@idEntity@@IAEXPBD@Z 20044440 f   Entity.obj
 0001:00043480       ?Event_CallFunction@idEntity@@IAEXPBD@Z 20044480 f   Entity.obj
 0001:000434c0       ?Event_SetNeverDormant@idEntity@@IAEXH@Z 200444c0 f   Entity.obj
 0001:000434f0       ?Event_SetContents@idEntity@@IAEXH@Z 200444f0 f   Entity.obj
 0001:00043510       ?Event_GetLastBlocker@idEntity@@IAEXPAVidThread@@@Z 20044510 f   Entity.obj
 0001:00043550       ?Event_ClearSkin@idEntity@@IAEXXZ 20044550 f   Entity.obj
 0001:00043560       ?Event_PlayEffect@idEntity@@IAEXPBD0_N@Z 20044560 f   Entity.obj
 0001:00043600       ?Event_StopEffect@idEntity@@IAEXPBD@Z 20044600 f   Entity.obj
 0001:00043620       ?Event_StopAllEffects@idEntity@@IAEXXZ 20044620 f   Entity.obj
 0001:00043630       ?Event_GetHealth@idEntity@@IAEXXZ 20044630 f   Entity.obj
 0001:00043650       ?Event_ShowSurface@idEntity@@IAEXPBD@Z 20044650 f   Entity.obj
 0001:00043660       ?Event_HideSurface@idEntity@@IAEXPBD@Z 20044660 f   Entity.obj
 0001:00043670       ?Event_GuiEvent@idEntity@@IAEXPBD@Z 20044670 f   Entity.obj
 0001:00043690       ?Event_PlaybackCallback@idEntity@@IAEXHHH@Z 20044690 f   Entity.obj
 0001:000436c0       ?Event_GetBindMaster@idEntity@@IAEXXZ 200446c0 f   Entity.obj
 0001:000436d0       ?Event_ApplyImpulse@idEntity@@IAEXPAV1@ABVidVec3@@1@Z 200446d0 f   Entity.obj
 0001:000436f0       ?Event_UnbindTargets@idEntity@@IAEXPAV1@@Z 200446f0 f   Entity.obj
 0001:00043700       ?Event_RemoveNullTargets@idEntity@@IAEXXZ 20044700 f   Entity.obj
 0001:00043710       ?Event_IsA@idEntity@@IAEXPBD@Z 20044710 f   Entity.obj
 0001:000437c0       ?Event_IsSameTypeAs@idEntity@@IAEXPBV1@@Z 200447c0 f   Entity.obj
 0001:00043800       ?Event_MatchPrefix@idEntity@@IAEXPBD0@Z 20044800 f   Entity.obj
 0001:00043860       ?Event_ClearTargetList@idEntity@@IAEXM@Z 20044860 f   Entity.obj
 0001:00043890       ?Event_AppendTarget@idEntity@@IAEXPAV1@@Z 20044890 f   Entity.obj
 0001:000438c0       ?Event_RemoveTarget@idEntity@@IAEXPAV1@@Z 200448c0 f   Entity.obj
 0001:000438d0       ?Event_SetHealth@idEntity@@IAEXM@Z 200448d0 f   Entity.obj
 0001:000438f0       ?RegisterClassA@idAnimatedEntity@@SAXXZ 200448f0 f   Entity.obj
 0001:00043980       ?CreateInstance@idAnimatedEntity@@SAPAVidClass@@XZ 20044980 f   Entity.obj
 0001:00043a20       ?GetClassType@idAnimatedEntity@@SAAAVidTypeInfo@@XZ 20044a20 f   Entity.obj
 0001:00043a30       ?GetType@idAnimatedEntity@@UBEPAVidTypeInfo@@XZ 20044a30 f   Entity.obj
 0001:00043a40       ??0idAnimatedEntity@@QAE@XZ 20044a40 f   Entity.obj
 0001:00043ab0       ??1idAnimatedEntity@@UAE@XZ 20044ab0 f   Entity.obj
 0001:00043b50       ?Save@idAnimatedEntity@@QBEXPAVidSaveGame@@@Z 20044b50 f   Entity.obj
 0001:00043b60       ?Restore@idAnimatedEntity@@QAEXPAVidRestoreGame@@@Z 20044b60 f   Entity.obj
 0001:00043bf0       ?ClientPredictionThink@idAnimatedEntity@@UAEXXZ 20044bf0 f   Entity.obj
 0001:00043c10       ?Think@idAnimatedEntity@@UAEXXZ 20044c10 f   Entity.obj
 0001:00043c30       ?UpdateAnimation@idAnimatedEntity@@QAEXXZ 20044c30 f   Entity.obj
 0001:00043d00       ?GetAnimator@idAnimatedEntity@@UAEPAVidAnimator@@XZ 20044d00 f   Entity.obj
 0001:00043d10       ?SetModel@idAnimatedEntity@@UAEXPBD@Z 20044d10 f   Entity.obj
 0001:00043db0       ?GetJointWorldTransform@idAnimatedEntity@@QAE_NW4jointHandle_t@@HAAVidVec3@@AAVidMat3@@@Z 20044db0 f   Entity.obj
 0001:00043e90       ?GetJointTransformForAnim@idAnimatedEntity@@QBE_NW4jointHandle_t@@HHAAVidVec3@@AAVidMat3@@@Z 20044e90 f   Entity.obj
 0001:000440b0       ?GetDefaultSurfaceType@idAnimatedEntity@@UBEHXZ 200450b0 f   Entity.obj
 0001:000440c0       ?AddDamageEffect@idAnimatedEntity@@UAEXABUtrace_t@@ABVidVec3@@PBDPAVidEntity@@@Z 200450c0 f   Entity.obj
 0001:00044570       ?ClientReceiveEvent@idAnimatedEntity@@UAE_NHHABVidBitMsg@@@Z 20045570 f   Entity.obj
 0001:00044760       ?UpdateRenderEntityCallback@idAnimatedEntity@@UAEXXZ 20045760 f   Entity.obj
 0001:00044790       ?Event_ClearAnims@idAnimatedEntity@@IAEXXZ 20045790 f   Entity.obj
 0001:000447b0       ?Event_GetJointHandle@idAnimatedEntity@@AAEXPBD@Z 200457b0 f   Entity.obj
 0001:000447d0       ?Event_ClearAllJoints@idAnimatedEntity@@AAEXXZ 200457d0 f   Entity.obj
 0001:000447e0       ?Event_ClearJoint@idAnimatedEntity@@AAEXW4jointHandle_t@@@Z 200457e0 f   Entity.obj
 0001:000447f0       ?Event_SetJointPos@idAnimatedEntity@@AAEXW4jointHandle_t@@W4jointModTransform_t@@ABVidVec3@@@Z 200457f0 f   Entity.obj
 0001:00044800       ?Event_SetJointAngle@idAnimatedEntity@@AAEXW4jointHandle_t@@W4jointModTransform_t@@ABVidAngles@@@Z 20045800 f   Entity.obj
 0001:00044890       ?Event_GetJointPos@idAnimatedEntity@@AAEXW4jointHandle_t@@@Z 20045890 f   Entity.obj
 0001:000448e0       ?Event_GetJointAngle@idAnimatedEntity@@AAEXW4jointHandle_t@@@Z 200458e0 f   Entity.obj
 0001:00044960       ?Event_SetJointAngularVelocity@idAnimatedEntity@@AAEXPBDMMMH@Z 20045960 f   Entity.obj
 0001:000449c0       ?Event_CollapseJoints@idAnimatedEntity@@AAEXPBD0@Z 200459c0 f   Entity.obj
 0001:000449f0       ?UpdateGuiParms@@YAXPAVidUserInterface@@PBVidDict@@@Z 200459f0 f   Entity.obj
 0001:00044ab0       ?Register_idEntity@@YAXXZ  20045ab0 f   Entity.obj
 0001:00044ac0       ?AddRenderGui@@YAXPBDPAPAVidUserInterface@@PBVidDict@@@Z 20045ac0 f   Entity.obj
 0001:00044b40       ?Register_idAnimatedEntity@@YAXXZ 20045b40 f   Entity.obj
 0001:00044b50       ??1?$idCurve_NURBS@VidVec3@@@@UAE@XZ 20045b50 f i Entity.obj
 0001:00044be0       ??1?$idCurve_NonUniformBSpline@VidVec3@@@@UAE@XZ 20045be0 f i Entity.obj
 0001:00044bf0       ??1?$idCurve_Spline@VidVec3@@@@UAE@XZ 20045bf0 f i Entity.obj
 0001:00044cc0       ??1?$idLinkList@VrvClientEntity@@@@QAE@XZ 20045cc0 f i Entity.obj
 0001:00044cc0       ??1?$idLinkList@VrvAIHelper@@@@QAE@XZ 20045cc0 f i AI_Manager.obj
 0001:00044cc0       ??1?$idLinkList@UstateCall_t@@@@QAE@XZ 20045cc0 f i State.obj
 0001:00044cc0       ??1?$idLinkList@VrvSplineMover@@@@QAE@XZ 20045cc0 f i SplineMover.obj
 0001:00044cc0       ??1?$idLinkList@VidEvent@@@@QAE@XZ 20045cc0 f i Event.obj
 0001:00044cc0       ??1?$idLinkList@VidAI@@@@QAE@XZ 20045cc0 f i AI.obj
 0001:00044cc0       ??1?$idLinkList@UannouncerSoundNode_s@idMultiplayerGame@@@@QAE@XZ 20045cc0 f i Game_local.obj
 0001:00044cc0       ??1?$idLinkList@VidEntity@@@@QAE@XZ 20045cc0 f i Entity.obj
 0001:00044cc0       ??1?$idLinkList@VidActor@@@@QAE@XZ 20045cc0 f i Actor.obj
 0001:00044cd0       ??_E?$idCurve@VidVec3@@@@UAEPAXI@Z 20045cd0 f i Entity.obj
 0001:00044cd0       ??_G?$idCurve@VidVec3@@@@UAEPAXI@Z 20045cd0 f i Entity.obj
 0001:00044de0       ??_E?$idCurve_NURBS@VidVec3@@@@UAEPAXI@Z 20045de0 f i Entity.obj
 0001:00044de0       ??_G?$idCurve_NURBS@VidVec3@@@@UAEPAXI@Z 20045de0 f i Entity.obj
 0001:00044e30       ??_G?$idCurve_CatmullRomSpline@VidVec3@@@@UAEPAXI@Z 20045e30 f i Entity.obj
 0001:00044e30       ??_E?$idCurve_BSpline@VidVec3@@@@UAEPAXI@Z 20045e30 f i Entity.obj
 0001:00044e30       ??_G?$idCurve_NonUniformBSpline@VidVec3@@@@UAEPAXI@Z 20045e30 f i Entity.obj
 0001:00044e30       ??_G?$idCurve_BSpline@VidVec3@@@@UAEPAXI@Z 20045e30 f i Entity.obj
 0001:00044e30       ??_E?$idCurve_CatmullRomSpline@VidVec3@@@@UAEPAXI@Z 20045e30 f i Entity.obj
 0001:00044e30       ??_E?$idCurve_NonUniformBSpline@VidVec3@@@@UAEPAXI@Z 20045e30 f i Entity.obj
 0001:00044e80       ??_EidAnimatedEntity@@UAEPAXI@Z 20045e80 f i Entity.obj
 0001:00044e80       ??_GidAnimatedEntity@@UAEPAXI@Z 20045e80 f i Entity.obj
 0001:00044eb0       ??_GidClass@@UAEPAXI@Z     20045eb0 f i Entity.obj
 0001:00044eb0       ??_EidClass@@UAEPAXI@Z     20045eb0 f i Entity.obj
 0001:00044ee0       ?AddValue@?$idCurve@VidVec3@@@@UAEHMABVidVec3@@@Z 20045ee0 f i Entity.obj
 0001:00045420       ?AddValue@?$idCurve_NURBS@VidVec3@@@@UAEHMABVidVec3@@@Z 20046420 f i Entity.obj
 0001:00045ba0       ?AddValue@?$idCurve_NURBS@VidVec3@@@@UAEHMABVidVec3@@M@Z 20046ba0 f i Entity.obj
 0001:00046320       ?Basis@?$idCurve_BSpline@VidVec3@@@@IBEMHHM@Z 20047320 f i Entity.obj
 0001:00046a20       ?Clear@?$idCurve@VidVec3@@@@UAEXXZ 20047a20 f i Entity.obj
 0001:00046ac0       ?Clear@?$idCurve_NURBS@VidVec3@@@@UAEXXZ 20047ac0 f i Entity.obj
 0001:00046b90       ?GetBoundaryType@?$idCurve_Spline@VidVec3@@@@UBE?AW4boundary_t@1@XZ 20047b90 f i Entity.obj
 0001:00046ba0       ?GetCloseTime@?$idCurve_Spline@VidVec3@@@@UBEMXZ 20047ba0 f i Entity.obj
 0001:00046bd0       ?GetCurrentFirstDerivative@?$idCurve_BSpline@VidVec3@@@@UBE?AVidVec3@@M@Z 20047bd0 f i Entity.obj
 0001:00047d30       ?GetCurrentFirstDerivative@?$idCurve_CatmullRomSpline@VidVec3@@@@UBE?AVidVec3@@M@Z 20048d30 f i Entity.obj
 0001:00048410       ?GetCurrentFirstDerivative@?$idCurve_NURBS@VidVec3@@@@UBE?AVidVec3@@M@Z 20049410 f i Entity.obj
 0001:00049180       ?GetCurrentFirstDerivative@?$idCurve_NonUniformBSpline@VidVec3@@@@UBE?AVidVec3@@M@Z 2004a180 f i Entity.obj
 0001:00049ad0       ?GetCurrentSecondDerivative@?$idCurve@VidVec3@@@@UBE?AVidVec3@@M@Z 2004aad0 f i Entity.obj
 0001:00049ad0       ?GetCurrentFirstDerivative@?$idCurve@VidVec3@@@@UBE?AVidVec3@@M@Z 2004aad0 f i Entity.obj
 0001:00049b10       ?GetCurrentSecondDerivative@?$idCurve_BSpline@VidVec3@@@@UBE?AVidVec3@@M@Z 2004ab10 f i Entity.obj
 0001:0004bb90       ?GetCurrentSecondDerivative@?$idCurve_CatmullRomSpline@VidVec3@@@@UBE?AVidVec3@@M@Z 2004cb90 f i Entity.obj
 0001:0004c250       ?GetCurrentSecondDerivative@?$idCurve_NURBS@VidVec3@@@@UBE?AVidVec3@@M@Z 2004d250 f i Entity.obj
 0001:0004dac0       ?GetCurrentSecondDerivative@?$idCurve_NonUniformBSpline@VidVec3@@@@UBE?AVidVec3@@M@Z 2004eac0 f i Entity.obj
 0001:0004e760       ?GetCurrentValue@?$idCurve@VidVec3@@@@UBE?AVidVec3@@M@Z 2004f760 f i Entity.obj
 0001:0004e850       ?GetCurrentValue@?$idCurve_BSpline@VidVec3@@@@UBE?AVidVec3@@M@Z 2004f850 f i Entity.obj
 0001:0004f230       ?GetCurrentValue@?$idCurve_CatmullRomSpline@VidVec3@@@@UBE?AVidVec3@@M@Z 20050230 f i Entity.obj
 0001:0004f7b0       ?GetCurrentValue@?$idCurve_NURBS@VidVec3@@@@UBE?AVidVec3@@M@Z 200507b0 f i Entity.obj
 0001:0004fe20       ?GetCurrentValue@?$idCurve_NonUniformBSpline@VidVec3@@@@UBE?AVidVec3@@M@Z 20050e20 f i Entity.obj
 0001:000503b0       ?GetOrder@?$idCurve_BSpline@VidVec3@@@@UBEHXZ 200513b0 f i Entity.obj
 0001:000503c0       ?IsDone@?$idCurve@VidVec3@@@@UBE_NM@Z 200513c0 f i Entity.obj
 0001:000503e0       ?IsDone@?$idCurve_Spline@VidVec3@@@@UBE_NM@Z 200513e0 f i Entity.obj
 0001:00050410       ?RemoveIndex@?$idCurve@VidVec3@@@@UAEXH@Z 20051410 f i Entity.obj
 0001:00050490       ?RemoveIndex@?$idCurve_NURBS@VidVec3@@@@UAEXH@Z 20051490 f i Entity.obj
 0001:00050540       ?Right@idStr@@QBE?AV1@H@Z  20051540 f i Entity.obj
 0001:000505d0       ?SetBoundaryType@?$idCurve_Spline@VidVec3@@@@UAEXW4boundary_t@1@@Z 200515d0 f i Entity.obj
 0001:000505f0       ?SetCloseTime@?$idCurve_Spline@VidVec3@@@@UAEXM@Z 200515f0 f i Entity.obj
 0001:00050610       ?SetGravity@rvClientEffect@@QAEXABVidVec3@@@Z 20051610 f i Entity.obj
 0001:00050640       ?SetOrder@?$idCurve_BSpline@VidVec3@@@@UAEXH@Z 20051640 f i Entity.obj
 0001:00050650       ?Weld@?$idCurve@VidVec3@@@@UBE_NPAV1@@Z 20051650 f i Entity.obj
 0001:00050660       ?Weld@?$idCurve_NonUniformBSpline@VidVec3@@@@UBE_NPAV?$idCurve@VidVec3@@@@@Z 20051660 f i Entity.obj
 0001:00050870       ??1idFreeView@@QAE@XZ      20051870 f   FreeView.obj
 0001:00050890       ?SetFreeView@idFreeView@@QAEXH@Z 20051890 f   FreeView.obj
 0001:000509a0       ?PickRandomSpawn@idFreeView@@QAEXXZ 200519a0 f   FreeView.obj
 0001:00050a70       ?Fly@idFreeView@@QAEXABVusercmd_t@@@Z 20051a70 f   FreeView.obj
 0001:00050b50       ?Draw@idFreeView@@QAEXXZ   20051b50 f   FreeView.obj
 0001:00050cd0       ?Shutdown@idFreeView@@QAEXXZ 20051cd0 f   FreeView.obj
 0001:00050cf0       ?GetOrigin@idFreeView@@QAEABVidVec3@@XZ 20051cf0 f   FreeView.obj
 0001:00050d00       ?Setup@idFreeView@@AAEXXZ  20051d00 f   FreeView.obj
 0001:00050f10       ??0rvGameDebug@@QAE@XZ     20051f10 f   Game_Debug.obj
 0001:00051230       ?Init@rvGameDebug@@QAEXXZ  20052230 f   Game_Debug.obj
 0001:000512c0       ?Shutdown@rvGameDebug@@QAEXXZ 200522c0 f   Game_Debug.obj
 0001:00051310       ?BeginFrame@rvGameDebug@@QAEXXZ 20052310 f   Game_Debug.obj
 0001:00051670       ?EndFrame@rvGameDebug@@QAEXXZ 20052670 f   Game_Debug.obj
 0001:00051680       ?DrawHud@rvGameDebug@@QAEXXZ 20052680 f   Game_Debug.obj
 0001:00051990       ?AppendList@rvGameDebug@@QAEXPBD0@Z 20052990 f   Game_Debug.obj
 0001:00051a30       ?SetInt@rvGameDebug@@QAEXPBDH@Z 20052a30 f   Game_Debug.obj
 0001:00051a80       ?SetFloat@rvGameDebug@@QAEXPBDM@Z 20052a80 f   Game_Debug.obj
 0001:00051af0       ?SetString@rvGameDebug@@QAEXPBD0@Z 20052af0 f   Game_Debug.obj
 0001:00051b20       ?GetInt@rvGameDebug@@QAEHPBD@Z 20052b20 f   Game_Debug.obj
 0001:00051b70       ?GetFloat@rvGameDebug@@QAEMPBD@Z 20052b70 f   Game_Debug.obj
 0001:00051bd0       ?GetString@rvGameDebug@@QAEPBDPBD@Z 20052bd0 f   Game_Debug.obj
 0001:00051c10       ?SetStatInt@rvGameDebug@@QAEXPBDH@Z 20052c10 f   Game_Debug.obj
 0001:00051c40       ?SetStatFloat@rvGameDebug@@QAEXPBDM@Z 20052c40 f   Game_Debug.obj
 0001:00051c80       ?SetStatString@rvGameDebug@@QAEXPBD0@Z 20052c80 f   Game_Debug.obj
 0001:00051c90       ?GetStatInt@rvGameDebug@@QAEHPBD@Z 20052c90 f   Game_Debug.obj
 0001:00051cd0       ?GetStatFloat@rvGameDebug@@QAEMPBD@Z 20052cd0 f   Game_Debug.obj
 0001:00051d20       ?GetStatString@rvGameDebug@@QAEPBDPBD@Z 20052d20 f   Game_Debug.obj
 0001:00051d50       ?JumpAdd@rvGameDebug@@QAEXPBDABVidVec3@@ABVidAngles@@@Z 20052d50 f   Game_Debug.obj
 0001:00052180       ?JumpTo@rvGameDebug@@QAEXPBD@Z 20053180 f   Game_Debug.obj
 0001:000521d0       ?JumpTo@rvGameDebug@@QAEXH@Z 200531d0 f   Game_Debug.obj
 0001:00052220       ?JumpNext@rvGameDebug@@QAEXXZ 20053220 f   Game_Debug.obj
 0001:00052240       ?JumpPrev@rvGameDebug@@QAEXXZ 20053240 f   Game_Debug.obj
 0001:00052260       ??1?$idList@UdebugJumpPoint_s@@@@QAE@XZ 20053260 f i Game_Debug.obj
 0001:000522c0       ??1rvGameDebug@@QAE@XZ     200532c0 f i Game_Debug.obj
 0001:00052460       ?gameError@@YAXPBDZZ       20053460 f   Game_local.obj
 0001:000524a0       ??0idGameLocal@@QAE@XZ     200534a0 f   Game_local.obj
 0001:00052e70       ?Init@idGameLocal@@UAEXP6APAXI@ZP6AXPAX@ZP6AI1@Z@Z 20053e70 f   Game_local.obj
 0001:00053980       ?Shutdown@idGameLocal@@UAEXXZ 20054980 f   Game_local.obj
 0001:00053e70       ?SetLocalClient@idGameLocal@@UAEXH@Z 20054e70 f   Game_local.obj
 0001:00053e80       ?ThrottleUserInfo@idGameLocal@@UAEXXZ 20054e80 f   Game_local.obj
 0001:00053e90       ?SetUserInfo@idGameLocal@@UAEPBVidDict@@HABV2@_N@Z 20054e90 f   Game_local.obj
 0001:000540b0       ?GetUserInfo@idGameLocal@@UAEPBVidDict@@H@Z 200550b0 f   Game_local.obj
 0001:00054100       ?IsClientActive@idGameLocal@@UAE_NH@Z 20055100 f   Game_local.obj
 0001:00054150       ?SetServerInfo@idGameLocal@@UAEXABVidDict@@@Z 20055150 f   Game_local.obj
 0001:00054280       ?GetPersistentPlayerInfo@idGameLocal@@UAEABVidDict@@H@Z 20055280 f   Game_local.obj
 0001:000542e0       ?SetPersistentPlayerInfo@idGameLocal@@UAEXHABVidDict@@@Z 200552e0 f   Game_local.obj
 0001:00054300       ?InitFromNewMap@idGameLocal@@UAEXPBDPAVidRenderWorld@@_N2H@Z 20055300 f   Game_local.obj
 0001:00054450       ?InitFromSaveGame@idGameLocal@@UAE_NPBDPAVidRenderWorld@@PAVidFile@@@Z 20055450 f   Game_local.obj
 0001:00054ea0       ?SaveGame@idGameLocal@@UAEXPAVidFile@@W4saveType_t@@@Z 20055ea0 f   Game_local.obj
 0001:00055720       ?MapShutdown@idGameLocal@@UAEXXZ 20056720 f   Game_local.obj
 0001:000558e0       ?CacheDictionaryMedia@idGameLocal@@UAEXPBVidDict@@@Z 200568e0 f   Game_local.obj
 0001:00056220       ?SpawnPlayer@idGameLocal@@UAEXH@Z 20057220 f   Game_local.obj
 0001:00056540       ?RunFrame@idGameLocal@@UAE?AUgameReturn_t@@PBVusercmd_t@@H_NH@Z 20057540 f   Game_local.obj
 0001:00057150       ?MenuFrame@idGameLocal@@UAEXXZ 20058150 f   Game_local.obj
 0001:00057160       ?Draw@idGameLocal@@UAE_NH@Z 20058160 f   Game_local.obj
 0001:000571b0       ?HandleESC@idGameLocal@@UAE?AW4escReply_t@@PAPAVidUserInterface@@@Z 200581b0 f   Game_local.obj
 0001:00057200       ?StartMenu@idGameLocal@@UAEPAVidUserInterface@@XZ 20058200 f   Game_local.obj
 0001:00057220       ?HandleGuiCommands@idGameLocal@@UAEPBDPBD@Z 20058220 f   Game_local.obj
 0001:00057240       ?HandleMainMenuCommands@idGameLocal@@UAEXPBDPAVidUserInterface@@@Z 20058240 f   Game_local.obj
 0001:000574c0       ?GetClientStats@idGameLocal@@UAEXHPADH@Z 200584c0 f   Game_local.obj
 0001:000574d0       ?SwitchTeam@idGameLocal@@UAEXHH@Z 200584d0 f   Game_local.obj
 0001:00057530       ?StartViewEffect@idGameLocal@@UAEXHMM@Z 20058530 f   Game_local.obj
 0001:00057620       ?GetPlayerView@idGameLocal@@UAEXAAVidVec3@@AAVidMat3@@@Z 20058620 f   Game_local.obj
 0001:00057730       ?Translation@idGameLocal@@UAEXAAUtrace_t@@AAVidVec3@@1PAVidTraceModel@@H@Z 20058730 f   Game_local.obj
 0001:00057800       ?SpawnClientMoveable@idGameLocal@@UAEXPBDHABVidVec3@@ABVidMat3@@11@Z 20058800 f   Game_local.obj
 0001:00057960       ?DebugSetString@idGameLocal@@UAEXPBD0@Z 20058960 f   Game_local.obj
 0001:00057970       ?DebugSetFloat@idGameLocal@@UAEXPBDM@Z 20058970 f   Game_local.obj
 0001:00057990       ?DebugSetInt@idGameLocal@@UAEXPBDH@Z 20058990 f   Game_local.obj
 0001:000579a0       ?DebugGetStatString@idGameLocal@@UAEPBDPBD@Z 200589a0 f   Game_local.obj
 0001:000579b0       ?DebugGetStatInt@idGameLocal@@UAEHPBD@Z 200589b0 f   Game_local.obj
 0001:000579c0       ?DebugGetStatFloat@idGameLocal@@UAEMPBD@Z 200589c0 f   Game_local.obj
 0001:000579d0       ?IsDebugHudActive@idGameLocal@@UBE_NXZ 200589d0 f   Game_local.obj
 0001:000579f0       ?GetPlayerInfo@idGameLocal@@UAE_NAAVidVec3@@AAVidMat3@@HPAVidAngles@@H@Z 200589f0 f   Game_local.obj
 0001:00057ab0       ?SetPlayerInfo@idGameLocal@@UAEXAAVidVec3@@AAVidMat3@@H@Z 20058ab0 f   Game_local.obj
 0001:00057b20       ?PlayerChatDisabled@idGameLocal@@UAE_NH@Z 20058b20 f   Game_local.obj
 0001:00057b60       ?SetViewComments@idGameLocal@@UAEXPBD@Z 20058b60 f   Game_local.obj
 0001:00057bd0       ?GetPlayerName@idGameLocal@@UAEXHPAD@Z 20058bd0 f   Game_local.obj
 0001:00057c30       ?GetPlayerClan@idGameLocal@@UAEXHPAD@Z 20058c30 f   Game_local.obj
 0001:00057c90       ?SetFriend@idGameLocal@@UAEXH_N@Z 20058c90 f   Game_local.obj
 0001:00057d00       ?Cmd_PrintMapEntityNumbers_f@idGameLocal@@SAXABVidCmdArgs@@@Z 20058d00 f   Game_local.obj
 0001:00057d40       ?Cmd_PrintSpawnIds_f@idGameLocal@@SAXABVidCmdArgs@@@Z 20058d40 f   Game_local.obj
 0001:00057d80       ?GetNumGravityAreas@idGameLocal@@UBEHXZ 20058d80 f   Game_local.obj
 0001:00057d90       ?GetGravityInfo@idGameLocal@@UBEPBVrvGravityArea@@H@Z 20058d90 f   Game_local.obj
 0001:00057db0       ?SetGravityInfo@idGameLocal@@UAEXHPAVrvGravityArea@@@Z 20058db0 f   Game_local.obj
 0001:00057dd0       ?AddUniqueGravityInfo@idGameLocal@@UAEXPAVrvGravityArea@@@Z 20058dd0 f   Game_local.obj
 0001:00058020       ?GetCurrentGravityInfoIndex@idGameLocal@@UBEHABVidVec3@@@Z 20059020 f   Game_local.obj
 0001:000580c0       ?InGravityArea@idGameLocal@@UBE_NPAVidEntity@@@Z 200590c0 f   Game_local.obj
 0001:000580e0       ?GetCurrentGravityInfoIndex@idGameLocal@@UBEHPAVidEntity@@@Z 200590e0 f   Game_local.obj
 0001:00058110       ?GetCurrentGravity@idGameLocal@@UBE?BVidVec3@@PAVidEntity@@@Z 20059110 f   Game_local.obj
 0001:00058180       ?GetCurrentGravity@idGameLocal@@UBE?BVidVec3@@ABV2@ABVidMat3@@@Z 20059180 f   Game_local.obj
 0001:000581f0       ?InGravityArea@idGameLocal@@UBE_NPAVrvClientEntity@@@Z 200591f0 f   Game_local.obj
 0001:00058210       ?GetCurrentGravityInfoIndex@idGameLocal@@UBEHPAVrvClientEntity@@@Z 20059210 f   Game_local.obj
 0001:00058240       ?GetCurrentGravity@idGameLocal@@UBE?BVidVec3@@PAVrvClientEntity@@@Z 20059240 f   Game_local.obj
 0001:000582b0       ?ReferenceScriptObjectProxy@idGameLocal@@UAEPAVidEntity@@PBD@Z 200592b0 f   Game_local.obj
 0001:00058930       ?ReleaseScriptObjectProxy@idGameLocal@@UAEXPBD@Z 20059930 f   Game_local.obj
 0001:000589c0       ?ListEntityStats@idGameLocal@@UAEXABVidCmdArgs@@@Z 200599c0 f   Game_local.obj
 0001:00059940       ?Printf@idGameLocal@@QBAXPBDZZ 2005a940 f   Game_local.obj
 0001:00059980       ?DPrintf@idGameLocal@@QBAXPBDZZ 2005a980 f   Game_local.obj
 0001:000599d0       ?PrintMessage@idGameLocal@@QAEXHPBD@Z 2005a9d0 f   Game_local.obj
 0001:00059a70       ?Warning@idGameLocal@@QBAXPBDZZ 2005aa70 f   Game_local.obj
 0001:00059ac0       ?DWarning@idGameLocal@@QBAXPBDZZ 2005aac0 f   Game_local.obj
 0001:00059b40       ?Error@idGameLocal@@QBAXPBDZZ 2005ab40 f   Game_local.obj
 0001:00059be0       ?LoadMap@idGameLocal@@QAEXPBDH@Z 2005abe0 f   Game_local.obj
 0001:0005a5d0       ?LocalMapRestart@idGameLocal@@QAEXH@Z 2005b5d0 f   Game_local.obj
 0001:0005a7e0       ?MapRestart@idGameLocal@@QAEXH@Z 2005b7e0 f   Game_local.obj
 0001:0005ac20       ?VerifyServerSettings_f@idGameLocal@@SAXABVidCmdArgs@@@Z 2005bc20 f   Game_local.obj
 0001:0005aca0       ?MapRestart_f@idGameLocal@@SAXABVidCmdArgs@@@Z 2005bca0 f   Game_local.obj
 0001:0005ad40       ?NextMap@idGameLocal@@QAE_NXZ 2005bd40 f   Game_local.obj
 0001:0005b2e0       ?NextMap_f@idGameLocal@@SAXABVidCmdArgs@@@Z 2005c2e0 f   Game_local.obj
 0001:0005b320       ?GetLevelMap@idGameLocal@@QAEPAVidMapFile@@XZ 2005c320 f   Game_local.obj
 0001:0005b590       ?GetMapName@idGameLocal@@QBEPBDXZ 2005c590 f   Game_local.obj
 0001:0005b5a0       ?NumAAS@idGameLocal@@QBEHXZ 2005c5a0 f   Game_local.obj
 0001:0005b5b0       ?GetAAS@idGameLocal@@QBEPAVidAAS@@H@Z 2005c5b0 f   Game_local.obj
 0001:0005b600       ?GetAAS@idGameLocal@@QBEPAVidAAS@@PBD@Z 2005c600 f   Game_local.obj
 0001:0005b670       ?SetAASAreaState@idGameLocal@@QAEXABVidBounds@@H_N@Z 2005c670 f   Game_local.obj
 0001:0005b6b0       ?AddAASObstacle@idGameLocal@@QAEHABVidBounds@@@Z 2005c6b0 f   Game_local.obj
 0001:0005b720       ?RemoveAASObstacle@idGameLocal@@QAEXH@Z 2005c720 f   Game_local.obj
 0001:0005b760       ?RemoveAllAASObstacles@idGameLocal@@QAEXXZ 2005c760 f   Game_local.obj
 0001:0005b790       ?GetEntityMemoryUsage@idGameLocal@@QBEIXZ 2005c790 f   Game_local.obj
 0001:0005b810       ?CheatsOk@idGameLocal@@QAE_N_N@Z 2005c810 f   Game_local.obj
 0001:0005b890       ?SetSkill@idGameLocal@@QAEXH@Z 2005c890 f   Game_local.obj
 0001:0005b8c0       ?GameState@idGameLocal@@QBE?AW4gameState_t@@XZ 2005c8c0 f   Game_local.obj
 0001:0005b8d0       ?SpawnEntityType@idGameLocal@@QAEPAVidEntity@@ABVidTypeInfo@@PBVidDict@@_N@Z 2005c8d0 f   Game_local.obj
 0001:0005b9a0       ?SpawnEntityDef@idGameLocal@@QAE_NABVidDict@@PAPAVidEntity@@_N@Z 2005c9a0 f   Game_local.obj
 0001:0005c360       ?SpawnClientEntityDef@idGameLocal@@QAE_NABVidDict@@PAPAVrvClientEntity@@_NPBD@Z 2005d360 f   Game_local.obj
 0001:0005c520       ?SpawnEntityDef@idGameLocal@@QAEPAVidEntity@@PBDPBVidDict@@@Z 2005d520 f   Game_local.obj
 0001:0005c790       ?GetSpawnId@idGameLocal@@QBEHPBVidEntity@@@Z 2005d790 f   Game_local.obj
 0001:0005c7b0       ?FindEntityDef@idGameLocal@@QBEPBVidDeclEntityDef@@PBD_N@Z 2005d7b0 f   Game_local.obj
 0001:0005c810       ?FindEntityDefDict@idGameLocal@@QBEPBVidDict@@PBD_N@Z 2005d810 f   Game_local.obj
 0001:0005c830       ?RegisterEntity@idGameLocal@@QAEXPAVidEntity@@@Z 2005d830 f   Game_local.obj
 0001:0005c960       ?UnregisterEntity@idGameLocal@@QAEXPAVidEntity@@@Z 2005d960 f   Game_local.obj
 0001:0005c9e0       ?SkipEntityIndex@idGameLocal@@QAEXXZ 2005d9e0 f   Game_local.obj
 0001:0005ca10       ?RequirementMet@idGameLocal@@QAE_NPAVidEntity@@ABVidStr@@H@Z 2005da10 f   Game_local.obj
 0001:0005ca70       ?IsWeaponsStayOn@idGameLocal@@QAE_NXZ 2005da70 f   Game_local.obj
 0001:0005cad0       ?RegisterClientEntity@idGameLocal@@QAEXPAVrvClientEntity@@@Z 2005dad0 f   Game_local.obj
 0001:0005cbb0       ?UnregisterClientEntity@idGameLocal@@QAEXPAVrvClientEntity@@@Z 2005dbb0 f   Game_local.obj
 0001:0005cc20       ?AlertAI@idGameLocal@@QAEXPAVidEntity@@@Z 2005dc20 f   Game_local.obj
 0001:0005cce0       ?GetAlertActor@idGameLocal@@QAEPAVidActor@@XZ 2005dce0 f   Game_local.obj
 0001:0005cd20       ?GetAlertEntity@idGameLocal@@QAEPAVidEntity@@XZ 2005dd20 f   Game_local.obj
 0001:0005cd60       ?InPlayerPVS@idGameLocal@@QBE_NPAVidEntity@@@Z 2005dd60 f   Game_local.obj
 0001:0005cdb0       ?InPlayerConnectedArea@idGameLocal@@QBE_NPAVidEntity@@@Z 2005ddb0 f   Game_local.obj
 0001:0005ce00       ?SetCamera@idGameLocal@@QAEXPAVidCamera@@@Z 2005de00 f   Game_local.obj
 0001:0005d0f0       ?GetCamera@idGameLocal@@QBEPAVidCamera@@XZ 2005e0f0 f   Game_local.obj
 0001:0005d100       ?SkipCinematic@idGameLocal@@QAE_NXZ 2005e100 f   Game_local.obj
 0001:0005d240       ?GetPortalSky@idGameLocal@@QBEPAVidCamera@@XZ 2005e240 f   Game_local.obj
 0001:0005d260       ?SetPortalSky@idGameLocal@@QAEXPAVidCamera@@@Z 2005e260 f   Game_local.obj
 0001:0005d270       ?CalcFov@idGameLocal@@QBEXMAAM0@Z 2005e270 f   Game_local.obj
 0001:0005d570       ?AddEntityToHash@idGameLocal@@QAEXPBDPAVidEntity@@@Z 2005e570 f   Game_local.obj
 0001:0005d630       ?RemoveEntityFromHash@idGameLocal@@QAE_NPBDPAVidEntity@@@Z 2005e630 f   Game_local.obj
 0001:0005d760       ?GetTargets@idGameLocal@@QBEHABVidDict@@AAV?$idList@V?$idEntityPtr@VidEntity@@@@@@PBD@Z 2005e760 f   Game_local.obj
 0001:0005da90       ?GetTraceEntity@idGameLocal@@QBEPAVidEntity@@ABUtrace_t@@@Z 2005ea90 f   Game_local.obj
 0001:0005dad0       ?ArgCompletion_EntityName@idGameLocal@@SAXABVidCmdArgs@@P6AXPBD@Z@Z 2005ead0 f   Game_local.obj
 0001:0005db30       ?FindTraceEntity@idGameLocal@@QBEPAVidEntity@@VidVec3@@0ABVidTypeInfo@@PBV2@@Z 2005eb30 f   Game_local.obj
 0001:0005dc90       ?ArgCompletion_AIName@idGameLocal@@SAXABVidCmdArgs@@P6AXPBD@Z@Z 2005ec90 f   Game_local.obj
 0001:0005dd00       ?FindEntity@idGameLocal@@QBEPAVidEntity@@PBD@Z 2005ed00 f   Game_local.obj
 0001:0005ddb0       ?FindEntityUsingDef@idGameLocal@@QBEPAVidEntity@@PAV2@PBD@Z 2005edb0 f   Game_local.obj
 0001:0005de20       ?EntitiesWithinRadius@idGameLocal@@QBEHVidVec3@@MPAPAVidEntity@@H@Z 2005ee20 f   Game_local.obj
 0001:0005df20       ?KillBox@idGameLocal@@QAEXPAVidEntity@@_N@Z 2005ef20 f   Game_local.obj
 0001:0005e080       ?RadiusPush@idGameLocal@@QAEXABVidVec3@@MMPBVidEntity@@1M_N@Z 2005f080 f   Game_local.obj
 0001:0005e370       ?RadiusDamage@idGameLocal@@QAEXABVidVec3@@PAVidEntity@@111PBDMPAH@Z 2005f370 f   Game_local.obj
 0001:0005e970       ?RadiusPushClipModel@idGameLocal@@QAEXPAVidEntity@@ABVidVec3@@MPBVidClipModel@@@Z 2005f970 f   Game_local.obj
 0001:0005eb60       ?ProjectDecal@idGameLocal@@QAEXABVidVec3@@0M_NMPBDM@Z 2005fb60 f   Game_local.obj
 0001:0005f550       ?BloodSplat@idGameLocal@@QAEXPBVidEntity@@ABVidVec3@@1MPBD@Z 20060550 f   Game_local.obj
 0001:0005f870       ?CallFrameCommand@idGameLocal@@QAEXPAVidEntity@@PBVfunction_t@@@Z 20060870 f   Game_local.obj
 0001:0005f8a0       ?CallFrameCommand@idGameLocal@@QAEXPAVidEntity@@PBD@Z 200608a0 f   Game_local.obj
 0001:0005f8e0       ?CallObjectFrameCommand@idGameLocal@@QAEXPAVidEntity@@PBD@Z 200608e0 f   Game_local.obj
 0001:0005f960       ?GetGravity@idGameLocal@@QBEABVidVec3@@XZ 20060960 f   Game_local.obj
 0001:0005f970       ?GetNextClientNum@idGameLocal@@QBEHH@Z 20060970 f   Game_local.obj
 0001:0005f9f0       ?GetClientByNum@idGameLocal@@QBEPAVidPlayer@@H@Z 200609f0 f   Game_local.obj
 0001:0005fa20       ?GetClientByName@idGameLocal@@QBEPAVidPlayer@@PBD@Z 20060a20 f   Game_local.obj
 0001:0005fac0       ?GetClientByCmdArgs@idGameLocal@@QBEPAVidPlayer@@ABVidCmdArgs@@@Z 20060ac0 f   Game_local.obj
 0001:0005fbc0       ?GetClientNumByName@idGameLocal@@QBEHPBD@Z 20060bc0 f   Game_local.obj
 0001:0005fc70       ?GetLocalPlayer@idGameLocal@@QBEPAVidPlayer@@XZ 20060c70 f   Game_local.obj
 0001:0005fcd0       ?UpdatePlayerPostMainMenu@idGameLocal@@UAEXXZ 20060cd0 f   Game_local.obj
 0001:0005fcf0       ?GetSpawnCount@idGameLocal@@QBEHXZ 20060cf0 f   Game_local.obj
 0001:0005fd00       ?SpreadLocations@idGameLocal@@QAEXXZ 20060d00 f   Game_local.obj
 0001:0005ff30       ?LocationForPoint@idGameLocal@@QAEPAVidLocationEntity@@ABVidVec3@@@Z 20060f30 f   Game_local.obj
 0001:0005ffa0       ?AddLocation@idGameLocal@@QAEPAVidLocationEntity@@ABVidVec3@@PBD@Z 20060fa0 f   Game_local.obj
 0001:000602f0       ?SpotWouldTelefrag@idGameLocal@@QAE_NPAVidPlayer@@PAVidPlayerStart@@@Z 200612f0 f   Game_local.obj
 0001:000603c0       ?SelectSpawnPoint@idGameLocal@@QAEPAVidEntity@@PAVidPlayer@@@Z 200613c0 f   Game_local.obj
 0001:00060990       ?UpdateForwardSpawns@idGameLocal@@QAEXPAVrvCTFAssaultPlayerStart@@H@Z 20061990 f   Game_local.obj
 0001:00060bd0       ?ClearForwardSpawns@idGameLocal@@QAEXXZ 20061bd0 f   Game_local.obj
 0001:00060c30       ?SetPortalState@idGameLocal@@QAEXHH@Z 20061c30 f   Game_local.obj
 0001:00060cc0       ?SetGlobalMaterial@idGameLocal@@QAEXPBVidMaterial@@@Z 20061cc0 f   Game_local.obj
 0001:00060cd0       ?GetGlobalMaterial@idGameLocal@@QAEPBVidMaterial@@XZ 20061cd0 f   Game_local.obj
 0001:00060ce0       ?NeedRestart@idGameLocal@@QAE_NXZ 20061ce0 f   Game_local.obj
 0001:00060f80       ?UpdateEndLevel@idGameLocal@@QAEXXZ 20061f80 f   Game_local.obj
 0001:00061010       ?CheckPlayerWhizzBy@idGameLocal@@QAEXVidVec3@@0PAVidEntity@@1@Z 20062010 f   Game_local.obj
 0001:000612a0       ?HitScan@idGameLocal@@QAEPAVidEntity@@ABVidDict@@ABVidVec3@@11PAV2@_NM2PAH@Z 200622a0 f   Game_local.obj
 0001:000627f0       ?PlayEffect@idGameLocal@@UAEPAVrvClientEffect@@PBVidDecl@@ABVidVec3@@ABVidMat3@@_N133W4effectCategory_t@@ABVidVec4@@@Z 200637f0 f   Game_local.obj
 0001:00062be0       ?GetEffect@idGameLocal@@QAEPBVidDecl@@ABVidDict@@PBDPBVrvDeclMatType@@@Z 20063be0 f   Game_local.obj
 0001:00063010       ?Translation@idGameLocal@@QAE_NPBVidEntity@@AAUtrace_t@@ABVidVec3@@2PBVidClipModel@@ABVidMat3@@H00@Z 20064010 f   Game_local.obj
 0001:00063050       ?Rotation@idGameLocal@@QAE_NPBVidEntity@@AAUtrace_t@@ABVidVec3@@ABVidRotation@@PBVidClipModel@@ABVidMat3@@H0@Z 20064050 f   Game_local.obj
 0001:00063090       ?Motion@idGameLocal@@QAE_NPBVidEntity@@AAUtrace_t@@ABVidVec3@@2ABVidRotation@@PBVidClipModel@@ABVidMat3@@H0@Z 20064090 f   Game_local.obj
 0001:000630d0       ?Contacts@idGameLocal@@QAEHPBVidEntity@@PAUcontactInfo_t@@HABVidVec3@@ABVidVec6@@MPBVidClipModel@@ABVidMat3@@H0@Z 200640d0 f   Game_local.obj
 0001:00063120       ?Contents@idGameLocal@@QAEHPBVidEntity@@ABVidVec3@@PBVidClipModel@@ABVidMat3@@H0PAPAV2@@Z 20064120 f   Game_local.obj
 0001:00063160       ?TracePoint@idGameLocal@@QAE_NPBVidEntity@@AAUtrace_t@@ABVidVec3@@2H0@Z 20064160 f   Game_local.obj
 0001:000631b0       ?TraceBounds@idGameLocal@@QAE_NPBVidEntity@@AAUtrace_t@@ABVidVec3@@2ABVidBounds@@H0@Z 200641b0 f   Game_local.obj
 0001:00063240       ?TranslationModel@idGameLocal@@QAEXPBVidEntity@@AAUtrace_t@@ABVidVec3@@2PBVidClipModel@@ABVidMat3@@HPAVidCollisionModel@@24@Z 20064240 f   Game_local.obj
 0001:00063280       ?RotationModel@idGameLocal@@QAEXPBVidEntity@@AAUtrace_t@@ABVidVec3@@ABVidRotation@@PBVidClipModel@@ABVidMat3@@HPAVidCollisionModel@@25@Z 20064280 f   Game_local.obj
 0001:000632c0       ?ContactsModel@idGameLocal@@QAEHPBVidEntity@@PAUcontactInfo_t@@HABVidVec3@@ABVidVec6@@MPBVidClipModel@@ABVidMat3@@HPAVidCollisionModel@@25@Z 200642c0 f   Game_local.obj
 0001:00063310       ?ContentsModel@idGameLocal@@QAEHPBVidEntity@@ABVidVec3@@PBVidClipModel@@ABVidMat3@@HPAVidCollisionModel@@13@Z 20064310 f   Game_local.obj
 0001:00063350       ?TranslationEntities@idGameLocal@@QAEXPBVidEntity@@AAUtrace_t@@ABVidVec3@@2PBVidClipModel@@ABVidMat3@@H00@Z 20064350 f   Game_local.obj
 0001:00063390       ?GetModelContactFeature@idGameLocal@@QBE_NPBVidEntity@@ABUcontactInfo_t@@PBVidClipModel@@AAVidFixedWinding@@@Z 20064390 f   Game_local.obj
 0001:000633c0       ?EntitiesTouchingBounds@idGameLocal@@QBEHPBVidEntity@@ABVidBounds@@HPAPAV2@H@Z 200643c0 f   Game_local.obj
 0001:000633f0       ?ClipModelsTouchingBounds@idGameLocal@@QBEHPBVidEntity@@ABVidBounds@@HPAPAVidClipModel@@H@Z 200643f0 f   Game_local.obj
 0001:00063420       ?PlayersTouchingBounds@idGameLocal@@QBEHPBVidEntity@@ABVidBounds@@HPAPAVidPlayer@@H@Z 20064420 f   Game_local.obj
 0001:00063450       ?GetWorldBounds@idGameLocal@@QBEABVidBounds@@PBVidEntity@@@Z 20064450 f   Game_local.obj
 0001:00063480       ?GetEntityClipWorld@idGameLocal@@QAEPAVidClip@@PBVidEntity@@@Z 20064480 f   Game_local.obj
 0001:00063510       ?GetEntityClipWorld@idGameLocal@@QBEPBVidClip@@PBVidEntity@@@Z 20064510 f   Game_local.obj
 0001:000635a0       ?AddClipWorld@idGameLocal@@QAEHH@Z 200645a0 f   Game_local.obj
 0001:00063890       ?RemoveClipWorld@idGameLocal@@QAEXH@Z 20064890 f   Game_local.obj
 0001:00063910       ?AddInstance@idGameLocal@@QAEHH_N@Z 20064910 f   Game_local.obj
 0001:00063c70       ?RemoveInstance@idGameLocal@@QAEXH@Z 20064c70 f   Game_local.obj
 0001:00063ce0       ?SpawnMapEntities@idGameLocal@@QAEXHPAG0PAH@Z 20064ce0 f   Game_local.obj
 0001:000648e0       ?InstanceClear@idGameLocal@@QAEXXZ 200658e0 f   Game_local.obj
 0001:00064c50       ?GetLongGametypeName@idGameLocal@@UAEPBDPBD@Z 20065c50 f   Game_local.obj
 0001:00064c60       ?IsTeamPowerups@idGameLocal@@QAE_NXZ 20065c60 f   Game_local.obj
 0001:00064cc0       ?GetDemoHud@idGameLocal@@QAEPAVidUserInterface@@XZ 20065cc0 f   Game_local.obj
 0001:00064cf0       ?GetDemoMphud@idGameLocal@@QAEPAVidUserInterface@@XZ 20065cf0 f   Game_local.obj
 0001:00064d20       ?GetDemoCursor@idGameLocal@@QAEPAVidUserInterface@@XZ 20065d20 f   Game_local.obj
 0001:00064d50       ?GetStartingIndexForInstance@idGameLocal@@QAEHH@Z 20065d50 f   Game_local.obj
 0001:00064d90       ?ServerSetMinSpawnIndex@idGameLocal@@QAEXXZ 20065d90 f   Game_local.obj
 0001:00064e00       ?ServerSetEntityIndexWatermark@idGameLocal@@QAEXH@Z 20065e00 f   Game_local.obj
 0001:00064fb0       ?Clear@idGameLocal@@AAEXXZ 20065fb0 f   Game_local.obj
 0001:000656c0       ?InhibitEntitySpawn@idGameLocal@@AAE_NAAVidDict@@@Z 200666c0 f   Game_local.obj
 0001:000659d0       ?MapPopulate@idGameLocal@@AAEXH@Z 200669d0 f   Game_local.obj
 0001:00065a90       ?MapClear@idGameLocal@@AAEX_NH@Z 20066a90 f   Game_local.obj
 0001:00065f20       ?SetupPortalSkyPVS@idGameLocal@@AAE_NPAVidPlayer@@@Z 20066f20 f   Game_local.obj
 0001:00066010       ?SetupPlayerPVS@idGameLocal@@AAEXXZ 20067010 f   Game_local.obj
 0001:00066270       ?FreePlayerPVS@idGameLocal@@AAEXXZ 20067270 f   Game_local.obj
 0001:00066310       ?UpdateGravity@idGameLocal@@AAEXXZ 20067310 f   Game_local.obj
 0001:00066430       ?SortActiveEntityList@idGameLocal@@AAEXXZ 20067430 f   Game_local.obj
 0001:00066700       ?ShowTargets@idGameLocal@@AAEXXZ 20067700 f   Game_local.obj
 0001:00066ec0       ?RunDebugInfo@idGameLocal@@AAEXXZ 20067ec0 f   Game_local.obj
 0001:00067640       ?InitScriptForMap@idGameLocal@@AAEXXZ 20068640 f   Game_local.obj
 0001:00067720       ?SetGameType@idGameLocal@@AAEXXZ 20068720 f   Game_local.obj
 0001:00067770       ?InitializeSpawns@idGameLocal@@AAEXXZ 20068770 f   Game_local.obj
 0001:00068240       ?sortSpawnPoints@idGameLocal@@CAHPBX0@Z 20069240 f   Game_local.obj
 0001:00068270       ?DumpOggSounds@idGameLocal@@AAEXXZ 20069270 f   Game_local.obj
 0001:00069300       ?GetShakeSounds@idGameLocal@@AAEXPBVidDict@@@Z 2006a300 f   Game_local.obj
 0001:000697e0       ?ValidateServerSettings@idGameLocal@@EAE_NPBD0@Z 2006a7e0 f   Game_local.obj
 0001:00069890       ?ShutdownInstances@idGameLocal@@AAEXXZ 2006a890 f   Game_local.obj
 0001:00069960       ?UpdateClientsPVS@idGameLocal@@AAEXXZ 2006a960 f   Game_local.obj
 0001:000699c0       ?BuildModList@idGameLocal@@AAEXXZ 2006a9c0 f   Game_local.obj
 0001:0006a470       ?GetClientPVS@idGameLocal@@QAE?AUpvsHandle_s@@PAVidPlayer@@W4pvsType_t@@@Z 2006b470 f   Game_local.obj
 0001:0006a500       _GetGameAPI                2006b500 f   Game_local.obj
 0001:0006a5f0       ?TestGameAPI@@YAXXZ        2006b5f0 f   Game_local.obj
 0001:0006a730       ??$ArgCompletion_Decl@$04@idCmdSystem@@SAXABVidCmdArgs@@P6AXPBD@Z@Z 2006b730 f i Game_local.obj
 0001:0006a750       ??$idDeclAllocator@VidDecl@@@@YAPAVidDecl@@XZ 2006b750 f i Game_local.obj
 0001:0006a790       ??$idDeclAllocator@VidDeclCameraDef@@@@YAPAVidDecl@@XZ 2006b790 f i Game_local.obj
 0001:0006a810       ??$idDeclAllocator@VidDeclModelDef@@@@YAPAVidDecl@@XZ 2006b810 f i Game_local.obj
 0001:0006a890       ??$idListDecls_f@$04@@YAXABVidCmdArgs@@@Z 2006b890 f i Game_local.obj
 0001:0006a8b0       ??$idPrintDecls_f@$04@@YAXABVidCmdArgs@@@Z 2006b8b0 f i Game_local.obj
 0001:0006a8d0       ??1?$idBlockAlloc@UentityNetEvent_s@@$0CA@$0BE@@@QAE@XZ 2006b8d0 f i Game_local.obj
 0001:0006a8e0       ??1?$idBlockAlloc@UentityState_s@@$0BAA@$0BL@@@QAE@XZ 2006b8e0 f i Game_local.obj
 0001:0006a8f0       ??1?$idBlockAlloc@Usnapshot_s@@$0EA@$0BL@@@QAE@XZ 2006b8f0 f i Game_local.obj
 0001:0006a900       ??1?$idList@UmpBanInfo_s@@@@QAE@XZ 2006b900 f i Game_local.obj
 0001:0006a960       ??1?$idList@UselectedTypeInfo_s@@@@QAE@XZ 2006b960 f i Game_local.obj
 0001:0006a9c0       ??1?$idList@VidDict@@@@QAE@XZ 2006b9c0 f i Game_local.obj
 0001:0006a9f0       ??1idEditEntities@@QAE@XZ  2006b9f0 f i Game_local.obj
 0001:0006aad0       ??1idEventQueue@@QAE@XZ    2006bad0 f i Game_local.obj
 0001:0006aae0       ??1idGame@@UAE@XZ          2006bae0 f i Game_local.obj
 0001:0006aaf0       ??1idGameLocal@@UAE@XZ     2006baf0 f i Game_local.obj
 0001:0006b230       ??1idMultiplayerGame@@QAE@XZ 2006c230 f i Game_local.obj
 0001:0006b440       ??1idStr@@QAE@XZ           2006c440 f i Actor.obj
 0001:0006b440       ??1idToken@@QAE@XZ         2006c440 f i AF.obj
 0001:0006b440       ??1debugJumpPoint_s@@QAE@XZ 2006c440 f i Game_Debug.obj
 0001:0006b440       ??1mpBanInfo_s@@QAE@XZ     2006c440 f i Game_local.obj
 0001:0006b450       ??1obstaclePath_s@@QAE@XZ  2006c450 f i Game_local.obj
 0001:0006b4a0       ??1voteStruct_t@@QAE@XZ    2006c4a0 f i Game_local.obj
 0001:0006b4b0       ??4idToken@@QAEAAV0@ABV0@@Z 2006c4b0 f i Game_local.obj
 0001:0006b530       ??H@YA?AVidStr@@ABV0@PBD@Z 2006c530 f i Game_local.obj
 0001:0006b620       ??_EidDict@@QAEPAXI@Z      2006c620 f i Game_local.obj
 0001:0006b750       ??_EselectedTypeInfo_s@@QAEPAXI@Z 2006c750 f i Game_local.obj
 0001:0006b7f0       ??_F?$idList@Usignal_t@@@@QAEXXZ 2006c7f0 f i Entity.obj
 0001:0006b7f0       ??_F?$idList@H@@QAEXXZ     2006c7f0 f i Anim_Blend.obj
 0001:0006b7f0       ??_F?$idList@V?$rvPair@PAVrvIcon@@H@@@@QAEXXZ 2006c7f0 f i IconManager.obj
 0001:0006b7f0       ??_F?$idList@PAVidPlayerStart@@@@QAEXXZ 2006c7f0 f i Game_local.obj
 0001:0006b810       ??_EidCVar@@UAEPAXI@Z      2006c810 f i Game_local.obj
 0001:0006b810       ??_GidCVar@@UAEPAXI@Z      2006c810 f i Game_local.obj
 0001:0006b860       ??_GidGame@@UAEPAXI@Z      2006c860 f i Game_local.obj
 0001:0006b860       ??_EidGame@@UAEPAXI@Z      2006c860 f i Game_local.obj
 0001:0006b8b0       ??_EidGameLocal@@UAEPAXI@Z 2006c8b0 f i Game_local.obj
 0001:0006b8b0       ??_GidGameLocal@@UAEPAXI@Z 2006c8b0 f i Game_local.obj
 0001:0006b900       ?ArgCompletion_Boolean@idCmdSystem@@SAXABVidCmdArgs@@P6AXPBD@Z@Z 2006c900 f i Game_local.obj
 0001:0006b950       ?Argv@idCmdArgs@@QBEPBDH@Z 2006c950 f i Game_local.obj
 0001:0006b970       ?ClientReadRepeaterSnapshot@idGameLocal@@UAEXHHHHABVidBitMsg@@@Z 2006c970 f i Game_local.obj
 0001:0006b980       ?GetBotInput@idGameLocal@@UAEXHAAVusercmd_t@@@Z 2006c980 f i Game_local.obj
 0001:0006b9a0       ?GetDemoFollowClient@idGameLocal@@UAEHXZ 2006c9a0 f i Game_local.obj
 0001:0006b9c0       ?GetHead@idActor@@QAEPAVidEntity@@XZ 2006c9c0 f i Game_local.obj
 0001:0006b9f0       ?GetLoadingGui@idGameLocal@@UAEPBDPBD@Z 2006c9f0 f i Game_local.obj
 0001:0006ba00       ?InCinematic@idGameLocal@@UAE_NXZ 2006ca00 f i Game_local.obj
 0001:0006ba10       ?InsertAfter@?$idLinkList@VidEntity@@@@QAEXAAV1@@Z 2006ca10 f i Game_local.obj
 0001:0006ba10       ?InsertAfter@?$idLinkList@UstateCall_t@@@@QAEXAAV1@@Z 2006ca10 f i State.obj
 0001:0006ba40       ?IsFlagGameType@idGameLocal@@QAE_NXZ 2006ca40 f i Game_local.obj
 0001:0006ba60       ?IsMultiplayer@idGameLocal@@UAE_NXZ 2006ca60 f i Game_local.obj
 0001:0006ba70       ?ProjectToLineSeg@idVec3@@QAE_NABV1@0@Z 2006ca70 f i Game_local.obj
 0001:0006bbd0       ?ReceiveRemoteConsoleOutput@idGameLocal@@UAEXPBD@Z 2006cbd0 f i Game_local.obj
 0001:0006bbf0       ?RepeaterAllowClient@idGameLocal@@UAE?AW4allowReply_t@@HHPBD0_N00QAD@Z 2006cbf0 f i Game_local.obj
 0001:0006bc10       ?RepeaterFrame@idGameLocal@@UAEXPBUuserOrigin_s@@_NH@Z 2006cc10 f i Game_local.obj
 0001:0006bc20       ?RepeaterSetUserInfo@idGameLocal@@UAEPBVidDict@@HABV2@@Z 2006cc20 f i Game_local.obj
 0001:0006bc30       ?RepeaterWriteSnapshot@idGameLocal@@UAEXHHAAVidBitMsg@@PAIHABUuserOrigin_s@@H@Z 2006cc30 f i Game_local.obj
 0001:0006bc40       ?SetRepeaterState@idGameLocal@@UAEX_N0@Z 2006cc40 f i Game_local.obj
 0001:0006bc70       ?Shutdown@?$idBlockAlloc@UentityNetEvent_s@@$0CA@$0BE@@@QAEXXZ 2006cc70 f i Game_local.obj
 0001:0006bce0       ?Shutdown@?$idBlockAlloc@UentityState_s@@$0BAA@$0BL@@@QAEXXZ 2006cce0 f i Game_local.obj
 0001:0006bd60       ?Shutdown@?$idBlockAlloc@Usnapshot_s@@$0EA@$0BL@@@QAEXXZ 2006cd60 f i Game_local.obj
 0001:0006bdd0       ?ToNormal@idVec3@@QBE?AV1@XZ 2006cdd0 f i Game_local.obj
 0001:0006bea0       ??0rvGameLogLocal@@QAE@XZ  2006cea0 f   Game_Log.obj
 0001:0006bf40       ?Init@rvGameLogLocal@@UAEXXZ 2006cf40 f   Game_Log.obj
 0001:0006c060       ?Shutdown@rvGameLogLocal@@UAEXXZ 2006d060 f   Game_Log.obj
 0001:0006c1d0       ?BeginFrame@rvGameLogLocal@@UAEXH@Z 2006d1d0 f   Game_Log.obj
 0001:0006c200       ?EndFrame@rvGameLogLocal@@UAEXXZ 2006d200 f   Game_Log.obj
 0001:0006c970       ?Set@rvGameLogLocal@@UAEXPBDH@Z 2006d970 f   Game_Log.obj
 0001:0006c9a0       ?Set@rvGameLogLocal@@UAEXPBDM@Z 2006d9a0 f   Game_Log.obj
 0001:0006c9e0       ?Set@rvGameLogLocal@@UAEXPBD0@Z 2006d9e0 f   Game_Log.obj
 0001:0006d130       ?Set@rvGameLogLocal@@UAEXPBD_N@Z 2006e130 f   Game_Log.obj
 0001:0006d160       ?Add@rvGameLogLocal@@UAEXPBDH@Z 2006e160 f   Game_Log.obj
 0001:0006d8c0       ?Add@rvGameLogLocal@@UAEXPBDM@Z 2006e8c0 f   Game_Log.obj
 0001:0006e040       ??1rvGameLog@@UAE@XZ       2006f040 f i Game_Log.obj
 0001:0006e050       ??1rvGameLogLocal@@UAE@XZ  2006f050 f i Game_Log.obj
 0001:0006e190       ??_GrvGameLog@@UAEPAXI@Z   2006f190 f i Game_Log.obj
 0001:0006e190       ??_ErvGameLog@@UAEPAXI@Z   2006f190 f i Game_Log.obj
 0001:0006e1e0       ??_ErvGameLogLocal@@UAEPAXI@Z 2006f1e0 f i Game_Log.obj
 0001:0006e1e0       ??_GrvGameLogLocal@@UAEPAXI@Z 2006f1e0 f i Game_Log.obj
 0001:0006e230       ?Alloc@idEventQueue@@QAEPAUentityNetEvent_s@@XZ 2006f230 f   Game_network.obj
 0001:0006e250       ?Free@idEventQueue@@QAEXPAUentityNetEvent_s@@@Z 2006f250 f   Game_network.obj
 0001:0006e260       ?Shutdown@idEventQueue@@QAEXXZ 2006f260 f   Game_network.obj
 0001:0006e280       ?Init@idEventQueue@@QAEXXZ 2006f280 f   Game_network.obj
 0001:0006e290       ?Enqueue@idEventQueue@@QAEXPAUentityNetEvent_s@@W4outOfOrderBehaviour_t@1@@Z 2006f290 f   Game_network.obj
 0001:0006e3a0       ?Dequeue@idEventQueue@@QAEPAUentityNetEvent_s@@XZ 2006f3a0 f   Game_network.obj
 0001:0006e3e0       ?RemoveLast@idEventQueue@@QAEPAUentityNetEvent_s@@XZ 2006f3e0 f   Game_network.obj
 0001:0006e420       ?ServerAllowClient@idGameLocal@@UAE?AW4allowReply_t@@HHPBD000QAD@Z 2006f420 f   Game_network.obj
 0001:0006e730       ?ServerClientConnect@idGameLocal@@UAEXHPBD@Z 2006f730 f   Game_network.obj
 0001:0006e7b0       ?ServerClientBegin@idGameLocal@@UAEXH@Z 2006f7b0 f   Game_network.obj
 0001:0006e890       ?ServerClientDisconnect@idGameLocal@@UAEXH@Z 2006f890 f   Game_network.obj
 0001:0006e9c0       ?ServerWriteInitialReliableMessages@idGameLocal@@UAEXH@Z 2006f9c0 f   Game_network.obj
 0001:0006eb00       ?ServerWriteSnapshot@idGameLocal@@UAEXHHAAVidBitMsg@@PAIHH@Z 2006fb00 f   Game_network.obj
 0001:0006ef60       ?ServerApplySnapshot@idGameLocal@@UAE_NHH@Z 2006ff60 f   Game_network.obj
 0001:0006ef70       ?ServerProcessReliableMessage@idGameLocal@@UAEXHABVidBitMsg@@@Z 2006ff70 f   Game_network.obj
 0001:0006f2f0       ?ClientReadSnapshot@idGameLocal@@UAEXHHHHHHABVidBitMsg@@@Z 200702f0 f   Game_network.obj
 0001:0006fe20       ?ClientApplySnapshot@idGameLocal@@UAE_NHH@Z 20070e20 f   Game_network.obj
 0001:0006fe30       ?ClientProcessReliableMessage@idGameLocal@@UAEXHABVidBitMsg@@@Z 20070e30 f   Game_network.obj
 0001:00070f20       ?ClientPrediction@idGameLocal@@UAE?AUgameReturn_t@@HPBVusercmd_t@@_NPAUClientStats_t@@@Z 20071f20 f   Game_network.obj
 0001:00071390       ?ClientRun@idGameLocal@@UAEXXZ 20072390 f   Game_network.obj
 0001:000713b0       ?ClientEndFrame@idGameLocal@@UAEXXZ 200723b0 f   Game_network.obj
 0001:000713d0       ?ProcessRconReturn@idGameLocal@@UAEX_N@Z 200723d0 f   Game_network.obj
 0001:000713f0       ?ResetRconGuiStatus@idGameLocal@@UAEXXZ 200723f0 f   Game_network.obj
 0001:00071410       ?DownloadRequest@idGameLocal@@UAE_NPBD00QAD@Z 20072410 f   Game_network.obj
 0001:00071960       ?HTTPRequest@idGameLocal@@UAE_NPBD0_N@Z 20072960 f   Game_network.obj
 0001:00071970       ?ClientHitScan@idGameLocal@@UAEXABVidBitMsg@@@Z 20072970 f   Game_network.obj
 0001:00071ad0       ?SetDemoState@idGameLocal@@UAEXW4demoState_t@@_N1@Z 20072ad0 f   Game_network.obj
 0001:00071b30       ?WriteNetworkInfo@idGameLocal@@UAEXPAVidFile@@H@Z 20072b30 f   Game_network.obj
 0001:00071d00       ?ReadNetworkInfo@idGameLocal@@UAEXHPAVidFile@@H@Z 20072d00 f   Game_network.obj
 0001:000725c0       ?ValidateDemoProtocol@idGameLocal@@UAE_NHH@Z 200735c0 f   Game_network.obj
 0001:000725f0       ?ServerWriteServerDemoSnapshot@idGameLocal@@UAEXHAAVidBitMsg@@H@Z 200735f0 f   Game_network.obj
 0001:00072880       ?ClientReadServerDemoSnapshot@idGameLocal@@UAEXHHHABVidBitMsg@@@Z 20073880 f   Game_network.obj
 0001:00073100       ?ServerSendChatMessage@idGameLocal@@QAEXHPBD00@Z 20074100 f   Game_network.obj
 0001:00073270       ?PopulateBanList@idGameLocal@@UAEXPAVidUserInterface@@@Z 20074270 f   Game_network.obj
 0001:00073330       ?ServerSendInstanceReliableMessageExcluding@idGameLocal@@QAEXPBVidEntity@@HABVidBitMsg@@@Z 20074330 f   Game_network.obj
 0001:000733c0       ?ServerSendInstanceReliableMessage@idGameLocal@@QAEXPBVidEntity@@HABVidBitMsg@@@Z 200743c0 f   Game_network.obj
 0001:00073490       ?SendUnreliableMessage@idGameLocal@@QAEXABVidBitMsg@@H@Z 20074490 f   Game_network.obj
 0001:00073560       ?SendUnreliableMessagePVS@idGameLocal@@QAEXABVidBitMsg@@PBVidEntity@@HH@Z 20074560 f   Game_network.obj
 0001:000736e0       ?RandomSpawn@idGameLocal@@QAEPAVidPlayerStart@@XZ 200746e0 f   Game_network.obj
 0001:00073720       ?InitAsyncNetwork@idGameLocal@@AAEXXZ 20074720 f   Game_network.obj
 0001:000737c0       ?ShutdownAsyncNetwork@idGameLocal@@AAEXXZ 200747c0 f   Game_network.obj
 0001:00073830       ?InitLocalClient@idGameLocal@@AAEXH@Z 20074830 f   Game_network.obj
 0001:00073850       ?FreeSnapshotsOlderThanSequence@idGameLocal@@AAEXHH@Z 20074850 f   Game_network.obj
 0001:00073900       ?ApplySnapshot@idGameLocal@@AAE_NHH@Z 20074900 f   Game_network.obj
 0001:000739f0       ?WriteGameStateToSnapshot@idGameLocal@@ABEXAAVidBitMsgDelta@@@Z 200749f0 f   Game_network.obj
 0001:00073a50       ?ReadGameStateFromSnapshot@idGameLocal@@AAEXABVidBitMsgDelta@@@Z 20074a50 f   Game_network.obj
 0001:00073aa0       ?NetworkEventWarning@idGameLocal@@AAAXPBUentityNetEvent_s@@PBDZZ 20074aa0 f   Game_network.obj
 0001:00073b30       ?ServerProcessEntityNetworkEventQueue@idGameLocal@@AAEXXZ 20074b30 f   Game_network.obj
 0001:00073c30       ?ClientProcessEntityNetworkEventQueue@idGameLocal@@AAEXXZ 20074c30 f   Game_network.obj
 0001:00073d30       ?ClientShowSnapshot@idGameLocal@@ABEXH@Z 20074d30 f   Game_network.obj
 0001:00074000       ?Tokenize@idGameLocal@@AAEXAAV?$idList@VidStr@@@@PBD@Z 20075000 f   Game_network.obj
 0001:00074410       ?UpdateLagometer@idGameLocal@@AAEXHH@Z 20075410 f   Game_network.obj
 0001:00074580       ?ClientReadUnreliableMessages@idGameLocal@@AAEXABVidBitMsg@@@Z 20075580 f   Game_network.obj
 0001:00074640       ?ProcessUnreliableMessage@idGameLocal@@AAEXABVidBitMsg@@@Z 20075640 f   Game_network.obj
 0001:000749c0       ?IsDemoReplayInAreas@idGameLocal@@AAE_NHH@Z 200759c0 f   Game_network.obj
 0001:00074a90       ?LoadBanList@idGameLocal@@QAEXXZ 20075a90 f   Game_network.obj
 0001:00074ff0       ?SaveBanList@idGameLocal@@QAEXXZ 20075ff0 f   Game_network.obj
 0001:000750f0       ?FlushBanList@idGameLocal@@QAEXXZ 200760f0 f   Game_network.obj
 0001:00075160       ?IsPlayerBanned@idGameLocal@@QAE_NPBD@Z 20076160 f   Game_network.obj
 0001:000751c0       ?IsGuidBanned@idGameLocal@@QAE_NPBD@Z 200761c0 f   Game_network.obj
 0001:00075220       ?AddGuidToBanList@idGameLocal@@UAEXPBD@Z 20076220 f   Game_network.obj
 0001:000756b0       ?RemoveGuidFromBanList@idGameLocal@@UAEXPBD@Z 200766b0 f   Game_network.obj
 0001:000757d0       ?RegisterClientGuid@idGameLocal@@UAEXHPBD@Z 200767d0 f   Game_network.obj
 0001:00075810       ?GetBanListCount@idGameLocal@@QAEHXZ 20076810 f   Game_network.obj
 0001:00075830       ?GetBanListEntry@idGameLocal@@QAEPBUmpBanInfo_s@@H@Z 20076830 f   Game_network.obj
 0001:00075870       ?GetGuidByClientNum@idGameLocal@@UAEPBDH@Z 20076870 f   Game_network.obj
 0001:00075890       ?GetClientNumByGuid@idGameLocal@@QAEHPBD@Z 20076890 f   Game_network.obj
 0001:000758e0       ?ServerSendBanList@idGameLocal@@QAEXH@Z 200768e0 f   Game_network.obj
 0001:00075990       ??$ArgCompletion_Integer@$0A@$02@idCmdSystem@@SAXABVidCmdArgs@@P6AXPBD@Z@Z 20076990 f i Game_network.obj
 0001:000759d0       ??0element_s@?$idBlockAlloc@UentityState_s@@$0BAA@$0BL@@@QAE@XZ 200769d0 f i Game_network.obj
 0001:000759e0       ?Alloc@?$idBlockAlloc@UentityNetEvent_s@@$0CA@$0BE@@@QAEPAUentityNetEvent_s@@XZ 200769e0 f i Game_network.obj
 0001:00075a80       ?Alloc@?$idBlockAlloc@UentityState_s@@$0BAA@$0BL@@@QAEPAUentityState_s@@XZ 20076a80 f i Game_network.obj
 0001:00075b80       ?Alloc@?$idBlockAlloc@Usnapshot_s@@$0EA@$0BL@@@QAEPAUsnapshot_s@@XZ 20076b80 f i Game_network.obj
 0001:00075c20       ?FlushUnusedAnims@idGameEdit@@UAEXXZ 20076c20 f   GameEdit.obj
 0001:00075c30       ?ClearEntitySelection@idGameEdit@@UAEXXZ 20076c30 f   GameEdit.obj
 0001:00075c80       ?GetSelectedEntities@idGameEdit@@UAEHQAPAVidEntity@@H@Z 20076c80 f   GameEdit.obj
 0001:00075cd0       ?AddSelectedEntity@idGameEdit@@UAEXPAVidEntity@@@Z 20076cd0 f   GameEdit.obj
 0001:00075d00       ?TriggerSelected@idGameEdit@@UAEXXZ 20076d00 f   GameEdit.obj
 0001:00075d70       ?FindEntityDefDict@idGameEdit@@UBEPBVidDict@@PBD_N@Z 20076d70 f   GameEdit.obj
 0001:00075d80       ?SpawnEntityDef@idGameEdit@@UAEXABVidDict@@PAPAVidEntity@@@Z 20076d80 f   GameEdit.obj
 0001:00075da0       ?FindEntity@idGameEdit@@UBEPAVidEntity@@PBD@Z 20076da0 f   GameEdit.obj
 0001:00075db0       ?GetUniqueEntityName@idGameEdit@@UBEPBDPBD@Z 20076db0 f   GameEdit.obj
 0001:00075e20       ?EntityGetOrigin@idGameEdit@@UBEXPAVidEntity@@AAVidVec3@@@Z 20076e20 f   GameEdit.obj
 0001:00075e60       ?EntityGetAxis@idGameEdit@@UBEXPAVidEntity@@AAVidMat3@@@Z 20076e60 f   GameEdit.obj
 0001:00075ec0       ?EntitySetOrigin@idGameEdit@@UAEXPAVidEntity@@ABVidVec3@@@Z 20076ec0 f   GameEdit.obj
 0001:00075ee0       ?EntitySetAxis@idGameEdit@@UAEXPAVidEntity@@ABVidMat3@@@Z 20076ee0 f   GameEdit.obj
 0001:00075f00       ?EntityTranslate@idGameEdit@@UAEXPAVidEntity@@ABVidVec3@@@Z 20076f00 f   GameEdit.obj
 0001:00075f30       ?EntityGetSpawnArgs@idGameEdit@@UBEPBVidDict@@PBVidEntity@@@Z 20076f30 f   GameEdit.obj
 0001:00075f50       ?EntityUpdateChangeableSpawnArgs@idGameEdit@@UAEXPAVidEntity@@PBVidDict@@@Z 20076f50 f   GameEdit.obj
 0001:00075f70       ?EntityChangeSpawnArgs@idGameEdit@@UAEXPAVidEntity@@PBVidDict@@@Z 20076f70 f   GameEdit.obj
 0001:00075fd0       ?EntityUpdateVisuals@idGameEdit@@UAEXPAVidEntity@@@Z 20076fd0 f   GameEdit.obj
 0001:00075ff0       ?EntitySetModel@idGameEdit@@UAEXPAVidEntity@@PBD@Z 20076ff0 f   GameEdit.obj
 0001:00076020       ?EntityStopSound@idGameEdit@@UAEXPAVidEntity@@@Z 20077020 f   GameEdit.obj
 0001:00076040       ?EntityDelete@idGameEdit@@UAEXPAVidEntity@@@Z 20077040 f   GameEdit.obj
 0001:00076060       ?EntitySetColor@idGameEdit@@UAEXPAVidEntity@@VidVec3@@@Z 20077060 f   GameEdit.obj
 0001:00076080       ?EntityGetName@idGameEdit@@UBEPBDPAVidEntity@@@Z 20077080 f   GameEdit.obj
 0001:000760a0       ?EntityToSafeId@idGameEdit@@UBEHPAVidEntity@@@Z 200770a0 f   GameEdit.obj
 0001:000760d0       ?EntityFromSafeId@idGameEdit@@UBEPAVidEntity@@H@Z 200770d0 f   GameEdit.obj
 0001:00076100       ?EntitySetSkin@idGameEdit@@UBEXPAVidEntity@@PBD@Z 20077100 f   GameEdit.obj
 0001:00076130       ?EntityClearSkin@idGameEdit@@UBEXPAVidEntity@@@Z 20077130 f   GameEdit.obj
 0001:00076140       ?EntityShow@idGameEdit@@UBEXPAVidEntity@@@Z 20077140 f   GameEdit.obj
 0001:00076150       ?EntityHide@idGameEdit@@UBEXPAVidEntity@@@Z 20077150 f   GameEdit.obj
 0001:00076160       ?EntityGetBounds@idGameEdit@@UBEXPAVidEntity@@AAVidBounds@@@Z 20077160 f   GameEdit.obj
 0001:000761b0       ?EntityPlayAnim@idGameEdit@@UAEHPAVidEntity@@HHH@Z 200771b0 f   GameEdit.obj
 0001:00076210       ?EntitySetFrame@idGameEdit@@UAEXPAVidEntity@@HHHH@Z 20077210 f   GameEdit.obj
 0001:00076270       ?EntityStopAllEffects@idGameEdit@@UAEXPAVidEntity@@@Z 20077270 f   GameEdit.obj
 0001:00076290       ?EntityGetDelta@idGameEdit@@UAEXPAVidEntity@@HHAAVidVec3@@@Z 20077290 f   GameEdit.obj
 0001:000762b0       ?EntityRemoveOriginOffset@idGameEdit@@UAEXPAVidEntity@@_N@Z 200772b0 f   GameEdit.obj
 0001:000762d0       ?EntityGetClassname@idGameEdit@@UBEPBDPAVidEntity@@@Z 200772d0 f   GameEdit.obj
 0001:000762e0       ?EntityIsDerivedFrom@idGameEdit@@UBE_NPAVidEntity@@PBD@Z 200772e0 f   GameEdit.obj
 0001:00076330       ?EntityGetRenderEntity@idGameEdit@@UAEPAUrenderEntity_s@@PAVidEntity@@@Z 20077330 f   GameEdit.obj
 0001:00076340       ?EntityGetNextTeamEntity@idGameEdit@@UBEPAVidEntity@@PAV2@@Z 20077340 f   GameEdit.obj
 0001:00076350       ?GetPlayerInfo@idGameEdit@@UBEXAAVidVec3@@AAVidMat3@@HPAVidAngles@@@Z 20077350 f   GameEdit.obj
 0001:00076380       ?SetPlayerInfo@idGameEdit@@UBEXAAVidVec3@@AAVidMat3@@H@Z 20077380 f   GameEdit.obj
 0001:000763a0       ?EntitySetName@idGameEdit@@UAEXPAVidEntity@@PBD@Z 200773a0 f   GameEdit.obj
 0001:000763c0       ?PlayerIsValid@idGameEdit@@UBE_NXZ 200773c0 f   GameEdit.obj
 0001:000763e0       ?PlayerGetOrigin@idGameEdit@@UBEXAAVidVec3@@@Z 200773e0 f   GameEdit.obj
 0001:00076420       ?PlayerGetAxis@idGameEdit@@UBEXAAVidMat3@@@Z 20077420 f   GameEdit.obj
 0001:00076480       ?PlayerGetViewAngles@idGameEdit@@UBEXAAVidAngles@@@Z 20077480 f   GameEdit.obj
 0001:000764b0       ?PlayerGetEyePosition@idGameEdit@@UBEXAAVidVec3@@@Z 200774b0 f   GameEdit.obj
 0001:000764f0       ?PlayerTraceFromEye@idGameEdit@@UAE_NAAUtrace_t@@MH@Z 200774f0 f   GameEdit.obj
 0001:000765b0       ?EffectRefreshTemplate@idGameEdit@@UBEXPBVidDecl@@@Z 200775b0 f   GameEdit.obj
 0001:00076630       ?LightSetParms@idGameEdit@@UAEXPAVidEntity@@HHM@Z 20077630 f   GameEdit.obj
 0001:000766c0       ?GetGameTime@idGameEdit@@UBEHPAH@Z 200776c0 f   GameEdit.obj
 0001:000766e0       ?SetGameTime@idGameEdit@@UBEXH@Z 200776e0 f   GameEdit.obj
 0001:00076700       ?TracePoint@idGameEdit@@UBE_NAAUtrace_t@@ABVidVec3@@1H@Z 20077700 f   GameEdit.obj
 0001:00076730       ?CacheDictionaryMedia@idGameEdit@@UBEXPBVidDict@@@Z 20077730 f   GameEdit.obj
 0001:00076740       ?SetCamera@idGameEdit@@UBEXPAVidEntity@@@Z 20077740 f   GameEdit.obj
 0001:00076770       ?GetGameEntityRegisterTime@idGameEdit@@UBEHXZ 20077770 f   GameEdit.obj
 0001:00076780       ?GetFirstSpawnedEntity@idGameEdit@@UBEPAVidEntity@@XZ 20077780 f   GameEdit.obj
 0001:000767a0       ?GetNextSpawnedEntity@idGameEdit@@UBEPAVidEntity@@PAV2@@Z 200777a0 f   GameEdit.obj
 0001:000767d0       ?ScriptGetStatementLineNumber@idGameEdit@@UBEHPAVidProgram@@H@Z 200777d0 f   GameEdit.obj
 0001:000767f0       ?ScriptGetStatementFileName@idGameEdit@@UBEPBDPAVidProgram@@H@Z 200777f0 f   GameEdit.obj
 0001:00076820       ?ScriptGetStatementOperator@idGameEdit@@UBEHPAVidProgram@@H@Z 20077820 f   GameEdit.obj
 0001:00076840       ?ScriptGetCurrentFunction@idGameEdit@@UBEPAXPAVidInterpreter@@@Z 20077840 f   GameEdit.obj
 0001:00076850       ?ScriptGetCurrentFunctionName@idGameEdit@@UBEPBDPAVidInterpreter@@@Z 20077850 f   GameEdit.obj
 0001:00076880       ?ScriptGetCallstackDepth@idGameEdit@@UBEHPAVidInterpreter@@@Z 20077880 f   GameEdit.obj
 0001:00076890       ?ScriptGetCallstackFunction@idGameEdit@@UBEPAXPAVidInterpreter@@H@Z 20077890 f   GameEdit.obj
 0001:000768b0       ?ScriptGetCallstackFunctionName@idGameEdit@@UBEPBDPAVidInterpreter@@H@Z 200778b0 f   GameEdit.obj
 0001:000768d0       ?ScriptGetCallstackStatement@idGameEdit@@UBEHPAVidInterpreter@@H@Z 200778d0 f   GameEdit.obj
 0001:000768f0       ?ScriptIsReturnOperator@idGameEdit@@UBE_NH@Z 200778f0 f   GameEdit.obj
 0001:00076900       ?ScriptGetRegisterValue@idGameEdit@@UBEPBDPAVidInterpreter@@PBDH@Z 20077900 f   GameEdit.obj
 0001:00076990       ?ScriptGetThread@idGameEdit@@UBEPAVidThread@@PAVidInterpreter@@@Z 20077990 f   GameEdit.obj
 0001:000769a0       ?ThreadGetCount@idGameEdit@@UAEHXZ 200779a0 f   GameEdit.obj
 0001:000769b0       ?ThreadGetThread@idGameEdit@@UAEPAVidThread@@H@Z 200779b0 f   GameEdit.obj
 0001:000769d0       ?ThreadGetName@idGameEdit@@UAEPBDPAVidThread@@@Z 200779d0 f   GameEdit.obj
 0001:000769e0       ?ThreadGetNumber@idGameEdit@@UAEHPAVidThread@@@Z 200779e0 f   GameEdit.obj
 0001:000769f0       ?ThreadGetState@idGameEdit@@UAEPBDPAVidThread@@@Z 200779f0 f   GameEdit.obj
 0001:00076a40       ?GetClassDebugInfo@idGameEdit@@UAEXPBVidEntity@@P6AXPBD11PAX@Z2@Z 20077a40 f   GameEdit.obj
 0001:00076a60       ?MapGetEntityDict@idGameEdit@@UBEPBVidDict@@PBD@Z 20077a60 f   GameEdit.obj
 0001:00076a90       ?MapSave@idGameEdit@@UBEXPBD@Z 20077a90 f   GameEdit.obj
 0001:00076bd0       ?MapHasExportEntities@idGameEdit@@UBE_NXZ 20077bd0 f   GameEdit.obj
 0001:00076bf0       ?MapLoaded@idGameEdit@@UBEPBDXZ 20077bf0 f   GameEdit.obj
 0001:00076c10       ?GetAASFile@idGameEdit@@UAEPAVidAASFile@@H@Z 20077c10 f   GameEdit.obj
 0001:00076c50       ?MapSetEntityKeyVal@idGameEdit@@UBEXPBD00@Z 20077c50 f   GameEdit.obj
 0001:00076c90       ?MapCopyDictToEntity@idGameEdit@@UBEXPBDPBVidDict@@@Z 20077c90 f   GameEdit.obj
 0001:00076d10       ?MapGetUniqueMatchingKeyVals@idGameEdit@@UBEHPBDQAPBDH@Z 20077d10 f   GameEdit.obj
 0001:00076d80       ?MapAddEntity@idGameEdit@@UBEXPBVidDict@@@Z 20077d80 f   GameEdit.obj
 0001:00076e20       ?MapGetEntitiesMatchingClassWithString@idGameEdit@@UBEHPBD0QAPBDH@Z 20077e20 f   GameEdit.obj
 0001:00076fd0       ?MapRemoveEntity@idGameEdit@@UBEXPBD@Z 20077fd0 f   GameEdit.obj
 0001:00077000       ?MapEntityTranslate@idGameEdit@@UBEXPBDABVidVec3@@@Z 20078000 f   GameEdit.obj
 0001:000770a0       ?RegisterClassA@idCursor3D@@SAXXZ 200780a0 f   GameEdit.obj
 0001:00077130       ?CreateInstance@idCursor3D@@SAPAVidClass@@XZ 20078130 f   GameEdit.obj
 0001:000771d0       ?GetClassType@idCursor3D@@SAAAVidTypeInfo@@XZ 200781d0 f   GameEdit.obj
 0001:000771e0       ?GetType@idCursor3D@@UBEPAVidTypeInfo@@XZ 200781e0 f   GameEdit.obj
 0001:000771f0       ??0idCursor3D@@QAE@XZ      200781f0 f   GameEdit.obj
 0001:00077260       ??1idCursor3D@@UAE@XZ      20078260 f   GameEdit.obj
 0001:000772c0       ?Spawn@idCursor3D@@QAEXXZ  200782c0 f   GameEdit.obj
 0001:000772d0       ?Present@idCursor3D@@UAEXXZ 200782d0 f   GameEdit.obj
 0001:000773d0       ?Think@idCursor3D@@UAEXXZ  200783d0 f   GameEdit.obj
 0001:00077400       ??0idDragEntity@@QAE@XZ    20078400 f   GameEdit.obj
 0001:00077470       ??1idDragEntity@@QAE@XZ    20078470 f   GameEdit.obj
 0001:000774e0       ?Clear@idDragEntity@@QAEXXZ 200784e0 f   GameEdit.obj
 0001:00077550       ?Update@idDragEntity@@QAEXPAVidPlayer@@@Z 20078550 f   GameEdit.obj
 0001:00077f30       ?SetSelected@idDragEntity@@QAEXPAVidEntity@@@Z 20078f30 f   GameEdit.obj
 0001:00077f70       ?DeleteSelected@idDragEntity@@QAEXXZ 20078f70 f   GameEdit.obj
 0001:00077fb0       ?BindSelected@idDragEntity@@QAEXXZ 20078fb0 f   GameEdit.obj
 0001:00078320       ?UnbindSelected@idDragEntity@@QAEXXZ 20079320 f   GameEdit.obj
 0001:00078450       ?StopDrag@idDragEntity@@AAEXXZ 20079450 f   GameEdit.obj
 0001:00078470       ??0idEditEntities@@QAE@XZ  20079470 f   GameEdit.obj
 0001:00078540       ?SelectEntity@idEditEntities@@QAE_NABVidVec3@@0PBVidEntity@@@Z 20079540 f   GameEdit.obj
 0001:00078690       ?AddSelectedEntity@idEditEntities@@QAEXPAVidEntity@@@Z 20079690 f   GameEdit.obj
 0001:00078870       ?RemoveSelectedEntity@idEditEntities@@QAEXPAVidEntity@@@Z 20079870 f   GameEdit.obj
 0001:00078900       ?ClearSelectedEntities@idEditEntities@@QAEXXZ 20079900 f   GameEdit.obj
 0001:00078970       ?DisplayEntities@idEditEntities@@QAEXXZ 20079970 f   GameEdit.obj
 0001:0007aae0       ?EntityIsSelectable@idEditEntities@@QAE_NPAVidEntity@@PAVidVec4@@PAVidStr@@@Z 2007bae0 f   GameEdit.obj
 0001:0007ac70       ?FindTraceEntity@idEditEntities@@QAEPAVidEntity@@VidVec3@@0PBV2@@Z 2007bc70 f   GameEdit.obj
 0001:0007add0       ?Register_idCursor3D@@YAXXZ 2007bdd0 f   GameEdit.obj
 0001:0007ade0       ?RegisterClassA@rvModviewModel@@SAXXZ 2007bde0 f   GameEdit.obj
 0001:0007ae70       ?CreateInstance@rvModviewModel@@SAPAVidClass@@XZ 2007be70 f   GameEdit.obj
 0001:0007af10       ?GetClassType@rvModviewModel@@SAAAVidTypeInfo@@XZ 2007bf10 f   GameEdit.obj
 0001:0007af20       ?GetType@rvModviewModel@@UBEPAVidTypeInfo@@XZ 2007bf20 f   GameEdit.obj
 0001:0007af30       ??0rvModviewModel@@QAE@XZ  2007bf30 f   GameEdit.obj
 0001:0007af50       ?Event_Speak@rvModviewModel@@AAEXPBD@Z 2007bf50 f   GameEdit.obj
 0001:0007b000       ?Register_rvModviewModel@@YAXXZ 2007c000 f   GameEdit.obj
 0001:0007b010       ??0idMapEntity@@QAE@XZ     2007c010 f i GameEdit.obj
 0001:0007b1f0       ??0ammodata_s@@QAE@XZ      2007c1f0 f i Target.obj
 0001:0007b1f0       ??0selectedTypeInfo_s@@QAE@XZ 2007c1f0 f i GameEdit.obj
 0001:0007b210       ??4selectedTypeInfo_s@@QAEAAU0@ABU0@@Z 2007c210 f i GameEdit.obj
 0001:0007b260       ??_GidCursor3D@@UAEPAXI@Z  2007c260 f i GameEdit.obj
 0001:0007b260       ??_EidCursor3D@@UAEPAXI@Z  2007c260 f i GameEdit.obj
 0001:0007b290       ??_GidGameEdit@@UAEPAXI@Z  2007c290 f i GameEdit.obj
 0001:0007b290       ??_EidGameEdit@@UAEPAXI@Z  2007c290 f i GameEdit.obj
 0001:0007b2e0       ??_EidActor@@UAEPAXI@Z     2007c2e0 f i Actor.obj
 0001:0007b2e0       ??_ErvModviewModel@@UAEPAXI@Z 2007c2e0 f i GameEdit.obj
 0001:0007b2e0       ??_GidActor@@UAEPAXI@Z     2007c2e0 f i Actor.obj
 0001:0007b2e0       ??_GrvModviewModel@@UAEPAXI@Z 2007c2e0 f i GameEdit.obj
 0001:0007b310       ?Left@idStr@@QBE?AV1@H@Z   2007c310 f i GameEdit.obj
 0001:0007b340       ?RegisterClassA@rvHealingStation@@SAXXZ 2007c340 f   Healing_Station.obj
 0001:0007b3d0       ?CreateInstance@rvHealingStation@@SAPAVidClass@@XZ 2007c3d0 f   Healing_Station.obj
 0001:0007b490       ?GetClassType@rvHealingStation@@SAAAVidTypeInfo@@XZ 2007c490 f   Healing_Station.obj
 0001:0007b4a0       ?GetType@rvHealingStation@@UBEPAVidTypeInfo@@XZ 2007c4a0 f   Healing_Station.obj
 0001:0007b4b0       ?Think@rvHealingStation@@UAEXXZ 2007c4b0 f   Healing_Station.obj
 0001:0007b510       ?Spawn@rvHealingStation@@QAEXXZ 2007c510 f   Healing_Station.obj
 0001:0007b680       ?Save@rvHealingStation@@QBEXPAVidSaveGame@@@Z 2007c680 f   Healing_Station.obj
 0001:0007b720       ?Restore@rvHealingStation@@QAEXPAVidRestoreGame@@@Z 2007c720 f   Healing_Station.obj
 0001:0007b7c0       ?BeginHealing@rvHealingStation@@QAEXPAVidEntity@@@Z 2007c7c0 f   Healing_Station.obj
 0001:0007b810       ?EndHealing@rvHealingStation@@QAEXXZ 2007c810 f   Healing_Station.obj
 0001:0007b820       ?CreateFrame@rvHealingStation@@IAEXM@Z 2007c820 f   Healing_Station.obj
 0001:0007b8e0       ?State_Healing@rvHealingStation@@IAE?AW4stateResult_t@@ABUstateParms_t@@@Z 2007c8e0 f   Healing_Station.obj
 0001:0007bb10       ?IsPlaying@rvHealingStation@@AAE_NXZ 2007cb10 f   Healing_Station.obj
 0001:0007bb40       ?Register_rvHealingStation@@YAXXZ 2007cb40 f   Healing_Station.obj
 0001:0007bb50       ??_GrvHealingStation@@UAEPAXI@Z 2007cb50 f i Healing_Station.obj
 0001:0007bb50       ??_ErvHealingStation@@UAEPAXI@Z 2007cb50 f i Healing_Station.obj
 0001:0007bbc0       ??0rvIcon@@QAE@XZ          2007cbc0 f   Icon.obj
 0001:0007bbd0       ??1rvIcon@@QAE@XZ          2007cbd0 f   Icon.obj
 0001:0007bbe0       ?UpdateIcon@rvIcon@@QAEXABVidVec3@@ABVidMat3@@@Z 2007cbe0 f   Icon.obj
 0001:0007bc50       ?CreateIcon@rvIcon@@QAEHPBDH@Z 2007cc50 f   Icon.obj
 0001:0007bdf0       ?FreeIcon@rvIcon@@QAEXXZ   2007cdf0 f   Icon.obj
 0001:0007be20       ?GetHeight@rvIcon@@QBEHXZ  2007ce20 f   Icon.obj
 0001:0007be30       ?GetWidth@rvIcon@@QBEHXZ   2007ce30 f   Icon.obj
 0001:0007be40       ?AddIcon@rvIconManager@@QAEXHPBD@Z 2007ce40 f   IconManager.obj
 0001:0007c110       ?UpdateIcons@rvIconManager@@QAEXXZ 2007d110 f   IconManager.obj
 0001:0007c4d0       ?UpdateTeamIcons@rvIconManager@@QAEXXZ 2007d4d0 f   IconManager.obj
 0001:0007c700       ?UpdateChatIcons@rvIconManager@@QAEXXZ 2007d700 f   IconManager.obj
 0001:0007c9b0       ?Shutdown@rvIconManager@@QAEXXZ 2007d9b0 f   IconManager.obj
 0001:0007ca50       ??0idIK@@QAE@XZ            2007da50 f   IK.obj
 0001:0007ca90       ??1idIK@@UAE@XZ            2007da90 f   IK.obj
 0001:0007caa0       ?Save@idIK@@QBEXPAVidSaveGame@@@Z 2007daa0 f   IK.obj
 0001:0007cb20       ?Restore@idIK@@QAEXPAVidRestoreGame@@@Z 2007db20 f   IK.obj
 0001:0007cc70       ?IsInitialized@idIK@@QBE_NXZ 2007dc70 f   IK.obj
 0001:0007cc90       ?Init@idIK@@UAE_NPAVidEntity@@PBDABVidVec3@@@Z 2007dc90 f   IK.obj
 0001:0007cda0       ?Evaluate@idIK@@UAEXXZ     2007dda0 f   IK.obj
 0001:0007cdb0       ?ClearJointMods@idIK@@UAEXXZ 2007ddb0 f   IK.obj
 0001:0007cdc0       ?SolveTwoBones@idIK@@QAE_NABVidVec3@@00MMAAV2@@Z 2007ddc0 f   IK.obj
 0001:0007d0e0       ?GetBoneAxis@idIK@@QAEMABVidVec3@@00AAVidMat3@@@Z 2007e0e0 f   IK.obj
 0001:0007d330       ??0idIK_Walk@@QAE@XZ       2007e330 f   IK.obj
 0001:0007d610       ??1idIK_Walk@@UAE@XZ       2007e610 f   IK.obj
 0001:0007d690       ?Save@idIK_Walk@@QBEXPAVidSaveGame@@@Z 2007e690 f   IK.obj
 0001:0007d8c0       ?Restore@idIK_Walk@@QAEXPAVidRestoreGame@@@Z 2007e8c0 f   IK.obj
 0001:0007dab0       ?Init@idIK_Walk@@UAE_NPAVidEntity@@PBDABVidVec3@@@Z 2007eab0 f   IK.obj
 0001:0007e910       ?Evaluate@idIK_Walk@@UAEXXZ 2007f910 f   IK.obj
 0001:000806f0       ?ClearJointMods@idIK_Walk@@UAEXXZ 200816f0 f   IK.obj
 0001:00080790       ?EnableAll@idIK_Walk@@QAEXXZ 20081790 f   IK.obj
 0001:000807b0       ?DisableAll@idIK_Walk@@QAEXXZ 200817b0 f   IK.obj
 0001:000807c0       ?EnableLeg@idIK_Walk@@QAEXH@Z 200817c0 f   IK.obj
 0001:000807e0       ?DisableLeg@idIK_Walk@@QAEXH@Z 200817e0 f   IK.obj
 0001:00080800       ??0idIK_Reach@@QAE@XZ      20081800 f   IK.obj
 0001:00080a10       ??1idIK_Reach@@UAE@XZ      20081a10 f   IK.obj
 0001:00080a20       ?Save@idIK_Reach@@QBEXPAVidSaveGame@@@Z 20081a20 f   IK.obj
 0001:00080ae0       ?Restore@idIK_Reach@@QAEXPAVidRestoreGame@@@Z 20081ae0 f   IK.obj
 0001:00080ba0       ?Init@idIK_Reach@@UAE_NPAVidEntity@@PBDABVidVec3@@@Z 20081ba0 f   IK.obj
 0001:000814d0       ?Evaluate@idIK_Reach@@UAEXXZ 200824d0 f   IK.obj
 0001:00082200       ?ClearJointMods@idIK_Reach@@UAEXXZ 20083200 f   IK.obj
 0001:00082270       ??_GidIK@@UAEPAXI@Z        20083270 f i IK.obj
 0001:00082270       ??_EidIK@@UAEPAXI@Z        20083270 f i IK.obj
 0001:000822c0       ??_EidIK_Reach@@UAEPAXI@Z  200832c0 f i IK.obj
 0001:000822c0       ??_GidIK_Reach@@UAEPAXI@Z  200832c0 f i IK.obj
 0001:00082310       ??_GidIK_Walk@@UAEPAXI@Z   20083310 f i IK.obj
 0001:00082310       ??_EidIK_Walk@@UAEPAXI@Z   20083310 f i IK.obj
 0001:00082360       ??0rvInstance@@QAE@H_N@Z   20083360 f   Instance.obj
 0001:000823b0       ??1rvInstance@@QAE@XZ      200833b0 f   Instance.obj
 0001:00082400       ?Populate@rvInstance@@QAEXH@Z 20083400 f   Instance.obj
 0001:000826f0       ?PopulateFromMessage@rvInstance@@QAEXABVidBitMsg@@@Z 200836f0 f   Instance.obj
 0001:00082820       ?Restart@rvInstance@@QAEXXZ 20083820 f   Instance.obj
 0001:00082850       ?JoinInstance@rvInstance@@QAEXPAVidPlayer@@@Z 20083850 f   Instance.obj
 0001:000828a0       ?SetSpawnInstanceID@rvInstance@@QAEXH@Z 200838a0 f   Instance.obj
 0001:000828b0       ?PrintMapNumbers@rvInstance@@QAEXXZ 200838b0 f   Instance.obj
 0001:00082910       ?BuildInstanceMessage@rvInstance@@AAEXXZ 20083910 f   Instance.obj
 0001:000829d0       ?RegisterClassA@idItem@@SAXXZ 200839d0 f   Item.obj
 0001:00082a60       ?CreateInstance@idItem@@SAPAVidClass@@XZ 20083a60 f   Item.obj
 0001:00082b00       ?GetClassType@idItem@@SAAAVidTypeInfo@@XZ 20083b00 f   Item.obj
 0001:00082b10       ?GetType@idItem@@UBEPAVidTypeInfo@@XZ 20083b10 f   Item.obj
 0001:00082b20       ??0idItem@@QAE@XZ          20083b20 f   Item.obj
 0001:00082c40       ??1idItem@@UAE@XZ          20083c40 f   Item.obj
 0001:00082cf0       ?Save@idItem@@QBEXPAVidSaveGame@@@Z 20083cf0 f   Item.obj
 0001:00082dc0       ?Restore@idItem@@QAEXPAVidRestoreGame@@@Z 20083dc0 f   Item.obj
 0001:00082eb0       ?Spawn@idItem@@QAEXXZ      20083eb0 f   Item.obj
 0001:000838a0       ?GetAttributes@idItem@@QAEXAAVidDict@@@Z 200848a0 f   Item.obj
 0001:00083980       ?GiveToPlayer@idItem@@UAE_NPAVidPlayer@@@Z 20084980 f   Item.obj
 0001:00083a70       ?Pickup@idItem@@UAE_NPAVidPlayer@@@Z 20084a70 f   Item.obj
 0001:000840f0       ?Think@idItem@@UAEXXZ      200850f0 f   Item.obj
 0001:00084160       ?Present@idItem@@UAEXXZ    20085160 f   Item.obj
 0001:000841f0       ?InstanceJoin@idItem@@UAEXXZ 200851f0 f   Item.obj
 0001:00084260       ?InstanceLeave@idItem@@UAEXXZ 20085260 f   Item.obj
 0001:00084280       ?GetPhysicsToVisualTransform@idItem@@UAE_NAAVidVec3@@AAVidMat3@@@Z 20085280 f   Item.obj
 0001:000846b0       ?Collide@idItem@@UAE_NABUtrace_t@@ABVidVec3@@@Z 200856b0 f   Item.obj
 0001:00084720       ?ClientPredictionThink@idItem@@UAEXXZ 20085720 f   Item.obj
 0001:00084730       ?ClientReceiveEvent@idItem@@UAE_NHHABVidBitMsg@@@Z 20085730 f   Item.obj
 0001:00084790       ?WriteToSnapshot@idItem@@UBEXAAVidBitMsgDelta@@@Z 20085790 f   Item.obj
 0001:000847d0       ?ReadFromSnapshot@idItem@@UAEXABVidBitMsgDelta@@@Z 200857d0 f   Item.obj
 0001:00084a00       ?Hide@idItem@@UAEXXZ       20085a00 f   Item.obj
 0001:00084a30       ?Show@idItem@@UAEXXZ       20085a30 f   Item.obj
 0001:00084a60       ?ClientStale@idItem@@UAE_NXZ 20085a60 f   Item.obj
 0001:00084a80       ?ClientUnstale@idItem@@UAEXXZ 20085a80 f   Item.obj
 0001:00084af0       ?Event_DropToFloor@idItem@@QAEXXZ 20085af0 f   Item.obj
 0001:00084b20       ?UpdateTrigger@idItem@@IAEXXZ 20085b20 f   Item.obj
 0001:00084b50       ?SendPickupMsg@idItem@@IAEXH@Z 20085b50 f   Item.obj
 0001:00084be0       ?UpdateRenderEntity@idItem@@ABE_NPAUrenderEntity_s@@PBUrenderView_s@@@Z 20085be0 f   Item.obj
 0001:00084e40       ?ModelCallback@idItem@@CA_NPAUrenderEntity_s@@PBUrenderView_s@@@Z 20085e40 f   Item.obj
 0001:00084e90       ?Event_Touch@idItem@@AAEXPAVidEntity@@PAUtrace_t@@@Z 20085e90 f   Item.obj
 0001:00084ed0       ?Event_Trigger@idItem@@AAEXPAVidEntity@@@Z 20085ed0 f   Item.obj
 0001:00084f50       ?Event_Respawn@idItem@@AAEXXZ 20085f50 f   Item.obj
 0001:00085080       ?Event_RespawnFx@idItem@@AAEXXZ 20086080 f   Item.obj
 0001:000851a0       ?Event_Pickup@idItem@@AAEXH@Z 200861a0 f   Item.obj
 0001:00085210       ?Event_SetGravity@idItem@@AAEXXZ 20086210 f   Item.obj
 0001:00085290       ?RegisterClassA@idItemPowerup@@SAXXZ 20086290 f   Item.obj
 0001:00085320       ?CreateInstance@idItemPowerup@@SAPAVidClass@@XZ 20086320 f   Item.obj
 0001:000853c0       ?GetClassType@idItemPowerup@@SAAAVidTypeInfo@@XZ 200863c0 f   Item.obj
 0001:000853d0       ?GetType@idItemPowerup@@UBEPAVidTypeInfo@@XZ 200863d0 f   Item.obj
 0001:000853e0       ??0idItemPowerup@@QAE@XZ   200863e0 f   Item.obj
 0001:00085420       ?Save@idItemPowerup@@QBEXPAVidSaveGame@@@Z 20086420 f   Item.obj
 0001:00085460       ?Restore@idItemPowerup@@QAEXPAVidRestoreGame@@@Z 20086460 f   Item.obj
 0001:000854a0       ?Spawn@idItemPowerup@@QAEXXZ 200864a0 f   Item.obj
 0001:00085680       ?GiveToPlayer@idItemPowerup@@UAE_NPAVidPlayer@@@Z 20086680 f   Item.obj
 0001:00085730       ?Think@idItemPowerup@@UAEXXZ 20086730 f   Item.obj
 0001:000857e0       ?Pickup@idItemPowerup@@UAE_NPAVidPlayer@@@Z 200867e0 f   Item.obj
 0001:00085820       ?RegisterClassA@riDeadZonePowerup@@SAXXZ 20086820 f   Item.obj
 0001:000858b0       ?CreateInstance@riDeadZonePowerup@@SAPAVidClass@@XZ 200868b0 f   Item.obj
 0001:00085950       ?GetClassType@riDeadZonePowerup@@SAAAVidTypeInfo@@XZ 20086950 f   Item.obj
 0001:00085960       ?GetType@riDeadZonePowerup@@UBEPAVidTypeInfo@@XZ 20086960 f   Item.obj
 0001:00085970       ??0riDeadZonePowerup@@QAE@XZ 20086970 f   Item.obj
 0001:00085990       ?Save@riDeadZonePowerup@@QBEXPAVidSaveGame@@@Z 20086990 f   Item.obj
 0001:000859a0       ?Restore@riDeadZonePowerup@@QAEXPAVidRestoreGame@@@Z 200869a0 f   Item.obj
 0001:000859b0       ?Pickup@riDeadZonePowerup@@UAE_NPAVidPlayer@@@Z 200869b0 f   Item.obj
 0001:00085a30       ?Spawn@riDeadZonePowerup@@QAEXXZ 20086a30 f   Item.obj
 0001:00085ba0       ?Show@riDeadZonePowerup@@UAEXXZ 20086ba0 f   Item.obj
 0001:00085bb0       ?Collide@riDeadZonePowerup@@UAE_NABUtrace_t@@ABVidVec3@@@Z 20086bb0 f   Item.obj
 0001:00085c20       ?ResetSpawn@riDeadZonePowerup@@IAEXH@Z 20086c20 f   Item.obj
 0001:00085d80       ?Event_ResetSpawn@riDeadZonePowerup@@AAEXXZ 20086d80 f   Item.obj
 0001:00085d90       ?RegisterClassA@rvItemCTFFlag@@SAXXZ 20086d90 f   Item.obj
 0001:00085e20       ?CreateInstance@rvItemCTFFlag@@SAPAVidClass@@XZ 20086e20 f   Item.obj
 0001:00085ec0       ?GetClassType@rvItemCTFFlag@@SAAAVidTypeInfo@@XZ 20086ec0 f   Item.obj
 0001:00085ed0       ?GetType@rvItemCTFFlag@@UBEPAVidTypeInfo@@XZ 20086ed0 f   Item.obj
 0001:00085ee0       ??0rvItemCTFFlag@@QAE@XZ   20086ee0 f   Item.obj
 0001:00085f00       ?Spawn@rvItemCTFFlag@@QAEXXZ 20086f00 f   Item.obj
 0001:00086080       ?GiveToPlayer@rvItemCTFFlag@@UAE_NPAVidPlayer@@@Z 20087080 f   Item.obj
 0001:00086240       ?Pickup@rvItemCTFFlag@@UAE_NPAVidPlayer@@@Z 20087240 f   Item.obj
 0001:000863c0       ?ResetFlag@rvItemCTFFlag@@SAXH@Z 200873c0 f   Item.obj
 0001:000864d0       ?Think@rvItemCTFFlag@@UAEXXZ 200874d0 f   Item.obj
 0001:000864e0       ?Collide@rvItemCTFFlag@@UAE_NABUtrace_t@@ABVidVec3@@@Z 200874e0 f   Item.obj
 0001:00086540       ?Event_ResetFlag@rvItemCTFFlag@@AAEXXZ 20087540 f   Item.obj
 0001:00086550       ?Event_LinkTrigger@rvItemCTFFlag@@AAEXXZ 20087550 f   Item.obj
 0001:00086570       ?RegisterClassA@idObjective@@SAXXZ 20087570 f   Item.obj
 0001:00086600       ?CreateInstance@idObjective@@SAPAVidClass@@XZ 20087600 f   Item.obj
 0001:000866a0       ?GetClassType@idObjective@@SAAAVidTypeInfo@@XZ 200876a0 f   Item.obj
 0001:000866b0       ?GetType@idObjective@@UBEPAVidTypeInfo@@XZ 200876b0 f   Item.obj
 0001:000866c0       ??0idObjective@@QAE@XZ     200876c0 f   Item.obj
 0001:00086700       ?Save@idObjective@@QBEXPAVidSaveGame@@@Z 20087700 f   Item.obj
 0001:00086720       ?Restore@idObjective@@QAEXPAVidRestoreGame@@@Z 20087720 f   Item.obj
 0001:00086750       ?Spawn@idObjective@@QAEXXZ 20087750 f   Item.obj
 0001:000867c0       ?Event_Trigger@idObjective@@AAEXPAVidEntity@@@Z 200877c0 f   Item.obj
 0001:00086ab0       ?Event_HideObjective@idObjective@@AAEXPAVidEntity@@@Z 20087ab0 f   Item.obj
 0001:00086b90       ?Event_GetPlayerPos@idObjective@@AAEXXZ 20087b90 f   Item.obj
 0001:00086bf0       ?Event_CamShot@idObjective@@AAEXXZ 20087bf0 f   Item.obj
 0001:00086da0       ?RegisterClassA@idMoveableItem@@SAXXZ 20087da0 f   Item.obj
 0001:00086e30       ?CreateInstance@idMoveableItem@@SAPAVidClass@@XZ 20087e30 f   Item.obj
 0001:00086ed0       ?GetClassType@idMoveableItem@@SAAAVidTypeInfo@@XZ 20087ed0 f   Item.obj
 0001:00086ee0       ?GetType@idMoveableItem@@UBEPAVidTypeInfo@@XZ 20087ee0 f   Item.obj
 0001:00086ef0       ??0idMoveableItem@@QAE@XZ  20087ef0 f   Item.obj
 0001:00086f40       ??1idMoveableItem@@UAE@XZ  20087f40 f   Item.obj
 0001:00086fa0       ?Save@idMoveableItem@@QBEXPAVidSaveGame@@@Z 20087fa0 f   Item.obj
 0001:00086fc0       ?Restore@idMoveableItem@@QAEXPAVidRestoreGame@@@Z 20087fc0 f   Item.obj
 0001:00086ff0       ?Spawn@idMoveableItem@@QAEXXZ 20087ff0 f   Item.obj
 0001:00087440       ?Think@idMoveableItem@@UAEXXZ 20088440 f   Item.obj
 0001:00087460       ?DropItems@idMoveableItem@@SAXPAVidAnimatedEntity@@PBDPAV?$idList@PAVidEntity@@@@@Z 20088460 f   Item.obj
 0001:00087dd0       ?DropItem@idMoveableItem@@SAPAVidEntity@@PBDABVidVec3@@ABVidMat3@@1HH@Z 20088dd0 f   Item.obj
 0001:000880c0       ?WriteToSnapshot@idMoveableItem@@UBEXAAVidBitMsgDelta@@@Z 200890c0 f   Item.obj
 0001:000880e0       ?ReadFromSnapshot@idMoveableItem@@UAEXABVidBitMsgDelta@@@Z 200890e0 f   Item.obj
 0001:00088110       ?Gib@idMoveableItem@@AAEXABVidVec3@@PBD@Z 20089110 f   Item.obj
 0001:00088120       ?Event_Gib@idMoveableItem@@AAEXPBD@Z 20089120 f   Item.obj
 0001:00088140       ?RegisterClassA@idItemRemover@@SAXXZ 20089140 f   Item.obj
 0001:000881d0       ?CreateInstance@idItemRemover@@SAPAVidClass@@XZ 200891d0 f   Item.obj
 0001:00088280       ?GetClassType@idItemRemover@@SAAAVidTypeInfo@@XZ 20089280 f   Item.obj
 0001:00088290       ?GetType@idItemRemover@@UBEPAVidTypeInfo@@XZ 20089290 f   Item.obj
 0001:000882a0       ?Spawn@idItemRemover@@QAEXXZ 200892a0 f   Item.obj
 0001:000882b0       ?RemoveItem@idItemRemover@@QAEXPAVidPlayer@@@Z 200892b0 f   Item.obj
 0001:000882f0       ?Event_Trigger@idItemRemover@@AAEXPAVidEntity@@@Z 200892f0 f   Item.obj
 0001:00088330       ?RegisterClassA@idObjectiveComplete@@SAXXZ 20089330 f   Item.obj
 0001:000883c0       ?CreateInstance@idObjectiveComplete@@SAPAVidClass@@XZ 200893c0 f   Item.obj
 0001:00088460       ?GetClassType@idObjectiveComplete@@SAAAVidTypeInfo@@XZ 20089460 f   Item.obj
 0001:00088470       ?GetType@idObjectiveComplete@@UBEPAVidTypeInfo@@XZ 20089470 f   Item.obj
 0001:00088480       ??0idObjectiveComplete@@QAE@XZ 20089480 f   Item.obj
 0001:000884c0       ?Save@idObjectiveComplete@@QBEXPAVidSaveGame@@@Z 200894c0 f   Item.obj
 0001:000884e0       ?Restore@idObjectiveComplete@@QAEXPAVidRestoreGame@@@Z 200894e0 f   Item.obj
 0001:00088500       ?Spawn@idObjectiveComplete@@QAEXXZ 20089500 f   Item.obj
 0001:00088530       ?Event_Trigger@idObjectiveComplete@@AAEXPAVidEntity@@@Z 20089530 f   Item.obj
 0001:000886a0       ?Event_HideObjective@idObjectiveComplete@@AAEXPAVidEntity@@@Z 200896a0 f   Item.obj
 0001:000887a0       ?Event_GetPlayerPos@idObjectiveComplete@@AAEXXZ 200897a0 f   Item.obj
 0001:00088800       ?RegisterClassA@rvObjectiveFailed@@SAXXZ 20089800 f   Item.obj
 0001:00088890       ?CreateInstance@rvObjectiveFailed@@SAPAVidClass@@XZ 20089890 f   Item.obj
 0001:00088930       ?GetClassType@rvObjectiveFailed@@SAAAVidTypeInfo@@XZ 20089930 f   Item.obj
 0001:00088940       ?GetType@rvObjectiveFailed@@UBEPAVidTypeInfo@@XZ 20089940 f   Item.obj
 0001:00088950       ??0rvObjectiveFailed@@QAE@XZ 20089950 f   Item.obj
 0001:00088970       ?Event_Trigger@rvObjectiveFailed@@AAEXPAVidEntity@@@Z 20089970 f   Item.obj
 0001:00088aa0       ?Register_idItem@@YAXXZ    20089aa0 f   Item.obj
 0001:00088ab0       ?Register_idItemPowerup@@YAXXZ 20089ab0 f   Item.obj
 0001:00088ac0       ?Register_idObjective@@YAXXZ 20089ac0 f   Item.obj
 0001:00088ad0       ?Register_idMoveableItem@@YAXXZ 20089ad0 f   Item.obj
 0001:00088ae0       ?Register_idItemRemover@@YAXXZ 20089ae0 f   Item.obj
 0001:00088af0       ?Register_idObjectiveComplete@@YAXXZ 20089af0 f   Item.obj
 0001:00088b00       ?Register_rvObjectiveFailed@@YAXXZ 20089b00 f   Item.obj
 0001:00088b10       ?Register_rvItemCTFFlag@@YAXXZ 20089b10 f   Item.obj
 0001:00088b20       ?Register_riDeadZonePowerup@@YAXXZ 20089b20 f   Item.obj
 0001:00088b30       ??_EidMoveableItem@@UAEPAXI@Z 20089b30 f i Item.obj
 0001:00088b30       ??_GidMoveableItem@@UAEPAXI@Z 20089b30 f i Item.obj
 0001:00088b60       ??_GidObjective@@UAEPAXI@Z 20089b60 f i Item.obj
 0001:00088b60       ??_GriDeadZonePowerup@@UAEPAXI@Z 20089b60 f i Item.obj
 0001:00088b60       ??_GidItemPowerup@@UAEPAXI@Z 20089b60 f i Item.obj
 0001:00088b60       ??_GrvItemCTFFlag@@UAEPAXI@Z 20089b60 f i Item.obj
 0001:00088b60       ??_GidItem@@UAEPAXI@Z      20089b60 f i Item.obj
 0001:00088b60       ??_ErvItemCTFFlag@@UAEPAXI@Z 20089b60 f i Item.obj
 0001:00088b60       ??_EriDeadZonePowerup@@UAEPAXI@Z 20089b60 f i Item.obj
 0001:00088b60       ??_EidObjective@@UAEPAXI@Z 20089b60 f i Item.obj
 0001:00088b60       ??_EidItemPowerup@@UAEPAXI@Z 20089b60 f i Item.obj
 0001:00088b60       ??_EidItem@@UAEPAXI@Z      20089b60 f i Item.obj
 0001:00088ba0       ?ParseSpawnArgsToRenderLight@idGameEdit@@UAE_NPBVidDict@@PAUrenderLight_s@@@Z 20089ba0 f   Light.obj
 0001:00089680       ?RegisterClassA@idLight@@SAXXZ 2008a680 f   Light.obj
 0001:00089710       ?CreateInstance@idLight@@SAPAVidClass@@XZ 2008a710 f   Light.obj
 0001:000897b0       ?GetClassType@idLight@@SAAAVidTypeInfo@@XZ 2008a7b0 f   Light.obj
 0001:000897c0       ?GetType@idLight@@UBEPAVidTypeInfo@@XZ 2008a7c0 f   Light.obj
 0001:000897d0       ??0idLight@@QAE@XZ         2008a7d0 f   Light.obj
 0001:000899f0       ??1idLight@@UAE@XZ         2008a9f0 f   Light.obj
 0001:00089a60       ?Spawn@idLight@@QAEXXZ     2008aa60 f   Light.obj
 0001:0008a510       ?Save@idLight@@QBEXPAVidSaveGame@@@Z 2008b510 f   Light.obj
 0001:0008a620       ?Restore@idLight@@QAEXPAVidRestoreGame@@@Z 2008b620 f   Light.obj
 0001:0008a7f0       ?UpdateChangeableSpawnArgs@idLight@@UAEXPBVidDict@@@Z 2008b7f0 f   Light.obj
 0001:0008a880       ?Think@idLight@@UAEXXZ     2008b880 f   Light.obj
 0001:0008aa40       ?FreeLightDef@idLight@@UAEXXZ 2008ba40 f   Light.obj
 0001:0008aa70       ?GetPhysicsToSoundTransform@idLight@@UAE_NAAVidVec3@@AAVidMat3@@@Z 2008ba70 f   Light.obj
 0001:0008ac90       ?Present@idLight@@UAEXXZ   2008bc90 f   Light.obj
 0001:0008afc0       ?SaveState@idLight@@QAEXPAVidDict@@@Z 2008bfc0 f   Light.obj
 0001:0008b050       ?SetColor@idLight@@UAEXMMM@Z 2008c050 f   Light.obj
 0001:0008b090       ?SetColor@idLight@@UAEXABVidVec4@@@Z 2008c090 f   Light.obj
 0001:0008b0d0       ?GetColor@idLight@@UBEXAAVidVec3@@@Z 2008c0d0 f   Light.obj
 0001:0008b100       ?GetColor@idLight@@UBEXAAVidVec4@@@Z 2008c100 f   Light.obj
 0001:0008b130       ?SetShader@idLight@@QAEXPBD@Z 2008c130 f   Light.obj
 0001:0008b160       ?SetLightParm@idLight@@QAEXHM@Z 2008c160 f   Light.obj
 0001:0008b1b0       ?SetLightParms@idLight@@QAEXMMMM@Z 2008c1b0 f   Light.obj
 0001:0008b240       ?SetRadiusXYZ@idLight@@QAEXMMM@Z 2008c240 f   Light.obj
 0001:0008b280       ?SetRadius@idLight@@QAEXM@Z 2008c280 f   Light.obj
 0001:0008b2b0       ?On@idLight@@QAEXXZ        2008c2b0 f   Light.obj
 0001:0008b4d0       ?Off@idLight@@QAEXXZ       2008c4d0 f   Light.obj
 0001:0008b6d0       ?Fade@idLight@@QAEXABVidVec4@@M@Z 2008c6d0 f   Light.obj
 0001:0008b730       ?FadeOut@idLight@@QAEXM@Z  2008c730 f   Light.obj
 0001:0008b750       ?FadeIn@idLight@@QAEXM@Z   2008c750 f   Light.obj
 0001:0008b7c0       ?Killed@idLight@@UAEXPAVidEntity@@0HABVidVec3@@H@Z 2008c7c0 f   Light.obj
 0001:0008b7d0       ?BecomeBroken@idLight@@QAEXPAVidEntity@@@Z 2008c7d0 f   Light.obj
 0001:0008bbc0       ?SetLightLevel@idLight@@QAEXXZ 2008cbc0 f   Light.obj
 0001:0008bc40       ?ShowEditingDialog@idLight@@UAEXXZ 2008cc40 f   Light.obj
 0001:0008bc70       ?ClientPredictionThink@idLight@@UAEXXZ 2008cc70 f   Light.obj
 0001:0008bc80       ?WriteToSnapshot@idLight@@UBEXAAVidBitMsgDelta@@@Z 2008cc80 f   Light.obj
 0001:0008bdc0       ?ReadFromSnapshot@idLight@@UAEXABVidBitMsgDelta@@@Z 2008cdc0 f   Light.obj
 0001:0008bf80       ?ClientReceiveEvent@idLight@@UAE_NHHABVidBitMsg@@@Z 2008cf80 f   Light.obj
 0001:0008bfb0       ?PresentLightDefChange@idLight@@AAEXXZ 2008cfb0 f   Light.obj
 0001:0008bff0       ?PresentModelDefChange@idLight@@AAEXXZ 2008cff0 f   Light.obj
 0001:0008c040       ?Event_SetCurrentLightLevel@idLight@@AAEXH@Z 2008d040 f   Light.obj
 0001:0008c060       ?Event_SetMaxLightLevel@idLight@@AAEXH@Z 2008d060 f   Light.obj
 0001:0008c080       ?Event_IsOn@idLight@@AAEXXZ 2008d080 f   Light.obj
 0001:0008c0b0       ?Event_Break@idLight@@AAEXPAVidEntity@@M@Z 2008d0b0 f   Light.obj
 0001:0008c0e0       ?Event_DoneBlinking@idLight@@AAEXXZ 2008d0e0 f   Light.obj
 0001:0008c2d0       ?Event_DoneBlinkingOff@idLight@@AAEXXZ 2008d2d0 f   Light.obj
 0001:0008c320       ?Event_EarthQuake@idLight@@AAEXM@Z 2008d320 f   Light.obj
 0001:0008c460       ?Event_Timer@idLight@@AAEXXZ 2008d460 f   Light.obj
 0001:0008c4f0       ?Event_SetShader@idLight@@AAEXPBD@Z 2008d4f0 f   Light.obj
 0001:0008c500       ?Event_GetLightParm@idLight@@AAEXH@Z 2008d500 f   Light.obj
 0001:0008c550       ?Event_SetLightParm@idLight@@AAEXHM@Z 2008d550 f   Light.obj
 0001:0008c570       ?Event_SetLightParms@idLight@@AAEXMMMM@Z 2008d570 f   Light.obj
 0001:0008c5b0       ?Event_SetRadiusXYZ@idLight@@AAEXMMM@Z 2008d5b0 f   Light.obj
 0001:0008c5e0       ?Event_SetRadius@idLight@@AAEXM@Z 2008d5e0 f   Light.obj
 0001:0008c600       ?Event_Hide@idLight@@AAEXXZ 2008d600 f   Light.obj
 0001:0008c620       ?Event_Show@idLight@@AAEXXZ 2008d620 f   Light.obj
 0001:0008c640       ?Event_On@idLight@@AAEXXZ  2008d640 f   Light.obj
 0001:0008c650       ?Event_Off@idLight@@AAEXXZ 2008d650 f   Light.obj
 0001:0008c660       ?Event_ToggleOnOff@idLight@@AAEXPAVidEntity@@@Z 2008d660 f   Light.obj
 0001:0008c710       ?Event_SetSoundHandles@idLight@@AAEXXZ 2008d710 f   Light.obj
 0001:0008c800       ?Event_FadeOut@idLight@@AAEXM@Z 2008d800 f   Light.obj
 0001:0008c820       ?Event_FadeIn@idLight@@AAEXM@Z 2008d820 f   Light.obj
 0001:0008c840       ?Event_SetLightGUI@idLight@@AAEXPBD@Z 2008d840 f   Light.obj
 0001:0008c910       ?Register_idLight@@YAXXZ   2008d910 f   Light.obj
 0001:0008c920       ??_EidLight@@UAEPAXI@Z     2008d920 f i Light.obj
 0001:0008c920       ??_GidLight@@UAEPAXI@Z     2008d920 f i Light.obj
 0001:0008c950       ?StartLipSyncing@idAFAttachment@@QAEHPBD@Z 2008d950 f   LipSync.obj
 0001:0008cb70       ?HandleLipSync@idAFAttachment@@QAEXXZ 2008db70 f   LipSync.obj
 0001:0008cde0       ?EndLipSyncing@idAFAttachment@@QAEXXZ 2008dde0 f   LipSync.obj
 0001:0008cea0       ?Init@rvViseme@@QAEXAAVidStr@@HH@Z 2008dea0 f   LipSync.obj
 0001:0008cef0       ??0rvLipSyncData@@QAE@PBVrvDeclLipSync@@H@Z 2008def0 f   LipSync.obj
 0001:0008d010       ?SetFrame@rvLipSyncData@@QAEXH@Z 2008e010 f   LipSync.obj
 0001:0008d030       ?GetFrontLerp@rvLipSyncData@@QAEMXZ 2008e030 f   LipSync.obj
 0001:0008d0a0       ?FAS_Init@@YA_NPBD@Z       2008e0a0 f   LipSync.obj
 0001:0008d0d0       ?FAS_Shutdown@@YAXXZ       2008e0d0 f   LipSync.obj
 0001:0008d3c0       ?FAS_ExtractViseme@@YAXPAVrvLipSyncData@@H@Z 2008e3c0 f   LipSync.obj
 0001:0008d900       ?FAS_StartVisemeExtraction@@YAPAVrvLipSyncData@@PBVrvDeclLipSync@@H@Z 2008e900 f   LipSync.obj
 0001:0008d980       ?FAS_EndVisemeExtraction@@YAXPAVrvLipSyncData@@@Z 2008e980 f   LipSync.obj
 0001:0008da10       ?FAS_LoadPhonemes@@YA_NPBD@Z 2008ea10 f   LipSync.obj
 0001:0008e340       ?FAS_Reload_f@@YAXABVidCmdArgs@@@Z 2008f340 f   LipSync.obj
 0001:0008e370       ??0hashnode_s@?$idHashTable@VrvViseme@@@@QAE@PBDVrvViseme@@PAU01@@Z 2008f370 f i LipSync.obj
 0001:0008e460       ??0rvViseme@@QAE@ABV0@@Z   2008f460 f i LipSync.obj
 0001:0008e4d0       ??1rvViseme@@QAE@XZ        2008f4d0 f i LipSync.obj
 0001:0008e570       ?RegisterClassA@idSpawnableEntity@@SAXXZ 2008f570 f   Misc.obj
 0001:0008e600       ?CreateInstance@idSpawnableEntity@@SAPAVidClass@@XZ 2008f600 f   Misc.obj
 0001:0008e6b0       ?GetClassType@idSpawnableEntity@@SAAAVidTypeInfo@@XZ 2008f6b0 f   Misc.obj
 0001:0008e6c0       ?GetType@idSpawnableEntity@@UBEPAVidTypeInfo@@XZ 2008f6c0 f   Misc.obj
 0001:0008e6d0       ?Spawn@idSpawnableEntity@@QAEXXZ 2008f6d0 f   Misc.obj
 0001:0008e6e0       ?RegisterClassA@idPlayerStart@@SAXXZ 2008f6e0 f   Misc.obj
 0001:0008e770       ?CreateInstance@idPlayerStart@@SAPAVidClass@@XZ 2008f770 f   Misc.obj
 0001:0008e810       ?GetClassType@idPlayerStart@@SAAAVidTypeInfo@@XZ 2008f810 f   Misc.obj
 0001:0008e820       ?GetType@idPlayerStart@@UBEPAVidTypeInfo@@XZ 2008f820 f   Misc.obj
 0001:0008e830       ??0idPlayerStart@@QAE@XZ   2008f830 f   Misc.obj
 0001:0008e850       ?Spawn@idPlayerStart@@QAEXXZ 2008f850 f   Misc.obj
 0001:0008e860       ?Save@idPlayerStart@@QBEXPAVidSaveGame@@@Z 2008f860 f   Misc.obj
 0001:0008e880       ?Restore@idPlayerStart@@QAEXPAVidRestoreGame@@@Z 2008f880 f   Misc.obj
 0001:0008e8a0       ?ClientReceiveEvent@idPlayerStart@@UAE_NHHABVidBitMsg@@@Z 2008f8a0 f   Misc.obj
 0001:0008e990       ?Event_TeleportEntity@idPlayerStart@@AAEXPAVidEntity@@_NAAVidVec3@@@Z 2008f990 f   Misc.obj
 0001:0008ed10       ?Event_Teleport@idPlayerStart@@AAEXPAVidEntity@@@Z 2008fd10 f   Misc.obj
 0001:0008ed30       ?Teleport@idPlayerStart@@AAEXPAVidEntity@@@Z 2008fd30 f   Misc.obj
 0001:0008ee30       ?Event_TeleportStage@idPlayerStart@@AAEXPAVidPlayer@@@Z 2008fe30 f   Misc.obj
 0001:0008efc0       ?TeleportPlayer@idPlayerStart@@AAEXPAVidPlayer@@@Z 2008ffc0 f   Misc.obj
 0001:0008f1f0       ?RegisterClassA@idActivator@@SAXXZ 200901f0 f   Misc.obj
 0001:0008f280       ?CreateInstance@idActivator@@SAPAVidClass@@XZ 20090280 f   Misc.obj
 0001:0008f330       ?GetClassType@idActivator@@SAAAVidTypeInfo@@XZ 20090330 f   Misc.obj
 0001:0008f340       ?GetType@idActivator@@UBEPAVidTypeInfo@@XZ 20090340 f   Misc.obj
 0001:0008f350       ?Spawn@idActivator@@QAEXXZ 20090350 f   Misc.obj
 0001:0008f4d0       ?Save@idActivator@@QBEXPAVidSaveGame@@@Z 200904d0 f   Misc.obj
 0001:0008f4f0       ?Restore@idActivator@@QAEXPAVidRestoreGame@@@Z 200904f0 f   Misc.obj
 0001:0008f520       ?Think@idActivator@@UAEXXZ 20090520 f   Misc.obj
 0001:0008f560       ?Event_Activate@idActivator@@AAEXPAVidEntity@@@Z 20090560 f   Misc.obj
 0001:0008f580       ?RegisterClassA@idPathCorner@@SAXXZ 20090580 f   Misc.obj
 0001:0008f610       ?CreateInstance@idPathCorner@@SAPAVidClass@@XZ 20090610 f   Misc.obj
 0001:0008f6c0       ?GetClassType@idPathCorner@@SAAAVidTypeInfo@@XZ 200906c0 f   Misc.obj
 0001:0008f6d0       ?GetType@idPathCorner@@UBEPAVidTypeInfo@@XZ 200906d0 f   Misc.obj
 0001:0008f6e0       ?Spawn@idPathCorner@@QAEXXZ 200906e0 f   Misc.obj
 0001:0008f6f0       ?DrawDebugInfo@idPathCorner@@SAXXZ 200906f0 f   Misc.obj
 0001:0008f7a0       ?RandomPath@idPathCorner@@SAPAV1@PBVidEntity@@0@Z 200907a0 f   Misc.obj
 0001:0008f860       ?Event_RandomPath@idPathCorner@@AAEXXZ 20090860 f   Misc.obj
 0001:0008f880       ?RegisterClassA@rvDebugJumpPoint@@SAXXZ 20090880 f   Misc.obj
 0001:0008f910       ?CreateInstance@rvDebugJumpPoint@@SAPAVidClass@@XZ 20090910 f   Misc.obj
 0001:0008f9c0       ?GetClassType@rvDebugJumpPoint@@SAAAVidTypeInfo@@XZ 200909c0 f   Misc.obj
 0001:0008f9d0       ?GetType@rvDebugJumpPoint@@UBEPAVidTypeInfo@@XZ 200909d0 f   Misc.obj
 0001:0008f9e0       ?Spawn@rvDebugJumpPoint@@QAEXXZ 200909e0 f   Misc.obj
 0001:0008fa40       ?RegisterClassA@idDamagable@@SAXXZ 20090a40 f   Misc.obj
 0001:0008fad0       ?CreateInstance@idDamagable@@SAPAVidClass@@XZ 20090ad0 f   Misc.obj
 0001:0008fb70       ?GetClassType@idDamagable@@SAAAVidTypeInfo@@XZ 20090b70 f   Misc.obj
 0001:0008fb80       ?GetType@idDamagable@@UBEPAVidTypeInfo@@XZ 20090b80 f   Misc.obj
 0001:0008fb90       ??0idDamagable@@QAE@XZ     20090b90 f   Misc.obj
 0001:0008fbc0       ?Save@idDamagable@@QBEXPAVidSaveGame@@@Z 20090bc0 f   Misc.obj
 0001:0008fc60       ?Restore@idDamagable@@QAEXPAVidRestoreGame@@@Z 20090c60 f   Misc.obj
 0001:0008fd50       ?Spawn@idDamagable@@QAEXXZ 20090d50 f   Misc.obj
 0001:0008ffd0       ?Killed@idDamagable@@UAEXPAVidEntity@@0HABVidVec3@@H@Z 20090fd0 f   Misc.obj
 0001:00090000       ?Damage@idDamagable@@UAEXPAVidEntity@@0ABVidVec3@@PBDMH@Z 20091000 f   Misc.obj
 0001:00090160       ?ExecuteStage@idDamagable@@MAEXXZ 20091160 f   Misc.obj
 0001:00090b60       ?UpdateStage@idDamagable@@IAEXXZ 20091b60 f   Misc.obj
 0001:00090d10       ?GetStageVector@idDamagable@@IBE?AVidVec3@@PBD0@Z 20091d10 f   Misc.obj
 0001:00090e10       ?GetStageFloat@idDamagable@@IBEMPBD0@Z 20091e10 f   Misc.obj
 0001:00090f10       ?GetStageInt@idDamagable@@IBEHPBD0@Z 20091f10 f   Misc.obj
 0001:00091010       ?BecomeBroken@idDamagable@@IAEXPAVidEntity@@@Z 20092010 f   Misc.obj
 0001:000912e0       ?Event_BecomeBroken@idDamagable@@IAEXPAVidEntity@@@Z 200922e0 f   Misc.obj
 0001:00091300       ?Event_RestoreDamagable@idDamagable@@IAEXXZ 20092300 f   Misc.obj
 0001:00091340       ?RegisterClassA@idExplodable@@SAXXZ 20092340 f   Misc.obj
 0001:000913d0       ?CreateInstance@idExplodable@@SAPAVidClass@@XZ 200923d0 f   Misc.obj
 0001:00091480       ?GetClassType@idExplodable@@SAAAVidTypeInfo@@XZ 20092480 f   Misc.obj
 0001:00091490       ?GetType@idExplodable@@UBEPAVidTypeInfo@@XZ 20092490 f   Misc.obj
 0001:000914a0       ?Spawn@idExplodable@@QAEXXZ 200924a0 f   Misc.obj
 0001:000914b0       ?Event_Explode@idExplodable@@AAEXPAVidEntity@@@Z 200924b0 f   Misc.obj
 0001:00091590       ?RegisterClassA@idSpring@@SAXXZ 20092590 f   Misc.obj
 0001:00091620       ?CreateInstance@idSpring@@SAPAVidClass@@XZ 20092620 f   Misc.obj
 0001:000916f0       ?GetClassType@idSpring@@SAAAVidTypeInfo@@XZ 200926f0 f   Misc.obj
 0001:00091700       ?GetType@idSpring@@UBEPAVidTypeInfo@@XZ 20092700 f   Misc.obj
 0001:00091710       ?Spawn@idSpring@@QAEXXZ    20092710 f   Misc.obj
 0001:00091860       ?Save@idSpring@@QBEXPAVidSaveGame@@@Z 20092860 f   Misc.obj
 0001:000918c0       ?Restore@idSpring@@QAEXPAVidRestoreGame@@@Z 200928c0 f   Misc.obj
 0001:00091920       ?Think@idSpring@@UAEXXZ    20092920 f   Misc.obj
 0001:00091d40       ?Event_LinkSpring@idSpring@@AAEXXZ 20092d40 f   Misc.obj
 0001:00092060       ?RegisterClassA@idForceField@@SAXXZ 20093060 f   Misc.obj
 0001:000920f0       ?CreateInstance@idForceField@@SAPAVidClass@@XZ 200930f0 f   Misc.obj
 0001:000921b0       ?GetClassType@idForceField@@SAAAVidTypeInfo@@XZ 200931b0 f   Misc.obj
 0001:000921c0       ?GetType@idForceField@@UBEPAVidTypeInfo@@XZ 200931c0 f   Misc.obj
 0001:000921d0       ?Save@idForceField@@QBEXPAVidSaveGame@@@Z 200931d0 f   Misc.obj
 0001:000921f0       ?Restore@idForceField@@QAEXPAVidRestoreGame@@@Z 200931f0 f   Misc.obj
 0001:00092210       ?Spawn@idForceField@@QAEXXZ 20093210 f   Misc.obj
 0001:00092490       ?Think@idForceField@@UAEXXZ 20093490 f   Misc.obj
 0001:000924c0       ?Toggle@idForceField@@AAEXXZ 200934c0 f   Misc.obj
 0001:000924e0       ?Event_Activate@idForceField@@AAEXPAVidEntity@@@Z 200934e0 f   Misc.obj
 0001:00092530       ?Event_Toggle@idForceField@@AAEXXZ 20093530 f   Misc.obj
 0001:00092540       ?Event_FindTargets@idForceField@@AAEXXZ 20093540 f   Misc.obj
 0001:00092600       ?RegisterClassA@rvJumpPad@@SAXXZ 20093600 f   Misc.obj
 0001:00092690       ?CreateInstance@rvJumpPad@@SAPAVidClass@@XZ 20093690 f   Misc.obj
 0001:00092730       ?GetClassType@rvJumpPad@@SAAAVidTypeInfo@@XZ 20093730 f   Misc.obj
 0001:00092740       ?GetType@rvJumpPad@@UBEPAVidTypeInfo@@XZ 20093740 f   Misc.obj
 0001:00092750       ??0rvJumpPad@@QAE@XZ       20093750 f   Misc.obj
 0001:000927b0       ?Spawn@rvJumpPad@@QAEXXZ   200937b0 f   Misc.obj
 0001:000927d0       ?Think@rvJumpPad@@UAEXXZ   200937d0 f   Misc.obj
 0001:00092910       ?Event_FindTargets@rvJumpPad@@AAEXXZ 20093910 f   Misc.obj
 0001:00092da0       ?ClientReceiveEvent@rvJumpPad@@EAE_NHHABVidBitMsg@@@Z 20093da0 f   Misc.obj
 0001:00092e40       ?RegisterClassA@idAnimated@@SAXXZ 20093e40 f   Misc.obj
 0001:00092ed0       ?CreateInstance@idAnimated@@SAPAVidClass@@XZ 20093ed0 f   Misc.obj
 0001:00092f70       ?GetClassType@idAnimated@@SAAAVidTypeInfo@@XZ 20093f70 f   Misc.obj
 0001:00092f80       ?GetType@idAnimated@@UBEPAVidTypeInfo@@XZ 20093f80 f   Misc.obj
 0001:00092f90       ??0idAnimated@@QAE@XZ      20093f90 f   Misc.obj
 0001:00093080       ??1idAnimated@@UAE@XZ      20094080 f   Misc.obj
 0001:00093140       ?Save@idAnimated@@QBEXPAVidSaveGame@@@Z 20094140 f   Misc.obj
 0001:00093200       ?Restore@idAnimated@@QAEXPAVidRestoreGame@@@Z 20094200 f   Misc.obj
 0001:000932c0       ?Spawn@idAnimated@@QAEXXZ  200942c0 f   Misc.obj
 0001:000937a0       ?LoadAF@idAnimated@@UAE_NPBD@Z 200947a0 f   Misc.obj
 0001:00093890       ?StartRagdoll@idAnimated@@QAE_NXZ 20094890 f   Misc.obj
 0001:00093900       ?GetPhysicsToSoundTransform@idAnimated@@UAE_NAAVidVec3@@AAVidMat3@@@Z 20094900 f   Misc.obj
 0001:00093980       ?Think@idAnimated@@UAEXXZ  20094980 f   Misc.obj
 0001:00093990       ?Damage@idAnimated@@UAEXPAVidEntity@@0ABVidVec3@@PBDMH@Z 20094990 f   Misc.obj
 0001:000939b0       ?ShouldConstructScriptObjectAtSpawn@idAnimated@@UBE_NXZ 200949b0 f   Misc.obj
 0001:000939c0       ?UpdateScript@idAnimated@@AAEXXZ 200949c0 f   Misc.obj
 0001:00093a60       ?SetState@idAnimated@@AAEXPBDH@Z 20094a60 f   Misc.obj
 0001:00093ae0       ?CallHandler@idAnimated@@AAEXPBD@Z 20094ae0 f   Misc.obj
 0001:00093b20       ?PlayNextAnim@idAnimated@@AAEXXZ 20094b20 f   Misc.obj
 0001:00093d90       ?Event_Activate@idAnimated@@AAEXPAVidEntity@@@Z 20094d90 f   Misc.obj
 0001:00093e40       ?Event_Start@idAnimated@@AAEXXZ 20094e40 f   Misc.obj
 0001:00093fa0       ?Event_StartRagdoll@idAnimated@@AAEXXZ 20094fa0 f   Misc.obj
 0001:00093fb0       ?Event_AnimDone@idAnimated@@AAEXH@Z 20094fb0 f   Misc.obj
 0001:000940d0       ?Event_Footstep@idAnimated@@AAEXXZ 200950d0 f   Misc.obj
 0001:000940f0       ?Event_LaunchMissiles@idAnimated@@AAEXPBD000HH@Z 200950f0 f   Misc.obj
 0001:00094250       ?Event_LaunchMissilesUpdate@idAnimated@@AAEXHHHH@Z 20095250 f   Misc.obj
 0001:000948c0       ?Event_SetAnimState@idAnimated@@AAEXPBDH@Z 200958c0 f   Misc.obj
 0001:00094930       ?Event_PlayAnim@idAnimated@@AAEXHPBD@Z 20095930 f   Misc.obj
 0001:00094a40       ?Event_PlayCycle@idAnimated@@AAEXHPBD@Z 20095a40 f   Misc.obj
 0001:00094b30       ?Event_AnimDone2@idAnimated@@AAEXHH@Z 20095b30 f   Misc.obj
 0001:00094b80       ?RegisterClassA@idStaticEntity@@SAXXZ 20095b80 f   Misc.obj
 0001:00094c10       ?CreateInstance@idStaticEntity@@SAPAVidClass@@XZ 20095c10 f   Misc.obj
 0001:00094cb0       ?GetClassType@idStaticEntity@@SAAAVidTypeInfo@@XZ 20095cb0 f   Misc.obj
 0001:00094cc0       ?GetType@idStaticEntity@@UBEPAVidTypeInfo@@XZ 20095cc0 f   Misc.obj
 0001:00094cd0       ??0idStaticEntity@@QAE@XZ  20095cd0 f   Misc.obj
 0001:00094d60       ?Save@idStaticEntity@@QBEXPAVidSaveGame@@@Z 20095d60 f   Misc.obj
 0001:00094de0       ?Restore@idStaticEntity@@QAEXPAVidRestoreGame@@@Z 20095de0 f   Misc.obj
 0001:00094e60       ?Spawn@idStaticEntity@@QAEXXZ 20095e60 f   Misc.obj
 0001:00095170       ?ShowEditingDialog@idStaticEntity@@UAEXXZ 20096170 f   Misc.obj
 0001:00095180       ?Hide@idStaticEntity@@UAEXXZ 20096180 f   Misc.obj
 0001:000951a0       ?Show@idStaticEntity@@UAEXXZ 200961a0 f   Misc.obj
 0001:000951f0       ?Fade@idStaticEntity@@QAEXABVidVec4@@M@Z 200961f0 f   Misc.obj
 0001:00095250       ?Think@idStaticEntity@@UAEXXZ 20096250 f   Misc.obj
 0001:00095420       ?WriteToSnapshot@idStaticEntity@@UBEXAAVidBitMsgDelta@@@Z 20096420 f   Misc.obj
 0001:00095470       ?ReadFromSnapshot@idStaticEntity@@UAEXABVidBitMsgDelta@@@Z 20096470 f   Misc.obj
 0001:000954e0       ?Event_Activate@idStaticEntity@@AAEXPAVidEntity@@@Z 200964e0 f   Misc.obj
 0001:000955f0       ?RegisterClassA@idFuncEmitter@@SAXXZ 200965f0 f   Misc.obj
 0001:00095680       ?CreateInstance@idFuncEmitter@@SAPAVidClass@@XZ 20096680 f   Misc.obj
 0001:00095720       ?GetClassType@idFuncEmitter@@SAAAVidTypeInfo@@XZ 20096720 f   Misc.obj
 0001:00095730       ?GetType@idFuncEmitter@@UBEPAVidTypeInfo@@XZ 20096730 f   Misc.obj
 0001:00095740       ??0idFuncEmitter@@QAE@XZ   20096740 f   Misc.obj
 0001:00095760       ?Save@idFuncEmitter@@QBEXPAVidSaveGame@@@Z 20096760 f   Misc.obj
 0001:00095780       ?Restore@idFuncEmitter@@QAEXPAVidRestoreGame@@@Z 20096780 f   Misc.obj
 0001:000957a0       ?Spawn@idFuncEmitter@@QAEXXZ 200967a0 f   Misc.obj
 0001:00095800       ?Event_Activate@idFuncEmitter@@QAEXPAVidEntity@@@Z 20096800 f   Misc.obj
 0001:000958b0       ?WriteToSnapshot@idFuncEmitter@@UBEXAAVidBitMsgDelta@@@Z 200968b0 f   Misc.obj
 0001:00095910       ?ReadFromSnapshot@idFuncEmitter@@UAEXABVidBitMsgDelta@@@Z 20096910 f   Misc.obj
 0001:00095980       ?RegisterClassA@idFuncSplat@@SAXXZ 20096980 f   Misc.obj
 0001:00095a10       ?CreateInstance@idFuncSplat@@SAPAVidClass@@XZ 20096a10 f   Misc.obj
 0001:00095ab0       ?GetClassType@idFuncSplat@@SAAAVidTypeInfo@@XZ 20096ab0 f   Misc.obj
 0001:00095ac0       ?GetType@idFuncSplat@@UBEPAVidTypeInfo@@XZ 20096ac0 f   Misc.obj
 0001:00095ad0       ??0idFuncSplat@@QAE@XZ     20096ad0 f   Misc.obj
 0001:00095af0       ?Spawn@idFuncSplat@@QAEXXZ 20096af0 f   Misc.obj
 0001:00095b00       ?Event_Activate@idFuncSplat@@AAEXPAVidEntity@@@Z 20096b00 f   Misc.obj
 0001:00095b60       ?Event_Splat@idFuncSplat@@AAEXXZ 20096b60 f   Misc.obj
 0001:00095ce0       ?RegisterClassA@idTextEntity@@SAXXZ 20096ce0 f   Misc.obj
 0001:00095d70       ?CreateInstance@idTextEntity@@SAPAVidClass@@XZ 20096d70 f   Misc.obj
 0001:00095e40       ?GetClassType@idTextEntity@@SAAAVidTypeInfo@@XZ 20096e40 f   Misc.obj
 0001:00095e50       ?GetType@idTextEntity@@UBEPAVidTypeInfo@@XZ 20096e50 f   Misc.obj
 0001:00095e60       ?Spawn@idTextEntity@@QAEXXZ 20096e60 f   Misc.obj
 0001:00095f10       ?Save@idTextEntity@@QBEXPAVidSaveGame@@@Z 20096f10 f   Misc.obj
 0001:00095f40       ?Restore@idTextEntity@@QAEXPAVidRestoreGame@@@Z 20096f40 f   Misc.obj
 0001:00095f70       ?Think@idTextEntity@@UAEXXZ 20096f70 f   Misc.obj
 0001:00096130       ?ClientPredictionThink@idTextEntity@@UAEXXZ 20097130 f   Misc.obj
 0001:000962f0       ?RegisterClassA@idLocationEntity@@SAXXZ 200972f0 f   Misc.obj
 0001:00096380       ?CreateInstance@idLocationEntity@@SAPAVidClass@@XZ 20097380 f   Misc.obj
 0001:00096430       ?GetClassType@idLocationEntity@@SAAAVidTypeInfo@@XZ 20097430 f   Misc.obj
 0001:00096440       ?GetType@idLocationEntity@@UBEPAVidTypeInfo@@XZ 20097440 f   Misc.obj
 0001:00096450       ?Spawn@idLocationEntity@@QAEXXZ 20097450 f   Misc.obj
 0001:00096510       ?GetLocation@idLocationEntity@@QBEPBDXZ 20097510 f   Misc.obj
 0001:00096530       ?RegisterClassA@idLocationSeparatorEntity@@SAXXZ 20097530 f   Misc.obj
 0001:000965c0       ?CreateInstance@idLocationSeparatorEntity@@SAPAVidClass@@XZ 200975c0 f   Misc.obj
 0001:00096670       ?GetClassType@idLocationSeparatorEntity@@SAAAVidTypeInfo@@XZ 20097670 f   Misc.obj
 0001:00096680       ?GetType@idLocationSeparatorEntity@@UBEPAVidTypeInfo@@XZ 20097680 f   Misc.obj
 0001:00096690       ?Spawn@idLocationSeparatorEntity@@QAEXXZ 20097690 f   Misc.obj
 0001:00096760       ?RegisterClassA@idVacuumSeparatorEntity@@SAXXZ 20097760 f   Misc.obj
 0001:000967f0       ?CreateInstance@idVacuumSeparatorEntity@@SAPAVidClass@@XZ 200977f0 f   Misc.obj
 0001:00096890       ?GetClassType@idVacuumSeparatorEntity@@SAAAVidTypeInfo@@XZ 20097890 f   Misc.obj
 0001:000968a0       ?GetType@idVacuumSeparatorEntity@@UBEPAVidTypeInfo@@XZ 200978a0 f   Misc.obj
 0001:000968b0       ??0idVacuumSeparatorEntity@@QAE@XZ 200978b0 f   Misc.obj
 0001:000968d0       ?Spawn@idVacuumSeparatorEntity@@QAEXXZ 200978d0 f   Misc.obj
 0001:000969b0       ?Save@idVacuumSeparatorEntity@@QBEXPAVidSaveGame@@@Z 200979b0 f   Misc.obj
 0001:000969f0       ?Restore@idVacuumSeparatorEntity@@QAEXPAVidRestoreGame@@@Z 200979f0 f   Misc.obj
 0001:00096a30       ?Event_Activate@idVacuumSeparatorEntity@@QAEXPAVidEntity@@@Z 20097a30 f   Misc.obj
 0001:00096a50       ?RegisterClassA@idVacuumEntity@@SAXXZ 20097a50 f   Misc.obj
 0001:00096ae0       ?CreateInstance@idVacuumEntity@@SAPAVidClass@@XZ 20097ae0 f   Misc.obj
 0001:00096b90       ?GetClassType@idVacuumEntity@@SAAAVidTypeInfo@@XZ 20097b90 f   Misc.obj
 0001:00096ba0       ?GetType@idVacuumEntity@@UBEPAVidTypeInfo@@XZ 20097ba0 f   Misc.obj
 0001:00096bb0       ?Spawn@idVacuumEntity@@QAEXXZ 20097bb0 f   Misc.obj
 0001:00096c10       ?RegisterClassA@rvGravitySeparatorEntity@@SAXXZ 20097c10 f   Misc.obj
 0001:00096ca0       ?CreateInstance@rvGravitySeparatorEntity@@SAPAVidClass@@XZ 20097ca0 f   Misc.obj
 0001:00096d40       ?GetClassType@rvGravitySeparatorEntity@@SAAAVidTypeInfo@@XZ 20097d40 f   Misc.obj
 0001:00096d50       ?GetType@rvGravitySeparatorEntity@@UBEPAVidTypeInfo@@XZ 20097d50 f   Misc.obj
 0001:00096d60       ??0rvGravitySeparatorEntity@@QAE@XZ 20097d60 f   Misc.obj
 0001:00096d80       ?Spawn@rvGravitySeparatorEntity@@QAEXXZ 20097d80 f   Misc.obj
 0001:00096e80       ?Save@rvGravitySeparatorEntity@@QBEXPAVidSaveGame@@@Z 20097e80 f   Misc.obj
 0001:00096ec0       ?Restore@rvGravitySeparatorEntity@@QAEXPAVidRestoreGame@@@Z 20097ec0 f   Misc.obj
 0001:00096f00       ?Event_Activate@rvGravitySeparatorEntity@@QAEXPAVidEntity@@@Z 20097f00 f   Misc.obj
 0001:00096f40       ?RegisterClassA@rvGravityArea@@SAXXZ 20097f40 f   Misc.obj
 0001:00096fd0       ?CreateInstance@rvGravityArea@@SAPAVidClass@@XZ 20097fd0 f   Misc.obj
 0001:00096ff0       ?GetClassType@rvGravityArea@@SAAAVidTypeInfo@@XZ 20097ff0 f   Misc.obj
 0001:00097000       ?GetType@rvGravityArea@@UBEPAVidTypeInfo@@XZ 20098000 f   Misc.obj
 0001:00097010       ?Spawn@rvGravityArea@@QAEXXZ 20098010 f   Misc.obj
 0001:00097060       ?Save@rvGravityArea@@QBEXPAVidSaveGame@@@Z 20098060 f   Misc.obj
 0001:00097080       ?Restore@rvGravityArea@@QAEXPAVidRestoreGame@@@Z 20098080 f   Misc.obj
 0001:000970a0       ?IsEqualTo@rvGravityArea@@QBE_NPBV1@@Z 200980a0 f   Misc.obj
 0001:000970d0       ??8rvGravityArea@@QBE_NPBV0@@Z 200980d0 f   Misc.obj
 0001:000970e0       ??8rvGravityArea@@QBE_NABV0@@Z 200980e0 f   Misc.obj
 0001:000970f0       ??9rvGravityArea@@QBE_NPBV0@@Z 200980f0 f   Misc.obj
 0001:00097110       ??9rvGravityArea@@QBE_NABV0@@Z 20098110 f   Misc.obj
 0001:00097130       ?RegisterClassA@rvGravityArea_Static@@SAXXZ 20098130 f   Misc.obj
 0001:000971c0       ?CreateInstance@rvGravityArea_Static@@SAPAVidClass@@XZ 200981c0 f   Misc.obj
 0001:00097270       ?GetClassType@rvGravityArea_Static@@SAAAVidTypeInfo@@XZ 20098270 f   Misc.obj
 0001:00097280       ?GetType@rvGravityArea_Static@@UBEPAVidTypeInfo@@XZ 20098280 f   Misc.obj
 0001:00097290       ?Spawn@rvGravityArea_Static@@QAEXXZ 20098290 f   Misc.obj
 0001:000972e0       ?Save@rvGravityArea_Static@@QBEXPAVidSaveGame@@@Z 200982e0 f   Misc.obj
 0001:00097300       ?Restore@rvGravityArea_Static@@QAEXPAVidRestoreGame@@@Z 20098300 f   Misc.obj
 0001:00097320       ?RegisterClassA@rvGravityArea_SurfaceNormal@@SAXXZ 20098320 f   Misc.obj
 0001:000973b0       ?CreateInstance@rvGravityArea_SurfaceNormal@@SAPAVidClass@@XZ 200983b0 f   Misc.obj
 0001:00097460       ?GetClassType@rvGravityArea_SurfaceNormal@@SAAAVidTypeInfo@@XZ 20098460 f   Misc.obj
 0001:00097470       ?GetType@rvGravityArea_SurfaceNormal@@UBEPAVidTypeInfo@@XZ 20098470 f   Misc.obj
 0001:00097480       ?GetGravity@rvGravityArea_SurfaceNormal@@UBE?BVidVec3@@ABV2@ABVidMat3@@HPAVidEntity@@@Z 20098480 f   Misc.obj
 0001:000975c0       ?GetGravity@rvGravityArea_SurfaceNormal@@UBE?BVidVec3@@PBVidEntity@@@Z 200985c0 f   Misc.obj
 0001:000975e0       ?GetGravity@rvGravityArea_SurfaceNormal@@UBE?BVidVec3@@PBVrvClientEntity@@@Z 200985e0 f   Misc.obj
 0001:00097610       ?GetGravity@rvGravityArea_SurfaceNormal@@MBE?BVidVec3@@PBVidPhysics@@@Z 20098610 f   Misc.obj
 0001:00097670       ?RegisterClassA@idBeam@@SAXXZ 20098670 f   Misc.obj
 0001:00097700       ?CreateInstance@idBeam@@SAPAVidClass@@XZ 20098700 f   Misc.obj
 0001:000977a0       ?GetClassType@idBeam@@SAAAVidTypeInfo@@XZ 200987a0 f   Misc.obj
 0001:000977b0       ?GetType@idBeam@@UBEPAVidTypeInfo@@XZ 200987b0 f   Misc.obj
 0001:000977c0       ??0idBeam@@QAE@XZ          200987c0 f   Misc.obj
 0001:00097800       ?Spawn@idBeam@@QAEXXZ      20098800 f   Misc.obj
 0001:00097860       ?Save@idBeam@@QBEXPAVidSaveGame@@@Z 20098860 f   Misc.obj
 0001:00097890       ?Restore@idBeam@@QAEXPAVidRestoreGame@@@Z 20098890 f   Misc.obj
 0001:000978c0       ?Think@idBeam@@UAEXXZ      200988c0 f   Misc.obj
 0001:00097950       ?SetMaster@idBeam@@QAEXPAV1@@Z 20098950 f   Misc.obj
 0001:00097980       ?SetBeamTarget@idBeam@@QAEXABVidVec3@@@Z 20098980 f   Misc.obj
 0001:000979f0       ?Show@idBeam@@UAEXXZ       200989f0 f   Misc.obj
 0001:00097a40       ?WriteToSnapshot@idBeam@@UBEXAAVidBitMsgDelta@@@Z 20098a40 f   Misc.obj
 0001:00097ac0       ?ReadFromSnapshot@idBeam@@UAEXABVidBitMsgDelta@@@Z 20098ac0 f   Misc.obj
 0001:00097b50       ?Event_MatchTarget@idBeam@@AAEXXZ 20098b50 f   Misc.obj
 0001:00097c40       ?Event_Activate@idBeam@@AAEXPAVidEntity@@@Z 20098c40 f   Misc.obj
 0001:00097c60       ?RegisterClassA@idLiquid@@SAXXZ 20098c60 f   Misc.obj
 0001:00097cf0       ?CreateInstance@idLiquid@@SAPAVidClass@@XZ 20098cf0 f   Misc.obj
 0001:00097da0       ?GetClassType@idLiquid@@SAAAVidTypeInfo@@XZ 20098da0 f   Misc.obj
 0001:00097db0       ?GetType@idLiquid@@UBEPAVidTypeInfo@@XZ 20098db0 f   Misc.obj
 0001:00097dc0       ?Spawn@idLiquid@@QAEXXZ    20098dc0 f   Misc.obj
 0001:00097dd0       ?Save@idLiquid@@QBEXPAVidSaveGame@@@Z 20098dd0 f   Misc.obj
 0001:00097de0       ?Restore@idLiquid@@QAEXPAVidRestoreGame@@@Z 20098de0 f   Misc.obj
 0001:00097df0       ?Event_Touch@idLiquid@@AAEXPAVidEntity@@PAUtrace_t@@@Z 20098df0 f   Misc.obj
 0001:00097e00       ?RegisterClassA@idShaking@@SAXXZ 20098e00 f   Misc.obj
 0001:00097e90       ?CreateInstance@idShaking@@SAPAVidClass@@XZ 20098e90 f   Misc.obj
 0001:00097f30       ?GetClassType@idShaking@@SAAAVidTypeInfo@@XZ 20098f30 f   Misc.obj
 0001:00097f40       ?GetType@idShaking@@UBEPAVidTypeInfo@@XZ 20098f40 f   Misc.obj
 0001:00097f50       ??0idShaking@@QAE@XZ       20098f50 f   Misc.obj
 0001:00097fb0       ??1idShaking@@UAE@XZ       20098fb0 f   Misc.obj
 0001:00098010       ?Spawn@idShaking@@QAEXXZ   20099010 f   Misc.obj
 0001:00098150       ?Save@idShaking@@QBEXPAVidSaveGame@@@Z 20099150 f   Misc.obj
 0001:00098180       ?Restore@idShaking@@QAEXPAVidRestoreGame@@@Z 20099180 f   Misc.obj
 0001:000981c0       ?BeginShaking@idShaking@@AAEXXZ 200991c0 f   Misc.obj
 0001:000982c0       ?Event_Activate@idShaking@@AAEXPAVidEntity@@@Z 200992c0 f   Misc.obj
 0001:00098320       ?RegisterClassA@idEarthQuake@@SAXXZ 20099320 f   Misc.obj
 0001:000983b0       ?CreateInstance@idEarthQuake@@SAPAVidClass@@XZ 200993b0 f   Misc.obj
 0001:00098450       ?GetClassType@idEarthQuake@@SAAAVidTypeInfo@@XZ 20099450 f   Misc.obj
 0001:00098460       ?GetType@idEarthQuake@@UBEPAVidTypeInfo@@XZ 20099460 f   Misc.obj
 0001:00098470       ??0idEarthQuake@@QAE@XZ    20099470 f   Misc.obj
 0001:000984d0       ?Spawn@idEarthQuake@@QAEXXZ 200994d0 f   Misc.obj
 0001:00098650       ?Save@idEarthQuake@@QBEXPAVidSaveGame@@@Z 20099650 f   Misc.obj
 0001:000986f0       ?Restore@idEarthQuake@@QAEXPAVidRestoreGame@@@Z 200996f0 f   Misc.obj
 0001:00098790       ?Think@idEarthQuake@@UAEXXZ 20099790 f   Misc.obj
 0001:00098860       ?AffectNearbyEntities@idEarthQuake@@IAEXM@Z 20099860 f   Misc.obj
 0001:00098a10       ?Event_Activate@idEarthQuake@@AAEXPAVidEntity@@@Z 20099a10 f   Misc.obj
 0001:00098cd0       ?RegisterClassA@idFuncPortal@@SAXXZ 20099cd0 f   Misc.obj
 0001:00098d60       ?CreateInstance@idFuncPortal@@SAPAVidClass@@XZ 20099d60 f   Misc.obj
 0001:00098e00       ?GetClassType@idFuncPortal@@SAAAVidTypeInfo@@XZ 20099e00 f   Misc.obj
 0001:00098e10       ?GetType@idFuncPortal@@UBEPAVidTypeInfo@@XZ 20099e10 f   Misc.obj
 0001:00098e20       ??0idFuncPortal@@QAE@XZ    20099e20 f   Misc.obj
 0001:00098e50       ?Spawn@idFuncPortal@@QAEXXZ 20099e50 f   Misc.obj
 0001:00098f40       ?Save@idFuncPortal@@QBEXPAVidSaveGame@@@Z 20099f40 f   Misc.obj
 0001:00098f70       ?Restore@idFuncPortal@@QAEXPAVidRestoreGame@@@Z 20099f70 f   Misc.obj
 0001:00098fc0       ?Event_Activate@idFuncPortal@@AAEXPAVidEntity@@@Z 20099fc0 f   Misc.obj
 0001:00099000       ?RegisterClassA@idFuncAASPortal@@SAXXZ 2009a000 f   Misc.obj
 0001:00099090       ?CreateInstance@idFuncAASPortal@@SAPAVidClass@@XZ 2009a090 f   Misc.obj
 0001:00099130       ?GetClassType@idFuncAASPortal@@SAAAVidTypeInfo@@XZ 2009a130 f   Misc.obj
 0001:00099140       ?GetType@idFuncAASPortal@@UBEPAVidTypeInfo@@XZ 2009a140 f   Misc.obj
 0001:00099150       ??0idFuncAASPortal@@QAE@XZ 2009a150 f   Misc.obj
 0001:00099170       ?Spawn@idFuncAASPortal@@QAEXXZ 2009a170 f   Misc.obj
 0001:000991d0       ?Save@idFuncAASPortal@@QBEXPAVidSaveGame@@@Z 2009a1d0 f   Misc.obj
 0001:000991f0       ?Restore@idFuncAASPortal@@QAEXPAVidRestoreGame@@@Z 2009a1f0 f   Misc.obj
 0001:00099230       ?Event_Activate@idFuncAASPortal@@AAEXPAVidEntity@@@Z 2009a230 f   Misc.obj
 0001:00099260       ?RegisterClassA@idFuncAASObstacle@@SAXXZ 2009a260 f   Misc.obj
 0001:000992f0       ?CreateInstance@idFuncAASObstacle@@SAPAVidClass@@XZ 2009a2f0 f   Misc.obj
 0001:00099390       ?GetClassType@idFuncAASObstacle@@SAAAVidTypeInfo@@XZ 2009a390 f   Misc.obj
 0001:000993a0       ?GetType@idFuncAASObstacle@@UBEPAVidTypeInfo@@XZ 2009a3a0 f   Misc.obj
 0001:000993b0       ??0idFuncAASObstacle@@QAE@XZ 2009a3b0 f   Misc.obj
 0001:000993d0       ?Spawn@idFuncAASObstacle@@QAEXXZ 2009a3d0 f   Misc.obj
 0001:00099430       ?Save@idFuncAASObstacle@@QBEXPAVidSaveGame@@@Z 2009a430 f   Misc.obj
 0001:00099450       ?Restore@idFuncAASObstacle@@QAEXPAVidRestoreGame@@@Z 2009a450 f   Misc.obj
 0001:00099490       ?SetState@idFuncAASObstacle@@QAEX_N@Z 2009a490 f   Misc.obj
 0001:000994c0       ?Event_Activate@idFuncAASObstacle@@AAEXPAVidEntity@@@Z 2009a4c0 f   Misc.obj
 0001:000994f0       ?RegisterClassA@idFuncRadioChatter@@SAXXZ 2009a4f0 f   Misc.obj
 0001:00099580       ?CreateInstance@idFuncRadioChatter@@SAPAVidClass@@XZ 2009a580 f   Misc.obj
 0001:00099620       ?GetClassType@idFuncRadioChatter@@SAAAVidTypeInfo@@XZ 2009a620 f   Misc.obj
 0001:00099630       ?GetType@idFuncRadioChatter@@UBEPAVidTypeInfo@@XZ 2009a630 f   Misc.obj
 0001:00099640       ??0idFuncRadioChatter@@QAE@XZ 2009a640 f   Misc.obj
 0001:00099670       ?Spawn@idFuncRadioChatter@@QAEXXZ 2009a670 f   Misc.obj
 0001:000996c0       ?Save@idFuncRadioChatter@@QBEXPAVidSaveGame@@@Z 2009a6c0 f   Misc.obj
 0001:00099710       ?Restore@idFuncRadioChatter@@QAEXPAVidRestoreGame@@@Z 2009a710 f   Misc.obj
 0001:00099750       ?RepeatLast@idFuncRadioChatter@@SAXXZ 2009a750 f   Misc.obj
 0001:000997b0       ?Event_Activate@idFuncRadioChatter@@AAEXPAVidEntity@@@Z 2009a7b0 f   Misc.obj
 0001:00099940       ?Event_ResetRadioHud@idFuncRadioChatter@@AAEXPAVidEntity@@@Z 2009a940 f   Misc.obj
 0001:000999a0       ?Event_IsActive@idFuncRadioChatter@@AAEXXZ 2009a9a0 f   Misc.obj
 0001:000999c0       ?RegisterClassA@idPhantomObjects@@SAXXZ 2009a9c0 f   Misc.obj
 0001:00099a50       ?CreateInstance@idPhantomObjects@@SAPAVidClass@@XZ 2009aa50 f   Misc.obj
 0001:00099af0       ?GetClassType@idPhantomObjects@@SAAAVidTypeInfo@@XZ 2009aaf0 f   Misc.obj
 0001:00099b00       ?GetType@idPhantomObjects@@UBEPAVidTypeInfo@@XZ 2009ab00 f   Misc.obj
 0001:00099b10       ??0idPhantomObjects@@QAE@XZ 2009ab10 f   Misc.obj
 0001:00099c10       ?Spawn@idPhantomObjects@@QAEXXZ 2009ac10 f   Misc.obj
 0001:00099dc0       ?Save@idPhantomObjects@@QBEXPAVidSaveGame@@@Z 2009adc0 f   Misc.obj
 0001:00099ec0       ?Restore@idPhantomObjects@@QAEXPAVidRestoreGame@@@Z 2009aec0 f   Misc.obj
 0001:0009a490       ?Think@idPhantomObjects@@UAEXXZ 2009b490 f   Misc.obj
 0001:0009a8d0       ?Event_Activate@idPhantomObjects@@AAEXPAVidEntity@@@Z 2009b8d0 f   Misc.obj
 0001:0009ad90       ?RegisterClassA@rvFuncSaveGame@@SAXXZ 2009bd90 f   Misc.obj
 0001:0009ae20       ?CreateInstance@rvFuncSaveGame@@SAPAVidClass@@XZ 2009be20 f   Misc.obj
 0001:0009aed0       ?GetClassType@rvFuncSaveGame@@SAAAVidTypeInfo@@XZ 2009bed0 f   Misc.obj
 0001:0009aee0       ?GetType@rvFuncSaveGame@@UBEPAVidTypeInfo@@XZ 2009bee0 f   Misc.obj
 0001:0009aef0       ?Spawn@rvFuncSaveGame@@QAEXXZ 2009bef0 f   Misc.obj
 0001:0009af00       ?Event_Activate@rvFuncSaveGame@@QAEXPAVidEntity@@@Z 2009bf00 f   Misc.obj
 0001:0009af20       ?Register_idSpawnableEntity@@YAXXZ 2009bf20 f   Misc.obj
 0001:0009af30       ?Register_idPlayerStart@@YAXXZ 2009bf30 f   Misc.obj
 0001:0009af40       ?Register_idActivator@@YAXXZ 2009bf40 f   Misc.obj
 0001:0009af50       ?Register_idPathCorner@@YAXXZ 2009bf50 f   Misc.obj
 0001:0009af60       ?Register_idDamagable@@YAXXZ 2009bf60 f   Misc.obj
 0001:0009af70       ?Register_idExplodable@@YAXXZ 2009bf70 f   Misc.obj
 0001:0009af80       ?Register_idSpring@@YAXXZ  2009bf80 f   Misc.obj
 0001:0009af90       ?Register_idForceField@@YAXXZ 2009bf90 f   Misc.obj
 0001:0009afa0       ?Register_rvJumpPad@@YAXXZ 2009bfa0 f   Misc.obj
 0001:0009afb0       ?Register_idAnimated@@YAXXZ 2009bfb0 f   Misc.obj
 0001:0009afc0       ?Register_idStaticEntity@@YAXXZ 2009bfc0 f   Misc.obj
 0001:0009afd0       ?Register_idFuncEmitter@@YAXXZ 2009bfd0 f   Misc.obj
 0001:0009afe0       ?Register_idFuncSplat@@YAXXZ 2009bfe0 f   Misc.obj
 0001:0009aff0       ?Register_idTextEntity@@YAXXZ 2009bff0 f   Misc.obj
 0001:0009b000       ?Register_idVacuumSeparatorEntity@@YAXXZ 2009c000 f   Misc.obj
 0001:0009b010       ?Register_idLocationSeparatorEntity@@YAXXZ 2009c010 f   Misc.obj
 0001:0009b020       ?Register_idVacuumEntity@@YAXXZ 2009c020 f   Misc.obj
 0001:0009b030       ?Register_rvGravitySeparatorEntity@@YAXXZ 2009c030 f   Misc.obj
 0001:0009b040       ?Register_rvGravityArea@@YAXXZ 2009c040 f   Misc.obj
 0001:0009b050       ?Register_rvGravityArea_Static@@YAXXZ 2009c050 f   Misc.obj
 0001:0009b060       ?Register_rvGravityArea_SurfaceNormal@@YAXXZ 2009c060 f   Misc.obj
 0001:0009b070       ?Register_idLocationEntity@@YAXXZ 2009c070 f   Misc.obj
 0001:0009b080       ?Register_idBeam@@YAXXZ    2009c080 f   Misc.obj
 0001:0009b090       ?Register_idLiquid@@YAXXZ  2009c090 f   Misc.obj
 0001:0009b0a0       ?Register_idShaking@@YAXXZ 2009c0a0 f   Misc.obj
 0001:0009b0b0       ?Register_idEarthQuake@@YAXXZ 2009c0b0 f   Misc.obj
 0001:0009b0c0       ?Register_idFuncPortal@@YAXXZ 2009c0c0 f   Misc.obj
 0001:0009b0d0       ?Register_idFuncAASPortal@@YAXXZ 2009c0d0 f   Misc.obj
 0001:0009b0e0       ?Register_idFuncAASObstacle@@YAXXZ 2009c0e0 f   Misc.obj
 0001:0009b0f0       ?Register_idFuncRadioChatter@@YAXXZ 2009c0f0 f   Misc.obj
 0001:0009b100       ?Register_idPhantomObjects@@YAXXZ 2009c100 f   Misc.obj
 0001:0009b110       ?Register_rvDebugJumpPoint@@YAXXZ 2009c110 f   Misc.obj
 0001:0009b120       ?Register_rvFuncSaveGame@@YAXXZ 2009c120 f   Misc.obj
 0001:0009b130       ??1idPhantomObjects@@UAE@XZ 2009c130 f i Misc.obj
 0001:0009b220       ??_GidAnimated@@UAEPAXI@Z  2009c220 f i Misc.obj
 0001:0009b220       ??_EidAnimated@@UAEPAXI@Z  2009c220 f i Misc.obj
 0001:0009b250       ??_ErvJumpPad@@UAEPAXI@Z   2009c250 f i Misc.obj
 0001:0009b250       ??_GrvJumpPad@@UAEPAXI@Z   2009c250 f i Misc.obj
 0001:0009b250       ??_GidForceField@@UAEPAXI@Z 2009c250 f i Misc.obj
 0001:0009b250       ??_EidForceField@@UAEPAXI@Z 2009c250 f i Misc.obj
 0001:0009b2c0       ??_GidTarget_LevelTrigger@@UAEPAXI@Z 2009c2c0 f i Target.obj
 0001:0009b2c0       ??_GidEarthQuake@@UAEPAXI@Z 2009c2c0 f i Misc.obj
 0001:0009b2c0       ??_GrvAIAvoid@@UAEPAXI@Z   2009c2c0 f i AI_Util.obj
 0001:0009b2c0       ??_ErvDebugJumpPoint@@UAEPAXI@Z 2009c2c0 f i Misc.obj
 0001:0009b2c0       ??_EidActivator@@UAEPAXI@Z 2009c2c0 f i Misc.obj
 0001:0009b2c0       ??_GidTarget_GiveEmail@@UAEPAXI@Z 2009c2c0 f i Target.obj
 0001:0009b2c0       ??_GidTarget_SetGlobalShaderTime@@UAEPAXI@Z 2009c2c0 f i Target.obj
 0001:0009b2c0       ??_EidVacuumSeparatorEntity@@UAEPAXI@Z 2009c2c0 f i Misc.obj
 0001:0009b2c0       ??_EidTarget_Show@@UAEPAXI@Z 2009c2c0 f i Target.obj
 0001:0009b2c0       ??_GidTarget_CallObjectFunction@@UAEPAXI@Z 2009c2c0 f i Target.obj
 0001:0009b2c0       ??_GidTarget_SetModel@@UAEPAXI@Z 2009c2c0 f i Target.obj
 0001:0009b2c0       ??_GidTarget@@UAEPAXI@Z    2009c2c0 f i Target.obj
 0001:0009b2c0       ??_EidFuncAASObstacle@@UAEPAXI@Z 2009c2c0 f i Misc.obj
 0001:0009b2c0       ??_ErvClientPhysics@@UAEPAXI@Z 2009c2c0 f i ClientEntity.obj
 0001:0009b2c0       ??_GidTarget_Give@@UAEPAXI@Z 2009c2c0 f i Target.obj
 0001:0009b2c0       ??_ErvTarget_Nailable@@UAEPAXI@Z 2009c2c0 f i Target.obj
 0001:0009b2c0       ??_EidSound@@UAEPAXI@Z     2009c2c0 f i Sound.obj
 0001:0009b2c0       ??_EidTarget_Give@@UAEPAXI@Z 2009c2c0 f i Target.obj
 0001:0009b2c0       ??_EidTarget_EndLevel@@UAEPAXI@Z 2009c2c0 f i Target.obj
 0001:0009b2c0       ??_GrvFuncSaveGame@@UAEPAXI@Z 2009c2c0 f i Misc.obj
 0001:0009b2c0       ??_EidEarthQuake@@UAEPAXI@Z 2009c2c0 f i Misc.obj
 0001:0009b2c0       ??_EidTarget_SetGlobalShaderTime@@UAEPAXI@Z 2009c2c0 f i Target.obj
 0001:0009b2c0       ??_EidEntity@@UAEPAXI@Z    2009c2c0 f i Entity.obj
 0001:0009b2c0       ??_ErvCTFAssaultPlayerStart@@UAEPAXI@Z 2009c2c0 f i CTF.obj
 0001:0009b2c0       ??_GidTarget_SetPrimaryObjective@@UAEPAXI@Z 2009c2c0 f i Target.obj
 0001:0009b2c0       ??_EidTarget_SetKeyVal@@UAEPAXI@Z 2009c2c0 f i Target.obj
 0001:0009b2c0       ??_GrvTarget_Nailable@@UAEPAXI@Z 2009c2c0 f i Target.obj
 0001:0009b2c0       ??_GidBeam@@UAEPAXI@Z      2009c2c0 f i Misc.obj
 0001:0009b2c0       ??_GidTarget_Tip@@UAEPAXI@Z 2009c2c0 f i Target.obj
 0001:0009b2c0       ??_EidTarget_Tip@@UAEPAXI@Z 2009c2c0 f i Target.obj
 0001:0009b2c0       ??_GidFuncPortal@@UAEPAXI@Z 2009c2c0 f i Misc.obj
 0001:0009b2c0       ??_GidFuncAASObstacle@@UAEPAXI@Z 2009c2c0 f i Misc.obj
 0001:0009b2c0       ??_EidTarget_LightFadeOut@@UAEPAXI@Z 2009c2c0 f i Target.obj
 0001:0009b2c0       ??_GrvEffect@@UAEPAXI@Z    2009c2c0 f i Effect.obj
 0001:0009b2c0       ??_EidTarget_LevelTrigger@@UAEPAXI@Z 2009c2c0 f i Target.obj
 0001:0009b2c0       ??_GidSound@@UAEPAXI@Z     2009c2c0 f i Sound.obj
 0001:0009b2c0       ??_EidVacuumEntity@@UAEPAXI@Z 2009c2c0 f i Misc.obj
 0001:0009b2c0       ??_EidTarget_SetShaderTime@@UAEPAXI@Z 2009c2c0 f i Target.obj
 0001:0009b2c0       ??_EidTarget_LightFadeIn@@UAEPAXI@Z 2009c2c0 f i Target.obj
 0001:0009b2c0       ??_GrvTarget_SecretArea@@UAEPAXI@Z 2009c2c0 f i Target.obj
 0001:0009b2c0       ??_GrvConveyor@@UAEPAXI@Z  2009c2c0 f i Mover.obj
 0001:0009b2c0       ??_GrvGravityArea_Static@@UAEPAXI@Z 2009c2c0 f i Misc.obj
 0001:0009b2c0       ??_GidTarget_SessionCommand@@UAEPAXI@Z 2009c2c0 f i Target.obj
 0001:0009b2c0       ??_ErvFuncSaveGame@@UAEPAXI@Z 2009c2c0 f i Misc.obj
 0001:0009b2c0       ??_GidTarget_LockDoor@@UAEPAXI@Z 2009c2c0 f i Target.obj
 0001:0009b2c0       ??_GidActivator@@UAEPAXI@Z 2009c2c0 f i Misc.obj
 0001:0009b2c0       ??_GrvTarget_LaunchProjectile@@UAEPAXI@Z 2009c2c0 f i Target.obj
 0001:0009b2c0       ??_ErvTarget_TetherAI@@UAEPAXI@Z 2009c2c0 f i Target.obj
 0001:0009b2c0       ??_EidTarget_Damage@@UAEPAXI@Z 2009c2c0 f i Target.obj
 0001:0009b2c0       ??_GidTarget_EnableStamina@@UAEPAXI@Z 2009c2c0 f i Target.obj
 0001:0009b2c0       ??_GidTarget_Remove@@UAEPAXI@Z 2009c2c0 f i Target.obj
 0001:0009b2c0       ??_EidSpawnableEntity@@UAEPAXI@Z 2009c2c0 f i Misc.obj
 0001:0009b2c0       ??_GidLiquid@@UAEPAXI@Z    2009c2c0 f i Misc.obj
 0001:0009b2c0       ??_EidPlayerStart@@UAEPAXI@Z 2009c2c0 f i Misc.obj
 0001:0009b2c0       ??_GidTarget_WaitForButton@@UAEPAXI@Z 2009c2c0 f i Target.obj
 0001:0009b2c0       ??_GidFuncSplat@@UAEPAXI@Z 2009c2c0 f i Misc.obj
 0001:0009b2c0       ??_GrvObjectiveFailed@@UAEPAXI@Z 2009c2c0 f i Item.obj
 0001:0009b2c0       ??_GrvDebugJumpPoint@@UAEPAXI@Z 2009c2c0 f i Misc.obj
 0001:0009b2c0       ??_EidLocationEntity@@UAEPAXI@Z 2009c2c0 f i Misc.obj
 0001:0009b2c0       ??_GidObjectiveComplete@@UAEPAXI@Z 2009c2c0 f i Item.obj
 0001:0009b2c0       ??_ErvConveyor@@UAEPAXI@Z  2009c2c0 f i Mover.obj
 0001:0009b2c0       ??_ErvGravitySeparatorEntity@@UAEPAXI@Z 2009c2c0 f i Misc.obj
 0001:0009b2c0       ??_GidLocationEntity@@UAEPAXI@Z 2009c2c0 f i Misc.obj
 0001:0009b2c0       ??_GidEntity@@UAEPAXI@Z    2009c2c0 f i Entity.obj
 0001:0009b2c0       ??_EidTarget_WaitForButton@@UAEPAXI@Z 2009c2c0 f i Target.obj
 0001:0009b2c0       ??_EidFuncEmitter@@UAEPAXI@Z 2009c2c0 f i Misc.obj
 0001:0009b2c0       ??_ErvTarget_ExitAreaAlert@@UAEPAXI@Z 2009c2c0 f i Target.obj
 0001:0009b2c0       ??_GidTarget_SetKeyVal@@UAEPAXI@Z 2009c2c0 f i Target.obj
 0001:0009b2c0       ??_EidFuncAASPortal@@UAEPAXI@Z 2009c2c0 f i Misc.obj
 0001:0009b2c0       ??_ErvTarget_BossBattle@@UAEPAXI@Z 2009c2c0 f i Target.obj
 0001:0009b2c0       ??_ErvAIAvoid@@UAEPAXI@Z   2009c2c0 f i AI_Util.obj
 0001:0009b2c0       ??_ErvTarget_SecretArea@@UAEPAXI@Z 2009c2c0 f i Target.obj
 0001:0009b2c0       ??_EidTarget_GiveSecurity@@UAEPAXI@Z 2009c2c0 f i Target.obj
 0001:0009b2c0       ??_GrvAFAttractor@@UAEPAXI@Z 2009c2c0 f i AFEntity.obj
 0001:0009b2c0       ??_EidTarget_SessionCommand@@UAEPAXI@Z 2009c2c0 f i Target.obj
 0001:0009b2c0       ??_EidTarget_FadeEntity@@UAEPAXI@Z 2009c2c0 f i Target.obj
 0001:0009b2c0       ??_EidTarget_SetShaderParm@@UAEPAXI@Z 2009c2c0 f i Target.obj
 0001:0009b2c0       ??_GidVacuumSeparatorEntity@@UAEPAXI@Z 2009c2c0 f i Misc.obj
 0001:0009b2c0       ??_EidFuncSplat@@UAEPAXI@Z 2009c2c0 f i Misc.obj
 0001:0009b2c0       ??_EidBeam@@UAEPAXI@Z      2009c2c0 f i Misc.obj
 0001:0009b2c0       ??_GidFuncRadioChatter@@UAEPAXI@Z 2009c2c0 f i Misc.obj
 0001:0009b2c0       ??_GidTarget_GiveSecurity@@UAEPAXI@Z 2009c2c0 f i Target.obj
 0001:0009b2c0       ??_GidFuncAASPortal@@UAEPAXI@Z 2009c2c0 f i Misc.obj
 0001:0009b2c0       ??_EidTarget_RemoveWeapons@@UAEPAXI@Z 2009c2c0 f i Target.obj
 0001:0009b2c0       ??_ErvObjectiveFailed@@UAEPAXI@Z 2009c2c0 f i Item.obj
 0001:0009b2c0       ??_EidTarget_SetPrimaryObjective@@UAEPAXI@Z 2009c2c0 f i Target.obj
 0001:0009b2c0       ??_ErvAIBecomeAggressive@@UAEPAXI@Z 2009c2c0 f i AI_Util.obj
 0001:0009b2c0       ??_GidPathCorner@@UAEPAXI@Z 2009c2c0 f i Misc.obj
 0001:0009b2c0       ??_EidTarget_EnableLevelWeapons@@UAEPAXI@Z 2009c2c0 f i Target.obj
 0001:0009b2c0       ??_EidTarget_GiveEmail@@UAEPAXI@Z 2009c2c0 f i Target.obj
 0001:0009b2c0       ??_GidTarget_LightFadeIn@@UAEPAXI@Z 2009c2c0 f i Target.obj
 0001:0009b2c0       ??_GrvAIBecomeAggressive@@UAEPAXI@Z 2009c2c0 f i AI_Util.obj
 0001:0009b2c0       ??_EidPathCorner@@UAEPAXI@Z 2009c2c0 f i Misc.obj
 0001:0009b2c0       ??_GidStaticEntity@@UAEPAXI@Z 2009c2c0 f i Misc.obj
 0001:0009b2c0       ??_EidDamagable@@UAEPAXI@Z 2009c2c0 f i Misc.obj
 0001:0009b2c0       ??_GidExplodable@@UAEPAXI@Z 2009c2c0 f i Misc.obj
 0001:0009b2c0       ??_GidTarget_SetShaderTime@@UAEPAXI@Z 2009c2c0 f i Target.obj
 0001:0009b2c0       ??_EidTarget_SetModel@@UAEPAXI@Z 2009c2c0 f i Target.obj
 0001:0009b2c0       ??_ErvAFAttractor@@UAEPAXI@Z 2009c2c0 f i AFEntity.obj
 0001:0009b2c0       ??_GidTarget_LightFadeOut@@UAEPAXI@Z 2009c2c0 f i Target.obj
 0001:0009b2c0       ??_EidTarget_EnableStamina@@UAEPAXI@Z 2009c2c0 f i Target.obj
 0001:0009b2c0       ??_EidExplodable@@UAEPAXI@Z 2009c2c0 f i Misc.obj
 0001:0009b2c0       ??_EidTarget@@UAEPAXI@Z    2009c2c0 f i Target.obj
 0001:0009b2c0       ??_GidPlayerStart@@UAEPAXI@Z 2009c2c0 f i Misc.obj
 0001:0009b2c0       ??_GidTarget_FadeSoundClass@@UAEPAXI@Z 2009c2c0 f i Target.obj
 0001:0009b2c0       ??_ErvGravityArea_SurfaceNormal@@UAEPAXI@Z 2009c2c0 f i Misc.obj
 0001:0009b2c0       ??_GrvCTFAssaultPlayerStart@@UAEPAXI@Z 2009c2c0 f i CTF.obj
 0001:0009b2c0       ??_GidTarget_Show@@UAEPAXI@Z 2009c2c0 f i Target.obj
 0001:0009b2c0       ??_EidFuncRadioChatter@@UAEPAXI@Z 2009c2c0 f i Misc.obj
 0001:0009b2c0       ??_GidFuncEmitter@@UAEPAXI@Z 2009c2c0 f i Misc.obj
 0001:0009b2c0       ??_EidStaticEntity@@UAEPAXI@Z 2009c2c0 f i Misc.obj
 0001:0009b2c0       ??_GidVacuumEntity@@UAEPAXI@Z 2009c2c0 f i Misc.obj
 0001:0009b2c0       ??_GidTarget_FadeEntity@@UAEPAXI@Z 2009c2c0 f i Target.obj
 0001:0009b2c0       ??_ErvGravityArea_Static@@UAEPAXI@Z 2009c2c0 f i Misc.obj
 0001:0009b2c0       ??_ErvEffect@@UAEPAXI@Z    2009c2c0 f i Effect.obj
 0001:0009b2c0       ??_EidItemRemover@@UAEPAXI@Z 2009c2c0 f i Item.obj
 0001:0009b2c0       ??_GidTarget_RemoveWeapons@@UAEPAXI@Z 2009c2c0 f i Target.obj
 0001:0009b2c0       ??_GrvTarget_BossBattle@@UAEPAXI@Z 2009c2c0 f i Target.obj
 0001:0009b2c0       ??_GrvAIBecomePassive@@UAEPAXI@Z 2009c2c0 f i AI_Util.obj
 0001:0009b2c0       ??_GrvGravityArea_SurfaceNormal@@UAEPAXI@Z 2009c2c0 f i Misc.obj
 0001:0009b2c0       ??_GidItemRemover@@UAEPAXI@Z 2009c2c0 f i Item.obj
 0001:0009b2c0       ??_GidTarget_EndLevel@@UAEPAXI@Z 2009c2c0 f i Target.obj
 0001:0009b2c0       ??_GrvGravitySeparatorEntity@@UAEPAXI@Z 2009c2c0 f i Misc.obj
 0001:0009b2c0       ??_GidSpawnableEntity@@UAEPAXI@Z 2009c2c0 f i Misc.obj
 0001:0009b2c0       ??_EidFuncPortal@@UAEPAXI@Z 2009c2c0 f i Misc.obj
 0001:0009b2c0       ??_GidTarget_Damage@@UAEPAXI@Z 2009c2c0 f i Target.obj
 0001:0009b2c0       ??_EidTarget_CallObjectFunction@@UAEPAXI@Z 2009c2c0 f i Target.obj
 0001:0009b2c0       ??_EidTarget_Remove@@UAEPAXI@Z 2009c2c0 f i Target.obj
 0001:0009b2c0       ??_GidLocationSeparatorEntity@@UAEPAXI@Z 2009c2c0 f i Misc.obj
 0001:0009b2c0       ??_ErvAIBecomePassive@@UAEPAXI@Z 2009c2c0 f i AI_Util.obj
 0001:0009b2c0       ??_GrvClientPhysics@@UAEPAXI@Z 2009c2c0 f i ClientEntity.obj
 0001:0009b2c0       ??_ErvTarget_LaunchProjectile@@UAEPAXI@Z 2009c2c0 f i Target.obj
 0001:0009b2c0       ??_EidObjectiveComplete@@UAEPAXI@Z 2009c2c0 f i Item.obj
 0001:0009b2c0       ??_GrvTarget_ExitAreaAlert@@UAEPAXI@Z 2009c2c0 f i Target.obj
 0001:0009b2c0       ??_EidTarget_LockDoor@@UAEPAXI@Z 2009c2c0 f i Target.obj
 0001:0009b2c0       ??_EidLocationSeparatorEntity@@UAEPAXI@Z 2009c2c0 f i Misc.obj
 0001:0009b2c0       ??_GidTarget_SetShaderParm@@UAEPAXI@Z 2009c2c0 f i Target.obj
 0001:0009b2c0       ??_GidTarget_EnableLevelWeapons@@UAEPAXI@Z 2009c2c0 f i Target.obj
 0001:0009b2c0       ??_GidDamagable@@UAEPAXI@Z 2009c2c0 f i Misc.obj
 0001:0009b2c0       ??_GrvTarget_TetherAI@@UAEPAXI@Z 2009c2c0 f i Target.obj
 0001:0009b2c0       ??_EidTarget_FadeSoundClass@@UAEPAXI@Z 2009c2c0 f i Target.obj
 0001:0009b2c0       ??_EidLiquid@@UAEPAXI@Z    2009c2c0 f i Misc.obj
 0001:0009b2f0       ??_GidPhantomObjects@@UAEPAXI@Z 2009c2f0 f i Misc.obj
 0001:0009b2f0       ??_EidPhantomObjects@@UAEPAXI@Z 2009c2f0 f i Misc.obj
 0001:0009b320       ??_EidShaking@@UAEPAXI@Z   2009c320 f i Misc.obj
 0001:0009b320       ??_GidShaking@@UAEPAXI@Z   2009c320 f i Misc.obj
 0001:0009b350       ??_GidSpring@@UAEPAXI@Z    2009c350 f i Misc.obj
 0001:0009b350       ??_EidSpring@@UAEPAXI@Z    2009c350 f i Misc.obj
 0001:0009b3c0       ??_GidTextEntity@@UAEPAXI@Z 2009c3c0 f i Misc.obj
 0001:0009b3c0       ??_EidTextEntity@@UAEPAXI@Z 2009c3c0 f i Misc.obj
 0001:0009b430       ?GetArea@rvGravityArea@@UBEHXZ 2009c430 f i Misc.obj
 0001:0009b440       ?GetGravity@rvGravityArea_Static@@UBE?BVidVec3@@ABV2@ABVidMat3@@HPAVidEntity@@@Z 2009c440 f i Misc.obj
 0001:0009b460       ?GetGravity@rvGravityArea_Static@@UBE?BVidVec3@@PBVidEntity@@@Z 2009c460 f i Misc.obj
 0001:0009b460       ?GetGravity@rvGravityArea_Static@@UBE?BVidVec3@@PBVrvClientEntity@@@Z 2009c460 f i Misc.obj
 0001:0009b480       ?RegisterClassA@idMoveable@@SAXXZ 2009c480 f   Moveable.obj
 0001:0009b510       ?CreateInstance@idMoveable@@SAPAVidClass@@XZ 2009c510 f   Moveable.obj
 0001:0009b5b0       ?GetClassType@idMoveable@@SAAAVidTypeInfo@@XZ 2009c5b0 f   Moveable.obj
 0001:0009b5c0       ?GetType@idMoveable@@UBEPAVidTypeInfo@@XZ 2009c5c0 f   Moveable.obj
 0001:0009b5d0       ??0idMoveable@@QAE@XZ      2009c5d0 f   Moveable.obj
 0001:0009b6e0       ??1idMoveable@@UAE@XZ      2009c6e0 f   Moveable.obj
 0001:0009b780       ?Spawn@idMoveable@@QAEXXZ  2009c780 f   Moveable.obj
 0001:0009bfa0       ?Save@idMoveable@@QBEXPAVidSaveGame@@@Z 2009cfa0 f   Moveable.obj
 0001:0009c080       ?Restore@idMoveable@@QAEXPAVidRestoreGame@@@Z 2009d080 f   Moveable.obj
 0001:0009c160       ?Think@idMoveable@@UAEXXZ  2009d160 f   Moveable.obj
 0001:0009c1a0       ?Hide@idMoveable@@UAEXXZ   2009d1a0 f   Moveable.obj
 0001:0009c1c0       ?Show@idMoveable@@UAEXXZ   2009d1c0 f   Moveable.obj
 0001:0009c210       ?AllowStep@idMoveable@@QBE_NXZ 2009d210 f   Moveable.obj
 0001:0009c220       ?EnableDamage@idMoveable@@QAEX_NM@Z 2009d220 f   Moveable.obj
 0001:0009c280       ?Collide@idMoveable@@UAE_NABUtrace_t@@ABVidVec3@@@Z 2009d280 f   Moveable.obj
 0001:0009c4f0       ?Damage@idMoveable@@UAEXPAVidEntity@@0ABVidVec3@@PBDMH@Z 2009d4f0 f   Moveable.obj
 0001:0009c550       ?Killed@idMoveable@@UAEXPAVidEntity@@0HABVidVec3@@H@Z 2009d550 f   Moveable.obj
 0001:0009c560       ?WriteToSnapshot@idMoveable@@UBEXAAVidBitMsgDelta@@@Z 2009d560 f   Moveable.obj
 0001:0009c580       ?ReadFromSnapshot@idMoveable@@UAEXABVidBitMsgDelta@@@Z 2009d580 f   Moveable.obj
 0001:0009c5b0       ?AddDamageEffect@idMoveable@@UAEXABUtrace_t@@ABVidVec3@@PBDPAVidEntity@@@Z 2009d5b0 f   Moveable.obj
 0001:0009c610       ?ExecuteStage@idMoveable@@MAEXXZ 2009d610 f   Moveable.obj
 0001:0009c6c0       ?GetRenderModelMaterial@idMoveable@@IBEPBVidMaterial@@XZ 2009d6c0 f   Moveable.obj
 0001:0009c700       ?BecomeNonSolid@idMoveable@@IAEXXZ 2009d700 f   Moveable.obj
 0001:0009c730       ?InitInitialSpline@idMoveable@@IAEXH@Z 2009d730 f   Moveable.obj
 0001:0009ca20       ?FollowInitialSplinePath@idMoveable@@IAE_NXZ 2009da20 f   Moveable.obj
 0001:0009ce70       ?Event_Activate@idMoveable@@IAEXPAVidEntity@@@Z 2009de70 f   Moveable.obj
 0001:0009cff0       ?Event_BecomeNonSolid@idMoveable@@IAEXXZ 2009dff0 f   Moveable.obj
 0001:0009d000       ?Event_SetOwnerFromSpawnArgs@idMoveable@@IAEXXZ 2009e000 f   Moveable.obj
 0001:0009d0e0       ?Event_IsAtRest@idMoveable@@IAEXXZ 2009e0e0 f   Moveable.obj
 0001:0009d100       ?Event_CanDamage@idMoveable@@IAEXM@Z 2009e100 f   Moveable.obj
 0001:0009d130       ?Event_SetHealth@idMoveable@@IAEXM@Z 2009e130 f   Moveable.obj
 0001:0009d150       ?Event_RadiusDamage@idMoveable@@IAEXPAVidEntity@@PBD@Z 2009e150 f   Moveable.obj
 0001:0009d190       ?RegisterClassA@idBarrel@@SAXXZ 2009e190 f   Moveable.obj
 0001:0009d220       ?CreateInstance@idBarrel@@SAPAVidClass@@XZ 2009e220 f   Moveable.obj
 0001:0009d2c0       ?GetClassType@idBarrel@@SAAAVidTypeInfo@@XZ 2009e2c0 f   Moveable.obj
 0001:0009d2d0       ?GetType@idBarrel@@UBEPAVidTypeInfo@@XZ 2009e2d0 f   Moveable.obj
 0001:0009d2e0       ??0idBarrel@@QAE@XZ        2009e2e0 f   Moveable.obj
 0001:0009d460       ?Spawn@idBarrel@@QAEXXZ    2009e460 f   Moveable.obj
 0001:0009d5c0       ?Save@idBarrel@@QBEXPAVidSaveGame@@@Z 2009e5c0 f   Moveable.obj
 0001:0009d640       ?Restore@idBarrel@@QAEXPAVidRestoreGame@@@Z 2009e640 f   Moveable.obj
 0001:0009d6b0       ?BarrelThink@idBarrel@@QAEXXZ 2009e6b0 f   Moveable.obj
 0001:0009dc20       ?Think@idBarrel@@UAEXXZ    2009ec20 f   Moveable.obj
 0001:0009dc50       ?GetPhysicsToVisualTransform@idBarrel@@UAE_NAAVidVec3@@AAVidMat3@@@Z 2009ec50 f   Moveable.obj
 0001:0009dce0       ?ClientPredictionThink@idBarrel@@UAEXXZ 2009ece0 f   Moveable.obj
 0001:0009dcf0       ?RegisterClassA@idExplodingBarrel@@SAXXZ 2009ecf0 f   Moveable.obj
 0001:0009dd80       ?CreateInstance@idExplodingBarrel@@SAPAVidClass@@XZ 2009ed80 f   Moveable.obj
 0001:0009de20       ?GetClassType@idExplodingBarrel@@SAAAVidTypeInfo@@XZ 2009ee20 f   Moveable.obj
 0001:0009de30       ?GetType@idExplodingBarrel@@UBEPAVidTypeInfo@@XZ 2009ee30 f   Moveable.obj
 0001:0009de40       ??0idExplodingBarrel@@QAE@XZ 2009ee40 f   Moveable.obj
 0001:0009df00       ??1idExplodingBarrel@@UAE@XZ 2009ef00 f   Moveable.obj
 0001:0009df80       ?Spawn@idExplodingBarrel@@QAEXXZ 2009ef80 f   Moveable.obj
 0001:0009e120       ?Save@idExplodingBarrel@@QBEXPAVidSaveGame@@@Z 2009f120 f   Moveable.obj
 0001:0009e1d0       ?Restore@idExplodingBarrel@@QAEXPAVidRestoreGame@@@Z 2009f1d0 f   Moveable.obj
 0001:0009e300       ?Think@idExplodingBarrel@@UAEXXZ 2009f300 f   Moveable.obj
 0001:0009e5e0       ?Damage@idExplodingBarrel@@UAEXPAVidEntity@@0ABVidVec3@@PBDMH@Z 2009f5e0 f   Moveable.obj
 0001:0009e680       ?Killed@idExplodingBarrel@@UAEXPAVidEntity@@0HABVidVec3@@H@Z 2009f680 f   Moveable.obj
 0001:0009e920       ?WriteToSnapshot@idExplodingBarrel@@UBEXAAVidBitMsgDelta@@@Z 2009f920 f   Moveable.obj
 0001:0009e960       ?ReadFromSnapshot@idExplodingBarrel@@UAEXABVidBitMsgDelta@@@Z 2009f960 f   Moveable.obj
 0001:0009e9c0       ?AddIPS@idExplodingBarrel@@AAEXPBD_N@Z 2009f9c0 f   Moveable.obj
 0001:0009ec00       ?AddLight@idExplodingBarrel@@AAEXPBD_N@Z 2009fc00 f   Moveable.obj
 0001:0009edc0       ?ExplodingEffects@idExplodingBarrel@@AAEXXZ 2009fdc0 f   Moveable.obj
 0001:0009ef00       ?Event_Activate@idExplodingBarrel@@AAEXPAVidEntity@@@Z 2009ff00 f   Moveable.obj
 0001:0009ef20       ?Event_Respawn@idExplodingBarrel@@AAEXXZ 2009ff20 f   Moveable.obj
 0001:0009eff0       ?Event_Explode@idExplodingBarrel@@AAEXXZ 2009fff0 f   Moveable.obj
 0001:0009f020       ?Event_TriggerTargets@idExplodingBarrel@@AAEXXZ 200a0020 f   Moveable.obj
 0001:0009f030       ?Register_idMoveable@@YAXXZ 200a0030 f   Moveable.obj
 0001:0009f040       ?Register_idBarrel@@YAXXZ  200a0040 f   Moveable.obj
 0001:0009f050       ?Register_idExplodingBarrel@@YAXXZ 200a0050 f   Moveable.obj
 0001:0009f060       ??1idBarrel@@UAE@XZ        200a0060 f i Moveable.obj
 0001:0009f070       ??_GidExplodingBarrel@@UAEPAXI@Z 200a0070 f i Moveable.obj
 0001:0009f070       ??_EidExplodingBarrel@@UAEPAXI@Z 200a0070 f i Moveable.obj
 0001:0009f0a0       ??_EidMoveable@@UAEPAXI@Z  200a00a0 f i Moveable.obj
 0001:0009f0a0       ??_GidBarrel@@UAEPAXI@Z    200a00a0 f i Moveable.obj
 0001:0009f0a0       ??_GidMoveable@@UAEPAXI@Z  200a00a0 f i Moveable.obj
 0001:0009f0a0       ??_EidBarrel@@UAEPAXI@Z    200a00a0 f i Moveable.obj
 0001:0009f0e0       ?RegisterClassA@idMover@@SAXXZ 200a00e0 f   Mover.obj
 0001:0009f170       ?CreateInstance@idMover@@SAPAVidClass@@XZ 200a0170 f   Mover.obj
 0001:0009f210       ?GetClassType@idMover@@SAAAVidTypeInfo@@XZ 200a0210 f   Mover.obj
 0001:0009f220       ?GetType@idMover@@UBEPAVidTypeInfo@@XZ 200a0220 f   Mover.obj
 0001:0009f230       ??0idMover@@QAE@XZ         200a0230 f   Mover.obj
 0001:0009f420       ??1idMover@@UAE@XZ         200a0420 f   Mover.obj
 0001:0009f4e0       ?Spawn@idMover@@QAEXXZ     200a04e0 f   Mover.obj
 0001:0009faf0       ?Think@idMover@@UAEXXZ     200a0af0 f   Mover.obj
 0001:0009fcb0       ?Save@idMover@@QBEXPAVidSaveGame@@@Z 200a0cb0 f   Mover.obj
 0001:0009ff70       ?Restore@idMover@@QAEXPAVidRestoreGame@@@Z 200a0f70 f   Mover.obj
 0001:000a0410       ?Killed@idMover@@UAEXPAVidEntity@@0HABVidVec3@@H@Z 200a1410 f   Mover.obj
 0001:000a0430       ?WriteToSnapshot@idMover@@UBEXAAVidBitMsgDelta@@@Z 200a1430 f   Mover.obj
 0001:000a04a0       ?ReadFromSnapshot@idMover@@UAEXABVidBitMsgDelta@@@Z 200a14a0 f   Mover.obj
 0001:000a0560       ?Hide@idMover@@UAEXXZ      200a1560 f   Mover.obj
 0001:000a0580       ?Show@idMover@@UAEXXZ      200a1580 f   Mover.obj
 0001:000a05e0       ?SetPortalState@idMover@@QAEX_N@Z 200a15e0 f   Mover.obj
 0001:000a0610       ?Event_OpenPortal@idMover@@IAEXXZ 200a1610 f   Mover.obj
 0001:000a0630       ?Event_ClosePortal@idMover@@IAEXXZ 200a1630 f   Mover.obj
 0001:000a0650       ?Event_PartBlocked@idMover@@IAEXPAVidEntity@@@Z 200a1650 f   Mover.obj
 0001:000a06c0       ?MoveToPos@idMover@@IAEXABVidVec3@@@Z 200a16c0 f   Mover.obj
 0001:000a0710       ?UpdateMoveSound@idMover@@IAEXW4moveStage_t@1@@Z 200a1710 f   Mover.obj
 0001:000a07f0       ?UpdateRotationSound@idMover@@IAEXW4moveStage_t@1@@Z 200a17f0 f   Mover.obj
 0001:000a08a0       ?SetGuiStates@idMover@@IAEXPBD@Z 200a18a0 f   Mover.obj
 0001:000a0900       ?FindGuiTargets@idMover@@IAEXXZ 200a1900 f   Mover.obj
 0001:000a0920       ?SetGuiState@idMover@@IBEXPBD0@Z 200a1920 f   Mover.obj
 0001:000a0a00       ?DoneMoving@idMover@@MAEXXZ 200a1a00 f   Mover.obj
 0001:000a0a70       ?DoneRotating@idMover@@MAEXXZ 200a1a70 f   Mover.obj
 0001:000a0ab0       ?BeginMove@idMover@@MAEXPAVidThread@@@Z 200a1ab0 f   Mover.obj
 0001:000a0d70       ?BeginRotation@idMover@@MAEXPAVidThread@@_N@Z 200a1d70 f   Mover.obj
 0001:000a0fd0       ?GetPhysicsToVisualTransform@idMover@@EAE_NAAVidVec3@@AAVidMat3@@@Z 200a1fd0 f   Mover.obj
 0001:000a1050       ?MoveAlongVector@idMover@@AAEXABVidVec3@@@Z 200a2050 f   Mover.obj
 0001:000a1150       ?VectorForDir@idMover@@AAEXMAAVidVec3@@@Z 200a2150 f   Mover.obj
 0001:000a1410       ?Event_SetCallback@idMover@@AAEXXZ 200a2410 f   Mover.obj
 0001:000a1490       ?Event_TeamBlocked@idMover@@AAEXPAVidEntity@@0@Z 200a2490 f   Mover.obj
 0001:000a1670       ?Event_StopMoving@idMover@@AAEXXZ 200a2670 f   Mover.obj
 0001:000a1690       ?Event_StopRotating@idMover@@AAEXXZ 200a2690 f   Mover.obj
 0001:000a16d0       ?Event_UpdateMove@idMover@@AAEXXZ 200a26d0 f   Mover.obj
 0001:000a1830       ?Event_UpdateRotation@idMover@@AAEXXZ 200a2830 f   Mover.obj
 0001:000a1a30       ?Event_SetMoveSpeed@idMover@@AAEXM@Z 200a2a30 f   Mover.obj
 0001:000a1a70       ?Event_SetMoveTime@idMover@@AAEXM@Z 200a2a70 f   Mover.obj
 0001:000a1ad0       ?Event_SetDecelerationTime@idMover@@AAEXM@Z 200a2ad0 f   Mover.obj
 0001:000a1b30       ?Event_SetAccellerationTime@idMover@@AAEXM@Z 200a2b30 f   Mover.obj
 0001:000a1b90       ?Event_MoveTo@idMover@@AAEXPAVidEntity@@@Z 200a2b90 f   Mover.obj
 0001:000a1c10       ?Event_MoveToPos@idMover@@AAEXAAVidVec3@@@Z 200a2c10 f   Mover.obj
 0001:000a1c20       ?Event_MoveDir@idMover@@AAEXMM@Z 200a2c20 f   Mover.obj
 0001:000a1cc0       ?Event_MoveAccelerateTo@idMover@@AAEXMM@Z 200a2cc0 f   Mover.obj
 0001:000a1f10       ?Event_MoveDecelerateTo@idMover@@AAEXMM@Z 200a2f10 f   Mover.obj
 0001:000a2160       ?Event_RotateDownTo@idMover@@AAEXHM@Z 200a3160 f   Mover.obj
 0001:000a21e0       ?Event_RotateUpTo@idMover@@AAEXHM@Z 200a31e0 f   Mover.obj
 0001:000a2260       ?Event_RotateTo@idMover@@AAEXAAVidAngles@@@Z 200a3260 f   Mover.obj
 0001:000a22a0       ?Event_Rotate@idMover@@AAEXAAVidAngles@@@Z 200a32a0 f   Mover.obj
 0001:000a2360       ?Event_RotateOnce@idMover@@AAEXAAVidAngles@@@Z 200a3360 f   Mover.obj
 0001:000a23e0       ?Event_Bob@idMover@@AAEXMMAAVidVec3@@@Z 200a33e0 f   Mover.obj
 0001:000a2470       ?Event_Sway@idMover@@AAEXMMAAVidAngles@@@Z 200a3470 f   Mover.obj
 0001:000a2550       ?Event_SetAccelSound@idMover@@AAEXPBD@Z 200a3550 f   Mover.obj
 0001:000a2560       ?Event_SetDecelSound@idMover@@AAEXPBD@Z 200a3560 f   Mover.obj
 0001:000a2570       ?Event_SetStoppedSound@idMover@@AAEXPBD@Z 200a3570 f   Mover.obj
 0001:000a2580       ?Event_SetMoveSound@idMover@@AAEXPBD@Z 200a3580 f   Mover.obj
 0001:000a2590       ?Event_FindGuiTargets@idMover@@AAEXXZ 200a3590 f   Mover.obj
 0001:000a25a0       ?Event_InitGuiTargets@idMover@@AAEXXZ 200a35a0 f   Mover.obj
 0001:000a25b0       ?Event_EnableSplineAngles@idMover@@AAEXXZ 200a35b0 f   Mover.obj
 0001:000a25c0       ?Event_DisableSplineAngles@idMover@@AAEXXZ 200a35c0 f   Mover.obj
 0001:000a25d0       ?Event_RemoveInitialSplineAngles@idMover@@AAEXXZ 200a35d0 f   Mover.obj
 0001:000a2660       ?Event_StartSpline@idMover@@AAEXPAVidEntity@@@Z 200a3660 f   Mover.obj
 0001:000a3450       ?Event_StopSpline@idMover@@AAEXXZ 200a4450 f   Mover.obj
 0001:000a3480       ?Event_Activate@idMover@@AAEXPAVidEntity@@@Z 200a4480 f   Mover.obj
 0001:000a34a0       ?Event_PostRestoreExt@idMover@@AAEXHHHH_N@Z 200a44a0 f   Mover.obj
 0001:000a3650       ?Event_IsMoving@idMover@@AAEXXZ 200a4650 f   Mover.obj
 0001:000a3680       ?Event_IsRotating@idMover@@AAEXXZ 200a4680 f   Mover.obj
 0001:000a36b0       ?Event_GetSplineEntity@idMover@@AAEXXZ 200a46b0 f   Mover.obj
 0001:000a36f0       ?Event_MoveAlongVector@idMover@@AAEXABVidVec3@@@Z 200a46f0 f   Mover.obj
 0001:000a3700       ?State_Accel@idMover@@IAE?AW4stateResult_t@@ABUstateParms_t@@@Z 200a4700 f   Mover.obj
 0001:000a37a0       ?State_Linear@idMover@@IAE?AW4stateResult_t@@ABUstateParms_t@@@Z 200a47a0 f   Mover.obj
 0001:000a3830       ?State_Decel@idMover@@IAE?AW4stateResult_t@@ABUstateParms_t@@@Z 200a4830 f   Mover.obj
 0001:000a38b0       ?RegisterClassA@idSplinePath@@SAXXZ 200a48b0 f   Mover.obj
 0001:000a3940       ?CreateInstance@idSplinePath@@SAPAVidClass@@XZ 200a4940 f   Mover.obj
 0001:000a39e0       ?GetClassType@idSplinePath@@SAAAVidTypeInfo@@XZ 200a49e0 f   Mover.obj
 0001:000a39f0       ?GetType@idSplinePath@@UBEPAVidTypeInfo@@XZ 200a49f0 f   Mover.obj
 0001:000a3a00       ??0idSplinePath@@QAE@XZ    200a4a00 f   Mover.obj
 0001:000a3a80       ??1idSplinePath@@UAE@XZ    200a4a80 f   Mover.obj
 0001:000a3b60       ?Spawn@idSplinePath@@QAEXXZ 200a4b60 f   Mover.obj
 0001:000a3ba0       ?SortTargets@idSplinePath@@QAEHXZ 200a4ba0 f   Mover.obj
 0001:000a3bb0       ?SortBackwardsTargets@idSplinePath@@QAEHXZ 200a4bb0 f   Mover.obj
 0001:000a3bc0       ?SortTargets@idSplinePath@@QAEHAAV?$idList@V?$idEntityPtr@VidEntity@@@@@@@Z 200a4bc0 f   Mover.obj
 0001:000a3c30       ?RemoveNullTargets@idSplinePath@@UAEXXZ 200a4c30 f   Mover.obj
 0001:000a3c50       ?ActivateTargets@idSplinePath@@UBEXPAVidEntity@@@Z 200a4c50 f   Mover.obj
 0001:000a3c80       ?RemoveNullTargets@idSplinePath@@QAEXAAV?$idList@V?$idEntityPtr@VidEntity@@@@@@@Z 200a4c80 f   Mover.obj
 0001:000a3d30       ?ActivateTargets@idSplinePath@@QBEXPAVidEntity@@ABV?$idList@V?$idEntityPtr@VidEntity@@@@@@@Z 200a4d30 f   Mover.obj
 0001:000a3df0       ?Save@idSplinePath@@QBEXPAVidSaveGame@@@Z 200a4df0 f   Mover.obj
 0001:000a3e10       ?Restore@idSplinePath@@QAEXPAVidRestoreGame@@@Z 200a4e10 f   Mover.obj
 0001:000a3e30       ?GetSampledTime@idSplinePath@@QBEMM@Z 200a4e30 f   Mover.obj
 0001:000a3f10       ?FindTargets@idSplinePath@@MAEXXZ 200a4f10 f   Mover.obj
 0001:000a4040       ?Event_IsActive@idSplinePath@@IAEXXZ 200a5040 f   Mover.obj
 0001:000a4050       ?SampleSpline@idSplinePath@@IAEXXZ 200a5050 f   Mover.obj
 0001:000a4f70       ?RegisterClassA@idElevator@@SAXXZ 200a5f70 f   Mover.obj
 0001:000a5000       ?CreateInstance@idElevator@@SAPAVidClass@@XZ 200a6000 f   Mover.obj
 0001:000a50a0       ?GetClassType@idElevator@@SAAAVidTypeInfo@@XZ 200a60a0 f   Mover.obj
 0001:000a50b0       ?GetType@idElevator@@UBEPAVidTypeInfo@@XZ 200a60b0 f   Mover.obj
 0001:000a50c0       ??0idElevator@@QAE@XZ      200a60c0 f   Mover.obj
 0001:000a51e0       ?Spawn@idElevator@@QAEXXZ  200a61e0 f   Mover.obj
 0001:000a52e0       ?Save@idElevator@@QBEXPAVidSaveGame@@@Z 200a62e0 f   Mover.obj
 0001:000a53d0       ?Restore@idElevator@@QAEXPAVidRestoreGame@@@Z 200a63d0 f   Mover.obj
 0001:000a58e0       ?HandleSingleGuiCommand@idElevator@@UAE_NPAVidEntity@@PAVidLexer@@@Z 200a68e0 f   Mover.obj
 0001:000a5ab0       ?GetFloorInfo@idElevator@@QAEPAUfloorInfo_s@@H@Z 200a6ab0 f   Mover.obj
 0001:000a5b00       ?DoneMoving@idElevator@@MAEXXZ 200a6b00 f   Mover.obj
 0001:000a5c60       ?BeginMove@idElevator@@MAEXPAVidThread@@@Z 200a6c60 f   Mover.obj
 0001:000a5cc0       ?Event_Touch@idElevator@@IAEXPAVidEntity@@PAUtrace_t@@@Z 200a6cc0 f   Mover.obj
 0001:000a5da0       ?SetAASAreaState@idElevator@@IAEX_N@Z 200a6da0 f   Mover.obj
 0001:000a5e20       ?InitStatusGui@idElevator@@IAEXPAVidUserInterface@@@Z 200a6e20 f   Mover.obj
 0001:000a5fe0       ?UpdateStatusGui@idElevator@@IAEXPAVidUserInterface@@@Z 200a6fe0 f   Mover.obj
 0001:000a6120       ?UpdateStatusGuis@idElevator@@IAEXXZ 200a7120 f   Mover.obj
 0001:000a61e0       ?UpdateFloorInfo@idElevator@@IAEXXZ 200a71e0 f   Mover.obj
 0001:000a67b0       ?GetDoor@idElevator@@AAEPAVidDoor@@PBD@Z 200a77b0 f   Mover.obj
 0001:000a6840       ?Think@idElevator@@EAEXXZ  200a7840 f   Mover.obj
 0001:000a6a50       ?OpenInnerDoor@idElevator@@AAEXXZ 200a7a50 f   Mover.obj
 0001:000a6a90       ?OpenFloorDoor@idElevator@@AAEXH@Z 200a7a90 f   Mover.obj
 0001:000a6ac0       ?CloseAllDoors@idElevator@@AAEXXZ 200a7ac0 f   Mover.obj
 0001:000a6b30       ?DisableAllDoors@idElevator@@AAEXXZ 200a7b30 f   Mover.obj
 0001:000a6bb0       ?EnableProperDoors@idElevator@@AAEXXZ 200a7bb0 f   Mover.obj
 0001:000a6c40       ?Event_TeamBlocked@idElevator@@AAEXPAVidEntity@@0@Z 200a7c40 f   Mover.obj
 0001:000a6e80       ?Event_Activate@idElevator@@AAEXPAVidEntity@@@Z 200a7e80 f   Mover.obj
 0001:000a6ef0       ?Event_PostFloorArrival@idElevator@@AAEXXZ 200a7ef0 f   Mover.obj
 0001:000a6f70       ?Event_GotoFloor@idElevator@@AAEXH@Z 200a7f70 f   Mover.obj
 0001:000a7020       ?Event_UpdateFloorInfo@idElevator@@AAEXXZ 200a8020 f   Mover.obj
 0001:000a7030       ?RegisterClassA@idMover_Binary@@SAXXZ 200a8030 f   Mover.obj
 0001:000a70c0       ?CreateInstance@idMover_Binary@@SAPAVidClass@@XZ 200a80c0 f   Mover.obj
 0001:000a7160       ?GetClassType@idMover_Binary@@SAAAVidTypeInfo@@XZ 200a8160 f   Mover.obj
 0001:000a7170       ?GetType@idMover_Binary@@UBEPAVidTypeInfo@@XZ 200a8170 f   Mover.obj
 0001:000a7180       ??0idMover_Binary@@QAE@XZ  200a8180 f   Mover.obj
 0001:000a7380       ??1idMover_Binary@@UAE@XZ  200a8380 f   Mover.obj
 0001:000a7500       ?Spawn@idMover_Binary@@QAEXXZ 200a8500 f   Mover.obj
 0001:000a7d70       ?Save@idMover_Binary@@QBEXPAVidSaveGame@@@Z 200a8d70 f   Mover.obj
 0001:000a7f80       ?Restore@idMover_Binary@@QAEXPAVidRestoreGame@@@Z 200a8f80 f   Mover.obj
 0001:000a8700       ?PreBind@idMover_Binary@@UAEXXZ 200a9700 f   Mover.obj
 0001:000a8760       ?PostBind@idMover_Binary@@UAEXXZ 200a9760 f   Mover.obj
 0001:000a87c0       ?Enable@idMover_Binary@@QAEX_N@Z 200a97c0 f   Mover.obj
 0001:000a87d0       ?InitSpeed@idMover_Binary@@QAEXAAVidVec3@@0MMM@Z 200a97d0 f   Mover.obj
 0001:000a8960       ?InitTime@idMover_Binary@@QAEXAAVidVec3@@0MMM@Z 200a9960 f   Mover.obj
 0001:000a8a90       ?GotoPosition1@idMover_Binary@@QAEXXZ 200a9a90 f   Mover.obj
 0001:000a8b80       ?GotoPosition2@idMover_Binary@@QAEXXZ 200a9b80 f   Mover.obj
 0001:000a8c30       ?Use_BinaryMover@idMover_Binary@@QAEXPAVidEntity@@@Z 200a9c30 f   Mover.obj
 0001:000a8ea0       ?SetGuiStates@idMover_Binary@@QAEXPBD@Z 200a9ea0 f   Mover.obj
 0001:000a8f00       ?UpdateBuddies@idMover_Binary@@QAEXH@Z 200a9f00 f   Mover.obj
 0001:000a8f90       ?BindTeam@idMover_Binary@@QAEXPAVidEntity@@@Z 200a9f90 f   Mover.obj
 0001:000a8fc0       ?SetBlocked@idMover_Binary@@QAEX_N@Z 200a9fc0 f   Mover.obj
 0001:000a9090       ?IsBlocked@idMover_Binary@@QAE_NXZ 200aa090 f   Mover.obj
 0001:000a90a0       ?GetActivator@idMover_Binary@@QBEPAVidEntity@@XZ 200aa0a0 f   Mover.obj
 0001:000a90d0       ?WriteToSnapshot@idMover_Binary@@UBEXAAVidBitMsgDelta@@@Z 200aa0d0 f   Mover.obj
 0001:000a9110       ?ReadFromSnapshot@idMover_Binary@@UAEXABVidBitMsgDelta@@@Z 200aa110 f   Mover.obj
 0001:000a9180       ?SetPortalState@idMover_Binary@@QAEX_N@Z 200aa180 f   Mover.obj
 0001:000a91b0       ?MatchActivateTeam@idMover_Binary@@IAEXW4moverState_t@@H@Z 200aa1b0 f   Mover.obj
 0001:000a91e0       ?JoinActivateTeam@idMover_Binary@@IAEXPAV1@@Z 200aa1e0 f   Mover.obj
 0001:000a9200       ?UpdateMoverSound@idMover_Binary@@IAEXW4moverState_t@@@Z 200aa200 f   Mover.obj
 0001:000a9240       ?SetMoverState@idMover_Binary@@IAEXW4moverState_t@@H@Z 200aa240 f   Mover.obj
 0001:000a94a0       ?FindGuiTargets@idMover_Binary@@IAEXXZ 200aa4a0 f   Mover.obj
 0001:000a94c0       ?SetGuiState@idMover_Binary@@IBEXPBD0@Z 200aa4c0 f   Mover.obj
 0001:000a9580       ?Event_SetCallback@idMover_Binary@@IAEXXZ 200aa580 f   Mover.obj
 0001:000a95c0       ?Event_ReturnToPos1@idMover_Binary@@IAEXXZ 200aa5c0 f   Mover.obj
 0001:000a95d0       ?Event_Use_BinaryMover@idMover_Binary@@IAEXPAVidEntity@@@Z 200aa5d0 f   Mover.obj
 0001:000a95e0       ?Event_Reached_BinaryMover@idMover_Binary@@IAEXXZ 200aa5e0 f   Mover.obj
 0001:000a97c0       ?Event_MatchActivateTeam@idMover_Binary@@IAEXW4moverState_t@@H@Z 200aa7c0 f   Mover.obj
 0001:000a97d0       ?Event_Enable@idMover_Binary@@IAEXXZ 200aa7d0 f   Mover.obj
 0001:000a9800       ?Event_Disable@idMover_Binary@@IAEXXZ 200aa800 f   Mover.obj
 0001:000a9830       ?Event_OpenPortal@idMover_Binary@@IAEXXZ 200aa830 f   Mover.obj
 0001:000a9860       ?Event_ClosePortal@idMover_Binary@@IAEXXZ 200aa860 f   Mover.obj
 0001:000a98a0       ?Event_FindGuiTargets@idMover_Binary@@IAEXXZ 200aa8a0 f   Mover.obj
 0001:000a98b0       ?Event_InitGuiTargets@idMover_Binary@@IAEXXZ 200aa8b0 f   Mover.obj
 0001:000a98d0       ?GetMovedir@idMover_Binary@@KAXMAAVidVec3@@@Z 200aa8d0 f   Mover.obj
 0001:000a9970       ?RegisterClassA@idDoor@@SAXXZ 200aa970 f   Mover.obj
 0001:000a9a00       ?CreateInstance@idDoor@@SAPAVidClass@@XZ 200aaa00 f   Mover.obj
 0001:000a9aa0       ?GetClassType@idDoor@@SAAAVidTypeInfo@@XZ 200aaaa0 f   Mover.obj
 0001:000a9ab0       ?GetType@idDoor@@UBEPAVidTypeInfo@@XZ 200aaab0 f   Mover.obj
 0001:000a9ac0       ??0idDoor@@QAE@XZ          200aaac0 f   Mover.obj
 0001:000a9cd0       ??1idDoor@@UAE@XZ          200aacd0 f   Mover.obj
 0001:000a9dc0       ?Spawn@idDoor@@QAEXXZ      200aadc0 f   Mover.obj
 0001:000aa6a0       ?Save@idDoor@@QBEXPAVidSaveGame@@@Z 200ab6a0 f   Mover.obj
 0001:000aa790       ?Restore@idDoor@@QAEXPAVidRestoreGame@@@Z 200ab790 f   Mover.obj
 0001:000aa890       ?Think@idDoor@@UAEXXZ      200ab890 f   Mover.obj
 0001:000aad50       ?PreBind@idDoor@@UAEXXZ    200abd50 f   Mover.obj
 0001:000aad60       ?PostBind@idDoor@@UAEXXZ   200abd60 f   Mover.obj
 0001:000aad90       ?Hide@idDoor@@UAEXXZ       200abd90 f   Mover.obj
 0001:000aae50       ?Show@idDoor@@UAEXXZ       200abe50 f   Mover.obj
 0001:000aaf30       ?IsOpen@idDoor@@QAE_NXZ    200abf30 f   Mover.obj
 0001:000aaf40       ?IsNoTouch@idDoor@@QAE_NXZ 200abf40 f   Mover.obj
 0001:000aaf50       ?IsLocked@idDoor@@QAEHXZ   200abf50 f   Mover.obj
 0001:000aaf80       ?Lock@idDoor@@QAEXH@Z      200abf80 f   Mover.obj
 0001:000ab0c0       ?Use@idDoor@@QAEXPAVidEntity@@0@Z 200ac0c0 f   Mover.obj
 0001:000ab150       ?Close@idDoor@@QAEXXZ      200ac150 f   Mover.obj
 0001:000ab160       ?Open@idDoor@@QAEXXZ       200ac160 f   Mover.obj
 0001:000ab170       ?SetCompanion@idDoor@@QAEXPAV1@@Z 200ac170 f   Mover.obj
 0001:000ab180       ?SetDoorFrameController@idDoor@@QAEXPAVidEntity@@@Z 200ac180 f   Mover.obj
 0001:000ab1b0       ?ActivateTargets@idDoor@@UBEXPAVidEntity@@@Z 200ac1b0 f   Mover.obj
 0001:000ab220       ?SetAASAreaState@idDoor@@AAEX_N@Z 200ac220 f   Mover.obj
 0001:000ab250       ?GetLocalTriggerPosition@idDoor@@AAEXPBVidClipModel@@@Z 200ac250 f   Mover.obj
 0001:000ab530       ?CalcTriggerBounds@idDoor@@AAEXMAAVidBounds@@@Z 200ac530 f   Mover.obj
 0001:000ab730       ?Event_Reached_BinaryMover@idDoor@@AAEXXZ 200ac730 f   Mover.obj
 0001:000ab830       ?Event_TeamBlocked@idDoor@@AAEXPAVidEntity@@0@Z 200ac830 f   Mover.obj
 0001:000aba40       ?Event_PartBlocked@idDoor@@AAEXPAVidEntity@@@Z 200aca40 f   Mover.obj
 0001:000aba80       ?Event_Touch@idDoor@@AAEXPAVidEntity@@PAUtrace_t@@@Z 200aca80 f   Mover.obj
 0001:000abc10       ?Event_Activate@idDoor@@AAEXPAVidEntity@@@Z 200acc10 f   Mover.obj
 0001:000abdb0       ?Event_StartOpen@idDoor@@AAEXXZ 200acdb0 f   Mover.obj
 0001:000abe80       ?Event_SpawnDoorTrigger@idDoor@@AAEXXZ 200ace80 f   Mover.obj
 0001:000ac0c0       ?Event_SpawnSoundTrigger@idDoor@@AAEXXZ 200ad0c0 f   Mover.obj
 0001:000ac1e0       ?Event_Close@idDoor@@AAEXXZ 200ad1e0 f   Mover.obj
 0001:000ac1f0       ?Event_Open@idDoor@@AAEXXZ 200ad1f0 f   Mover.obj
 0001:000ac200       ?Event_Lock@idDoor@@AAEXH@Z 200ad200 f   Mover.obj
 0001:000ac210       ?Event_IsOpen@idDoor@@AAEXXZ 200ad210 f   Mover.obj
 0001:000ac230       ?Event_Locked@idDoor@@AAEXXZ 200ad230 f   Mover.obj
 0001:000ac270       ?Event_SpectatorTouch@idDoor@@AAEXPAVidEntity@@PAUtrace_t@@@Z 200ad270 f   Mover.obj
 0001:000ac3d0       ?Event_OpenPortal@idDoor@@AAEXXZ 200ad3d0 f   Mover.obj
 0001:000ac430       ?Event_ClosePortal@idDoor@@AAEXXZ 200ad430 f   Mover.obj
 0001:000ac4b0       ?Event_ReturnToPos1@idDoor@@AAEXXZ 200ad4b0 f   Mover.obj
 0001:000ac510       ?RegisterClassA@idPlat@@SAXXZ 200ad510 f   Mover.obj
 0001:000ac5a0       ?CreateInstance@idPlat@@SAPAVidClass@@XZ 200ad5a0 f   Mover.obj
 0001:000ac640       ?GetClassType@idPlat@@SAAAVidTypeInfo@@XZ 200ad640 f   Mover.obj
 0001:000ac650       ?GetType@idPlat@@UBEPAVidTypeInfo@@XZ 200ad650 f   Mover.obj
 0001:000ac660       ??0idPlat@@QAE@XZ          200ad660 f   Mover.obj
 0001:000ac730       ??1idPlat@@UAE@XZ          200ad730 f   Mover.obj
 0001:000ac7b0       ?Spawn@idPlat@@QAEXXZ      200ad7b0 f   Mover.obj
 0001:000ac990       ?Save@idPlat@@QBEXPAVidSaveGame@@@Z 200ad990 f   Mover.obj
 0001:000ac9d0       ?Restore@idPlat@@QAEXPAVidRestoreGame@@@Z 200ad9d0 f   Mover.obj
 0001:000aca10       ?Think@idPlat@@UAEXXZ      200ada10 f   Mover.obj
 0001:000acc90       ?PreBind@idPlat@@UAEXXZ    200adc90 f   Mover.obj
 0001:000acca0       ?PostBind@idPlat@@UAEXXZ   200adca0 f   Mover.obj
 0001:000accc0       ?GetLocalTriggerPosition@idPlat@@AAEXPBVidClipModel@@@Z 200adcc0 f   Mover.obj
 0001:000acfa0       ?SpawnPlatTrigger@idPlat@@AAEXAAVidVec3@@@Z 200adfa0 f   Mover.obj
 0001:000ad190       ?Event_TeamBlocked@idPlat@@AAEXPAVidEntity@@0@Z 200ae190 f   Mover.obj
 0001:000ad1e0       ?Event_PartBlocked@idPlat@@AAEXPAVidEntity@@@Z 200ae1e0 f   Mover.obj
 0001:000ad220       ?Event_Touch@idPlat@@AAEXPAVidEntity@@PAUtrace_t@@@Z 200ae220 f   Mover.obj
 0001:000ad280       ?RegisterClassA@idMover_Periodic@@SAXXZ 200ae280 f   Mover.obj
 0001:000ad310       ?CreateInstance@idMover_Periodic@@SAPAVidClass@@XZ 200ae310 f   Mover.obj
 0001:000ad3b0       ?GetClassType@idMover_Periodic@@SAAAVidTypeInfo@@XZ 200ae3b0 f   Mover.obj
 0001:000ad3c0       ?GetType@idMover_Periodic@@UBEPAVidTypeInfo@@XZ 200ae3c0 f   Mover.obj
 0001:000ad3d0       ??0idMover_Periodic@@QAE@XZ 200ae3d0 f   Mover.obj
 0001:000ad430       ??1idMover_Periodic@@UAE@XZ 200ae430 f   Mover.obj
 0001:000ad490       ?Spawn@idMover_Periodic@@QAEXXZ 200ae490 f   Mover.obj
 0001:000ad4f0       ?Save@idMover_Periodic@@QBEXPAVidSaveGame@@@Z 200ae4f0 f   Mover.obj
 0001:000ad520       ?Restore@idMover_Periodic@@QAEXPAVidRestoreGame@@@Z 200ae520 f   Mover.obj
 0001:000ad560       ?Think@idMover_Periodic@@UAEXXZ 200ae560 f   Mover.obj
 0001:000ad580       ?WriteToSnapshot@idMover_Periodic@@UBEXAAVidBitMsgDelta@@@Z 200ae580 f   Mover.obj
 0001:000ad5b0       ?ReadFromSnapshot@idMover_Periodic@@UAEXABVidBitMsgDelta@@@Z 200ae5b0 f   Mover.obj
 0001:000ad5f0       ?Event_TeamBlocked@idMover_Periodic@@IAEXPAVidEntity@@0@Z 200ae5f0 f   Mover.obj
 0001:000ad7d0       ?Event_PartBlocked@idMover_Periodic@@IAEXPAVidEntity@@@Z 200ae7d0 f   Mover.obj
 0001:000ad810       ?RegisterClassA@idRotater@@SAXXZ 200ae810 f   Mover.obj
 0001:000ad8a0       ?CreateInstance@idRotater@@SAPAVidClass@@XZ 200ae8a0 f   Mover.obj
 0001:000ad940       ?GetClassType@idRotater@@SAAAVidTypeInfo@@XZ 200ae940 f   Mover.obj
 0001:000ad950       ?GetType@idRotater@@UBEPAVidTypeInfo@@XZ 200ae950 f   Mover.obj
 0001:000ad960       ??0idRotater@@QAE@XZ       200ae960 f   Mover.obj
 0001:000ad9a0       ?Spawn@idRotater@@QAEXXZ   200ae9a0 f   Mover.obj
 0001:000adb80       ?Save@idRotater@@QBEXPAVidSaveGame@@@Z 200aeb80 f   Mover.obj
 0001:000adba0       ?Restore@idRotater@@QAEXPAVidRestoreGame@@@Z 200aeba0 f   Mover.obj
 0001:000adbc0       ?Event_Activate@idRotater@@AAEXPAVidEntity@@@Z 200aebc0 f   Mover.obj
 0001:000add00       ?RegisterClassA@idBobber@@SAXXZ 200aed00 f   Mover.obj
 0001:000add90       ?CreateInstance@idBobber@@SAPAVidClass@@XZ 200aed90 f   Mover.obj
 0001:000ade30       ?GetClassType@idBobber@@SAAAVidTypeInfo@@XZ 200aee30 f   Mover.obj
 0001:000ade40       ?GetType@idBobber@@UBEPAVidTypeInfo@@XZ 200aee40 f   Mover.obj
 0001:000ade50       ??0idBobber@@QAE@XZ        200aee50 f   Mover.obj
 0001:000ade70       ?Spawn@idBobber@@QAEXXZ    200aee70 f   Mover.obj
 0001:000ae0e0       ?RegisterClassA@idPendulum@@SAXXZ 200af0e0 f   Mover.obj
 0001:000ae170       ?CreateInstance@idPendulum@@SAPAVidClass@@XZ 200af170 f   Mover.obj
 0001:000ae210       ?GetClassType@idPendulum@@SAAAVidTypeInfo@@XZ 200af210 f   Mover.obj
 0001:000ae220       ?GetType@idPendulum@@UBEPAVidTypeInfo@@XZ 200af220 f   Mover.obj
 0001:000ae230       ??0idPendulum@@QAE@XZ      200af230 f   Mover.obj
 0001:000ae250       ?Spawn@idPendulum@@QAEXXZ  200af250 f   Mover.obj
 0001:000ae530       ?RegisterClassA@idRiser@@SAXXZ 200af530 f   Mover.obj
 0001:000ae5c0       ?CreateInstance@idRiser@@SAPAVidClass@@XZ 200af5c0 f   Mover.obj
 0001:000ae660       ?GetClassType@idRiser@@SAAAVidTypeInfo@@XZ 200af660 f   Mover.obj
 0001:000ae670       ?GetType@idRiser@@UBEPAVidTypeInfo@@XZ 200af670 f   Mover.obj
 0001:000ae680       ??0idRiser@@QAE@XZ         200af680 f   Mover.obj
 0001:000ae6a0       ?Spawn@idRiser@@QAEXXZ     200af6a0 f   Mover.obj
 0001:000ae840       ?Event_Activate@idRiser@@AAEXPAVidEntity@@@Z 200af840 f   Mover.obj
 0001:000ae930       ?RegisterClassA@rvConveyor@@SAXXZ 200af930 f   Mover.obj
 0001:000ae9c0       ?CreateInstance@rvConveyor@@SAPAVidClass@@XZ 200af9c0 f   Mover.obj
 0001:000aea60       ?GetClassType@rvConveyor@@SAAAVidTypeInfo@@XZ 200afa60 f   Mover.obj
 0001:000aea70       ?GetType@rvConveyor@@UBEPAVidTypeInfo@@XZ 200afa70 f   Mover.obj
 0001:000aea80       ??0rvConveyor@@QAE@XZ      200afa80 f   Mover.obj
 0001:000aeaa0       ?Spawn@rvConveyor@@QAEXXZ  200afaa0 f   Mover.obj
 0001:000aeb70       ?Think@rvConveyor@@UAEXXZ  200afb70 f   Mover.obj
 0001:000aed30       ?Save@rvConveyor@@QBEXPAVidSaveGame@@@Z 200afd30 f   Mover.obj
 0001:000aed60       ?Restore@rvConveyor@@QAEXPAVidRestoreGame@@@Z 200afd60 f   Mover.obj
 0001:000aed90       ?Event_FindTargets@rvConveyor@@AAEXXZ 200afd90 f   Mover.obj
 0001:000aef80       ?RegisterClassA@rvPusher@@SAXXZ 200aff80 f   Mover.obj
 0001:000af010       ?CreateInstance@rvPusher@@SAPAVidClass@@XZ 200b0010 f   Mover.obj
 0001:000af0b0       ?GetClassType@rvPusher@@SAAAVidTypeInfo@@XZ 200b00b0 f   Mover.obj
 0001:000af0c0       ?GetType@rvPusher@@UBEPAVidTypeInfo@@XZ 200b00c0 f   Mover.obj
 0001:000af0d0       ??0rvPusher@@QAE@XZ        200b00d0 f   Mover.obj
 0001:000af0f0       ??1rvPusher@@UAE@XZ        200b00f0 f   Mover.obj
 0001:000af100       ?Spawn@rvPusher@@UAEXXZ    200b0100 f   Mover.obj
 0001:000af110       ?Think@rvPusher@@UAEXXZ    200b0110 f   Mover.obj
 0001:000af5e0       ?Register_idMover@@YAXXZ   200b05e0 f   Mover.obj
 0001:000af5f0       ?Register_idSplinePath@@YAXXZ 200b05f0 f   Mover.obj
 0001:000af600       ?rvSortByActiveState@@YAHPBX0@Z 200b0600 f   Mover.obj
 0001:000af6d0       ?Register_idElevator@@YAXXZ 200b06d0 f   Mover.obj
 0001:000af6e0       ?Register_idMover_Binary@@YAXXZ 200b06e0 f   Mover.obj
 0001:000af6f0       ?Register_idDoor@@YAXXZ    200b06f0 f   Mover.obj
 0001:000af700       ?Register_idPlat@@YAXXZ    200b0700 f   Mover.obj
 0001:000af710       ?Register_idMover_Periodic@@YAXXZ 200b0710 f   Mover.obj
 0001:000af720       ?Register_idRotater@@YAXXZ 200b0720 f   Mover.obj
 0001:000af730       ?Register_idBobber@@YAXXZ  200b0730 f   Mover.obj
 0001:000af740       ?Register_idPendulum@@YAXXZ 200b0740 f   Mover.obj
 0001:000af750       ?Register_idRiser@@YAXXZ   200b0750 f   Mover.obj
 0001:000af760       ?Register_rvConveyor@@YAXXZ 200b0760 f   Mover.obj
 0001:000af770       ?Register_rvPusher@@YAXXZ  200b0770 f   Mover.obj
 0001:000af780       ?Event_Toggle@idSplinePath@@IAEXPAVidEntity@@@Z 200b0780 f i Mover.obj
 0001:000af7a0       ??0floorInfo_s@@QAE@XZ     200b07a0 f i Mover.obj
 0001:000af7c0       ??1?$idList@UfloorInfo_s@@@@QAE@XZ 200b07c0 f i Mover.obj
 0001:000af820       ??1floorInfo_s@@QAE@XZ     200b0820 f i Mover.obj
 0001:000af830       ??1idElevator@@UAE@XZ      200b0830 f i Mover.obj
 0001:000af8d4       ??_9rvPusher@@$BBHE@AE     200b08d4 f i Mover.obj
 0001:000af8e0       ??_EidDoor@@UAEPAXI@Z      200b08e0 f i Mover.obj
 0001:000af8e0       ??_GidDoor@@UAEPAXI@Z      200b08e0 f i Mover.obj
 0001:000af910       ??_GidElevator@@UAEPAXI@Z  200b0910 f i Mover.obj
 0001:000af910       ??_EidElevator@@UAEPAXI@Z  200b0910 f i Mover.obj
 0001:000af940       ??_GidMover@@UAEPAXI@Z     200b0940 f i Mover.obj
 0001:000af940       ??_EidMover@@UAEPAXI@Z     200b0940 f i Mover.obj
 0001:000af970       ??_EidMover_Binary@@UAEPAXI@Z 200b0970 f i Mover.obj
 0001:000af970       ??_GidMover_Binary@@UAEPAXI@Z 200b0970 f i Mover.obj
 0001:000af9a0       ??_GidPlat@@UAEPAXI@Z      200b09a0 f i Mover.obj
 0001:000af9a0       ??_EidPlat@@UAEPAXI@Z      200b09a0 f i Mover.obj
 0001:000af9d0       ??_GidMover_Periodic@@UAEPAXI@Z 200b09d0 f i Mover.obj
 0001:000af9d0       ??_EidRiser@@UAEPAXI@Z     200b09d0 f i Mover.obj
 0001:000af9d0       ??_EidMover_Periodic@@UAEPAXI@Z 200b09d0 f i Mover.obj
 0001:000af9d0       ??_GidRiser@@UAEPAXI@Z     200b09d0 f i Mover.obj
 0001:000af9d0       ??_EidPendulum@@UAEPAXI@Z  200b09d0 f i Mover.obj
 0001:000af9d0       ??_GidRotater@@UAEPAXI@Z   200b09d0 f i Mover.obj
 0001:000af9d0       ??_EidBobber@@UAEPAXI@Z    200b09d0 f i Mover.obj
 0001:000af9d0       ??_EidRotater@@UAEPAXI@Z   200b09d0 f i Mover.obj
 0001:000af9d0       ??_GidBobber@@UAEPAXI@Z    200b09d0 f i Mover.obj
 0001:000af9d0       ??_GidPendulum@@UAEPAXI@Z  200b09d0 f i Mover.obj
 0001:000afa00       ??_GidSplinePath@@UAEPAXI@Z 200b0a00 f i Mover.obj
 0001:000afa00       ??_EidSplinePath@@UAEPAXI@Z 200b0a00 f i Mover.obj
 0001:000afa30       ??_GrvPusher@@UAEPAXI@Z    200b0a30 f i Mover.obj
 0001:000afa30       ??_ErvPusher@@UAEPAXI@Z    200b0a30 f i Mover.obj
 0001:000afa60       ?SetAxisOffset@idPhysics_Parametric@@QAEXABVidMat3@@@Z 200b0a60 f i Mover.obj
 0001:000afad0       ??0idMultiplayerGame@@QAE@XZ 200b0ad0 f   MultiplayerGame.obj
 0001:000afea0       ?Shutdown@idMultiplayerGame@@QAEXXZ 200b0ea0 f   MultiplayerGame.obj
 0001:000afed0       ?Reset@idMultiplayerGame@@QAEXXZ 200b0ed0 f   MultiplayerGame.obj
 0001:000b0600       ?Clear@idMultiplayerGame@@QAEXXZ 200b1600 f   MultiplayerGame.obj
 0001:000b0950       ?SpawnPlayer@idMultiplayerGame@@QAEXH@Z 200b1950 f   MultiplayerGame.obj
 0001:000b09f0       ?Run@idMultiplayerGame@@QAEXXZ 200b19f0 f   MultiplayerGame.obj
 0001:000b0a90       ?ClientRun@idMultiplayerGame@@QAEXXZ 200b1a90 f   MultiplayerGame.obj
 0001:000b0aa0       ?ClientEndFrame@idMultiplayerGame@@QAEXXZ 200b1aa0 f   MultiplayerGame.obj
 0001:000b0ab0       ?CommonRun@idMultiplayerGame@@QAEXXZ 200b1ab0 f   MultiplayerGame.obj
 0001:000b1760       ?Draw@idMultiplayerGame@@QAE_NH@Z 200b2760 f   MultiplayerGame.obj
 0001:000b19e0       ?PlayerVote@idMultiplayerGame@@QAEXHW4playerVote_t@@@Z 200b29e0 f   MultiplayerGame.obj
 0001:000b1a00       ?PlayerDeath@idMultiplayerGame@@QAEXPAVidPlayer@@0H@Z 200b2a00 f   MultiplayerGame.obj
 0001:000b1c60       ?AddChatLine@idMultiplayerGame@@QAAXPBDZZ 200b2c60 f   MultiplayerGame.obj
 0001:000b22d0       ?OnBuyModeTeamVictory@idMultiplayerGame@@QAEXH@Z 200b32d0 f   MultiplayerGame.obj
 0001:000b23b0       ?OnDeadZoneTeamVictory@idMultiplayerGame@@QAEXH@Z 200b33b0 f   MultiplayerGame.obj
 0001:000b23e0       ?UpdateMainGui@idMultiplayerGame@@QAEXXZ 200b33e0 f   MultiplayerGame.obj
 0001:000b2a10       ?PlayGlobalItemAcquireSound@idMultiplayerGame@@QAEXH@Z 200b3a10 f   MultiplayerGame.obj
 0001:000b2b20       ?PickMap@idMultiplayerGame@@QAE_NVidStr@@_N@Z 200b3b20 f   MultiplayerGame.obj
 0001:000b42a0       ?ClearVote@idMultiplayerGame@@QAEXH@Z 200b52a0 f   MultiplayerGame.obj
 0001:000b43e0       ?StartMenu@idMultiplayerGame@@QAEPAVidUserInterface@@XZ 200b53e0 f   MultiplayerGame.obj
 0001:000b5010       ?HandleGuiCommands@idMultiplayerGame@@QAEPBDPBD@Z 200b6010 f   MultiplayerGame.obj
 0001:000b8e40       ?WriteToSnapshot@idMultiplayerGame@@QBEXAAVidBitMsgDelta@@@Z 200b9e40 f   MultiplayerGame.obj
 0001:000b9080       ?ReadFromSnapshot@idMultiplayerGame@@QAEXABVidBitMsgDelta@@@Z 200ba080 f   MultiplayerGame.obj
 0001:000b9300       ?ShuffleTeams@idMultiplayerGame@@QAEXXZ 200ba300 f   MultiplayerGame.obj
 0001:000b9460       ?SetGameType@idMultiplayerGame@@QAEXXZ 200ba460 f   MultiplayerGame.obj
 0001:000b9900       ?GetGameState@idMultiplayerGame@@QAEPAVrvGameState@@XZ 200ba900 f   MultiplayerGame.obj
 0001:000b9910       ?PrintMessageEvent@idMultiplayerGame@@QAEXHW4msg_evt_t@@HH@Z 200ba910 f   MultiplayerGame.obj
 0001:000b9db0       ?PrintMessage@idMultiplayerGame@@QAEXHPBD@Z 200badb0 f   MultiplayerGame.obj
 0001:000b9e60       ?DisconnectClient@idMultiplayerGame@@QAEXH@Z 200bae60 f   MultiplayerGame.obj
 0001:000b9ee0       ?ForceReady_f@idMultiplayerGame@@SAXABVidCmdArgs@@@Z 200baee0 f   MultiplayerGame.obj
 0001:000b9f10       ?DropWeapon_f@idMultiplayerGame@@SAXABVidCmdArgs@@@Z 200baf10 f   MultiplayerGame.obj
 0001:000b9f80       ?MessageMode_f@idMultiplayerGame@@SAXABVidCmdArgs@@@Z 200baf80 f   MultiplayerGame.obj
 0001:000b9fa0       ?VoiceChat_f@idMultiplayerGame@@SAXABVidCmdArgs@@@Z 200bafa0 f   MultiplayerGame.obj
 0001:000b9fc0       ?VoiceChatTeam_f@idMultiplayerGame@@SAXABVidCmdArgs@@@Z 200bafc0 f   MultiplayerGame.obj
 0001:000b9fe0       ?VoiceMute_f@idMultiplayerGame@@SAXABVidCmdArgs@@@Z 200bafe0 f   MultiplayerGame.obj
 0001:000ba030       ?VoiceUnmute_f@idMultiplayerGame@@SAXABVidCmdArgs@@@Z 200bb030 f   MultiplayerGame.obj
 0001:000ba080       ?ForceTeamChange_f@idMultiplayerGame@@SAXABVidCmdArgs@@@Z 200bb080 f   MultiplayerGame.obj
 0001:000ba1d0       ?RemoveClientFromBanList_f@idMultiplayerGame@@SAXABVidCmdArgs@@@Z 200bb1d0 f   MultiplayerGame.obj
 0001:000ba2f0       ?CheckTeamBalance_f@idMultiplayerGame@@SAXABVidCmdArgs@@@Z 200bb2f0 f   MultiplayerGame.obj
 0001:000ba4c0       ?ProcessRconReturn@idMultiplayerGame@@QAEX_N@Z 200bb4c0 f   MultiplayerGame.obj
 0001:000ba4f0       ?Vote_f@idMultiplayerGame@@SAXABVidCmdArgs@@@Z 200bb4f0 f   MultiplayerGame.obj
 0001:000ba570       ?CallVote_f@idMultiplayerGame@@SAXABVidCmdArgs@@@Z 200bb570 f   MultiplayerGame.obj
 0001:000ba8f0       ?ClientCallVote@idMultiplayerGame@@QAEXW4vote_flags_t@1@PBD@Z 200bb8f0 f   MultiplayerGame.obj
 0001:000ba960       ?ServerCallVote@idMultiplayerGame@@QAEXHABVidBitMsg@@@Z 200bb960 f   MultiplayerGame.obj
 0001:000bb470       ?ClientStartVote@idMultiplayerGame@@QAEXHPBD@Z 200bc470 f   MultiplayerGame.obj
 0001:000bb600       ?ServerStartVote@idMultiplayerGame@@QAEXHW4vote_flags_t@1@PBD@Z 200bc600 f   MultiplayerGame.obj
 0001:000bb6b0       ?ClientUpdateVote@idMultiplayerGame@@QAEXW4vote_result_t@1@HHABUvoteStruct_t@@@Z 200bc6b0 f   MultiplayerGame.obj
 0001:000bbb30       ?CastVote@idMultiplayerGame@@QAEXH_N@Z 200bcb30 f   MultiplayerGame.obj
 0001:000bbc90       ?ExecuteVote@idMultiplayerGame@@QAEXXZ 200bcc90 f   MultiplayerGame.obj
 0001:000bbf00       ?ClientCallPackedVote@idMultiplayerGame@@QAEXABUvoteStruct_t@@@Z 200bcf00 f   MultiplayerGame.obj
 0001:000bc130       ?ServerCallPackedVote@idMultiplayerGame@@QAEXHABVidBitMsg@@@Z 200bd130 f   MultiplayerGame.obj
 0001:000bc880       ?ClientStartPackedVote@idMultiplayerGame@@QAEXHABUvoteStruct_t@@@Z 200bd880 f   MultiplayerGame.obj
 0001:000bd4e0       ?ServerStartPackedVote@idMultiplayerGame@@QAEXHABUvoteStruct_t@@@Z 200be4e0 f   MultiplayerGame.obj
 0001:000bd810       ?ExecutePackedVote@idMultiplayerGame@@QAEXXZ 200be810 f   MultiplayerGame.obj
 0001:000bdaf0       ?LocalizeGametype@idMultiplayerGame@@QAEPBDXZ 200beaf0 f   MultiplayerGame.obj
 0001:000bdc50       ?WantKilled@idMultiplayerGame@@QAEXH@Z 200bec50 f   MultiplayerGame.obj
 0001:000bdc90       ?NumActualClients@idMultiplayerGame@@QAEH_NPAH@Z 200bec90 f   MultiplayerGame.obj
 0001:000bdd40       ?DropWeapon@idMultiplayerGame@@QAEXH@Z 200bed40 f   MultiplayerGame.obj
 0001:000bdd80       ?MapRestart@idMultiplayerGame@@QAEXXZ 200bed80 f   MultiplayerGame.obj
 0001:000bde60       ?JoinTeam@idMultiplayerGame@@QAEXPBD@Z 200bee60 f   MultiplayerGame.obj
 0001:000be020       ?SwitchToTeam@idMultiplayerGame@@QAEXHHH@Z 200bf020 f   MultiplayerGame.obj
 0001:000be140       ?ProcessChatMessage@idMultiplayerGame@@QAEXH_NPBD11@Z 200bf140 f   MultiplayerGame.obj
 0001:000be4b0       ?ProcessVoiceChat@idMultiplayerGame@@QAEXH_NH@Z 200bf4b0 f   MultiplayerGame.obj
 0001:000be750       ?ClientVoiceMute@idMultiplayerGame@@QAEXH_N@Z 200bf750 f   MultiplayerGame.obj
 0001:000be890       ?GetClientNumFromPlayerName@idMultiplayerGame@@QAEHPBD@Z 200bf890 f   MultiplayerGame.obj
 0001:000be960       ?ServerHandleVoiceMuting@idMultiplayerGame@@QAEXHH_N@Z 200bf960 f   MultiplayerGame.obj
 0001:000beaa0       ?ClearAnnouncerSounds@idMultiplayerGame@@QAEXXZ 200bfaa0 f   MultiplayerGame.obj
 0001:000beb30       ?HandleServerAdminBanPlayer@idMultiplayerGame@@QAEXH@Z 200bfb30 f   MultiplayerGame.obj
 0001:000bec00       ?HandleServerAdminRemoveBan@idMultiplayerGame@@QAEXPBD@Z 200bfc00 f   MultiplayerGame.obj
 0001:000bec80       ?HandleServerAdminKickPlayer@idMultiplayerGame@@QAEXH@Z 200bfc80 f   MultiplayerGame.obj
 0001:000bed00       ?HandleServerAdminForceTeamSwitch@idMultiplayerGame@@QAEXH@Z 200bfd00 f   MultiplayerGame.obj
 0001:000beda0       ?HandleServerAdminCommands@idMultiplayerGame@@QAE_NAAUserverAdminData_t@1@@Z 200bfda0 f   MultiplayerGame.obj
 0001:000bf6a0       ?AddTeamPowerup@idMultiplayerGame@@QAEXHHH@Z 200c06a0 f   MultiplayerGame.obj
 0001:000bf740       ?UpdateTeamPowerups@idMultiplayerGame@@QAEXXZ 200c0740 f   MultiplayerGame.obj
 0001:000bf860       ?SetUpdateForTeamPowerups@idMultiplayerGame@@QAEXH@Z 200c0860 f   MultiplayerGame.obj
 0001:000bf8c0       ?Precache@idMultiplayerGame@@QAEXXZ 200c08c0 f   MultiplayerGame.obj
 0001:000bf940       ?ThrottleUserInfo@idMultiplayerGame@@QAEXXZ 200c0940 f   MultiplayerGame.obj
 0001:000bfa90       ?ToggleSpectate@idMultiplayerGame@@QAEXXZ 200c0a90 f   MultiplayerGame.obj
 0001:000bfb40       ?ToggleReady@idMultiplayerGame@@QAEXXZ 200c0b40 f   MultiplayerGame.obj
 0001:000bfbc0       ?ToggleTeam@idMultiplayerGame@@QAEXXZ 200c0bc0 f   MultiplayerGame.obj
 0001:000bfc10       ?EnterGame@idMultiplayerGame@@QAEXH@Z 200c0c10 f   MultiplayerGame.obj
 0001:000bfcd0       ?CanPlay@idMultiplayerGame@@QAE_NPAVidPlayer@@@Z 200c0cd0 f   MultiplayerGame.obj
 0001:000bfd10       ?WantRespawn@idMultiplayerGame@@QAE_NPAVidPlayer@@@Z 200c0d10 f   MultiplayerGame.obj
 0001:000bfd50       ?ServerWriteInitialReliableMessages@idMultiplayerGame@@QAEXH@Z 200c0d50 f   MultiplayerGame.obj
 0001:000bfe10       ?ClientReadStartState@idMultiplayerGame@@QAEXABVidBitMsg@@@Z 200c0e10 f   MultiplayerGame.obj
 0001:000bfee0       ?ServerClientConnect@idMultiplayerGame@@QAEXH@Z 200c0ee0 f   MultiplayerGame.obj
 0001:000bff20       ?PlayerStats@idMultiplayerGame@@QAEXHPADH@Z 200c0f20 f   MultiplayerGame.obj
 0001:000bffb0       ?AddTeamScore@idMultiplayerGame@@QAEXHH@Z 200c0fb0 f   MultiplayerGame.obj
 0001:000bffd0       ?AddPlayerScore@idMultiplayerGame@@QAEXPAVidPlayer@@H@Z 200c0fd0 f   MultiplayerGame.obj
 0001:000c0070       ?AddPlayerTeamScore@idMultiplayerGame@@QAEXPAVidPlayer@@H@Z 200c1070 f   MultiplayerGame.obj
 0001:000c0110       ?AddPlayerWin@idMultiplayerGame@@QAEXPAVidPlayer@@H@Z 200c1110 f   MultiplayerGame.obj
 0001:000c01b0       ?SetPlayerTeamScore@idMultiplayerGame@@QAEXPAVidPlayer@@H@Z 200c11b0 f   MultiplayerGame.obj
 0001:000c0240       ?SetPlayerDeadZoneScore@idMultiplayerGame@@QAEXPAVidPlayer@@M@Z 200c1240 f   MultiplayerGame.obj
 0001:000c02b0       ?SetPlayerScore@idMultiplayerGame@@QAEXPAVidPlayer@@H@Z 200c12b0 f   MultiplayerGame.obj
 0001:000c0330       ?SetPlayerWin@idMultiplayerGame@@QAEXPAVidPlayer@@H@Z 200c1330 f   MultiplayerGame.obj
 0001:000c03b0       ?ClearMap@idMultiplayerGame@@QAEXXZ 200c13b0 f   MultiplayerGame.obj
 0001:000c0500       ?EnableDamage@idMultiplayerGame@@QAEX_N@Z 200c1500 f   MultiplayerGame.obj
 0001:000c0550       ?GetScore@idMultiplayerGame@@QAEHPAVidPlayer@@@Z 200c1550 f   MultiplayerGame.obj
 0001:000c0570       ?GetTeamScore@idMultiplayerGame@@QAEHPAVidPlayer@@@Z 200c1570 f   MultiplayerGame.obj
 0001:000c0590       ?GetWins@idMultiplayerGame@@QAEHPAVidPlayer@@@Z 200c1590 f   MultiplayerGame.obj
 0001:000c05b0       ?GetTeamsTotalFrags@idMultiplayerGame@@QAEHH@Z 200c15b0 f   MultiplayerGame.obj
 0001:000c0620       ?GetTeamsTotalScore@idMultiplayerGame@@QAEHH@Z 200c1620 f   MultiplayerGame.obj
 0001:000c06a0       ?GetPlayerDeadZoneScore@idMultiplayerGame@@QAEMPAVidPlayer@@@Z 200c16a0 f   MultiplayerGame.obj
 0001:000c06d0       ?GetPlayerTime@idMultiplayerGame@@QAEHPAVidPlayer@@@Z 200c16d0 f   MultiplayerGame.obj
 0001:000c0700       ?GetLongGametypeName@idMultiplayerGame@@QAEPBDPBD@Z 200c1700 f   MultiplayerGame.obj
 0001:000c0880       ?GameTypeToVote@idMultiplayerGame@@QAEHPBD@Z 200c1880 f   MultiplayerGame.obj
 0001:000c0930       ?ReceiveRemoteConsoleOutput@idMultiplayerGame@@QAEXPBD@Z 200c1930 f   MultiplayerGame.obj
 0001:000c0c00       ?ClientSetInstance@idMultiplayerGame@@QAEXABVidBitMsg@@@Z 200c1c00 f   MultiplayerGame.obj
 0001:000c0cb0       ?ServerSetInstance@idMultiplayerGame@@QAEXH@Z 200c1cb0 f   MultiplayerGame.obj
 0001:000c0d00       ?AddPrivatePlayer@idMultiplayerGame@@QAEXH@Z 200c1d00 f   MultiplayerGame.obj
 0001:000c0f20       ?RemovePrivatePlayer@idMultiplayerGame@@QAEXH@Z 200c1f20 f   MultiplayerGame.obj
 0001:000c0f90       ?VerifyTeamSwitch@idMultiplayerGame@@QAEHHPAVidPlayer@@@Z 200c1f90 f   MultiplayerGame.obj
 0001:000c1080       ?RemoveAnnouncerSound@idMultiplayerGame@@QAEXH@Z 200c2080 f   MultiplayerGame.obj
 0001:000c1130       ?RemoveAnnouncerSoundRange@idMultiplayerGame@@QAEXHH@Z 200c2130 f   MultiplayerGame.obj
 0001:000c1220       ?ScheduleAnnouncerSound@idMultiplayerGame@@QAEXW4announcerSound_t@@MH_N@Z 200c2220 f   MultiplayerGame.obj
 0001:000c1320       ?ScheduleTimeAnnouncements@idMultiplayerGame@@QAEXXZ 200c2320 f   MultiplayerGame.obj
 0001:000c1430       ?SendDeathMessage@idMultiplayerGame@@QAEXPAVidPlayer@@0H@Z 200c2430 f   MultiplayerGame.obj
 0001:000c15e0       ?ReceiveDeathMessage@idMultiplayerGame@@QAEXPAVidPlayer@@H0HH@Z 200c25e0 f   MultiplayerGame.obj
 0001:000c1b70       ?NextAP@idMultiplayerGame@@QAEPAVrvCTF_AssaultPoint@@H@Z 200c2b70 f   MultiplayerGame.obj
 0001:000c1c20       ?ShowStatSummary@idMultiplayerGame@@QAEXXZ 200c2c20 f   MultiplayerGame.obj
 0001:000c1c90       ?CanCapture@idMultiplayerGame@@QAE_NH@Z 200c2c90 f   MultiplayerGame.obj
 0001:000c1d00       ?FlagCaptured@idMultiplayerGame@@QAEXPAVidPlayer@@@Z 200c2d00 f   MultiplayerGame.obj
 0001:000c1e30       ?UpdatePlayerRanks@idMultiplayerGame@@QAEXW4playerRankMode_t@@@Z 200c2e30 f   MultiplayerGame.obj
 0001:000c24c0       ?UpdateTeamRanks@idMultiplayerGame@@QAEXXZ 200c34c0 f   MultiplayerGame.obj
 0001:000c2500       ?UpdateHud@idMultiplayerGame@@QAEXPAVidUserInterface@@@Z 200c3500 f   MultiplayerGame.obj
 0001:000c32f0       ?FragLimitHit@idMultiplayerGame@@QAEPAVidPlayer@@XZ 200c42f0 f   MultiplayerGame.obj
 0001:000c3350       ?FragLeader@idMultiplayerGame@@QAEPAVidPlayer@@XZ 200c4350 f   MultiplayerGame.obj
 0001:000c34c0       ?TimeLimitHit@idMultiplayerGame@@QAE_NXZ 200c44c0 f   MultiplayerGame.obj
 0001:000c3510       ?SetFlagEntity@idMultiplayerGame@@QAEXPAVidEntity@@H@Z 200c4510 f   MultiplayerGame.obj
 0001:000c3550       ?GetFlagEntity@idMultiplayerGame@@QAEPAVidEntity@@H@Z 200c4550 f   MultiplayerGame.obj
 0001:000c3590       ?WriteNetworkInfo@idMultiplayerGame@@QAEXPAVidFile@@H@Z 200c4590 f   MultiplayerGame.obj
 0001:000c3610       ?ReadNetworkInfo@idMultiplayerGame@@QAEXPAVidFile@@H@Z 200c4610 f   MultiplayerGame.obj
 0001:000c3690       ?SetShaderParms@idMultiplayerGame@@QAEXPAUrenderView_s@@@Z 200c4690 f   MultiplayerGame.obj
 0001:000c36f0       ?NumberOfPlayersOnTeam@idMultiplayerGame@@QAEHH@Z 200c46f0 f   MultiplayerGame.obj
 0001:000c3750       ?NumberOfAlivePlayersOnTeam@idMultiplayerGame@@QAEHH@Z 200c4750 f   MultiplayerGame.obj
 0001:000c37c0       ?ReportZoneControllingPlayer@idMultiplayerGame@@QAEXPAVidPlayer@@@Z 200c47c0 f   MultiplayerGame.obj
 0001:000c3870       ?ReportZoneController@idMultiplayerGame@@QAEXHHHPAVidEntity@@@Z 200c4870 f   MultiplayerGame.obj
 0001:000c3ed0       ?IsValidTeam@idMultiplayerGame@@QAE_NH@Z 200c4ed0 f   MultiplayerGame.obj
 0001:000c3ef0       ?OpenLocalBuyMenu@idMultiplayerGame@@QAEXXZ 200c4ef0 f   MultiplayerGame.obj
 0001:000c3f20       ?RedrawLocalBuyMenu@idMultiplayerGame@@QAEXXZ 200c4f20 f   MultiplayerGame.obj
 0001:000c3f50       ?GiveCashToTeam@idMultiplayerGame@@QAEXHM@Z 200c4f50 f   MultiplayerGame.obj
 0001:000c3fc0       ?IsBuyingAllowedInTheCurrentGameMode@idMultiplayerGame@@QAE_NXZ 200c4fc0 f   MultiplayerGame.obj
 0001:000c4020       ?IsBuyingAllowedRightNow@idMultiplayerGame@@QAE_NXZ 200c5020 f   MultiplayerGame.obj
 0001:000c4040       ?SetupBuyMenuItems@idMultiplayerGame@@AAEXXZ 200c5040 f   MultiplayerGame.obj
 0001:000c42b0       ?UpdateRankColor@idMultiplayerGame@@AAEXPAVidUserInterface@@PBDHABVidVec3@@@Z 200c52b0 f   MultiplayerGame.obj
 0001:000c4300       ?UpdateTestScoreboard@idMultiplayerGame@@AAEXPAVidUserInterface@@@Z 200c5300 f   MultiplayerGame.obj
 0001:000c4910       ?UpdateScoreboard@idMultiplayerGame@@AAEXPAVidUserInterface@@@Z 200c5910 f   MultiplayerGame.obj
 0001:000c4970       ?UpdateDMScoreboard@idMultiplayerGame@@AAEXPAVidUserInterface@@@Z 200c5970 f   MultiplayerGame.obj
 0001:000c5720       ?UpdateTeamScoreboard@idMultiplayerGame@@AAEXPAVidUserInterface@@@Z 200c6720 f   MultiplayerGame.obj
 0001:000c6150       ?UpdateSummaryBoard@idMultiplayerGame@@AAEXPAVidUserInterface@@@Z 200c7150 f   MultiplayerGame.obj
 0001:000c6590       ?GetPlayerRank@idMultiplayerGame@@AAEHPAVidPlayer@@AA_N@Z 200c7590 f   MultiplayerGame.obj
 0001:000c6670       ?GetPlayerRankText@idMultiplayerGame@@AAEPADPAVidPlayer@@@Z 200c7670 f   MultiplayerGame.obj
 0001:000c66c0       ?GetPlayerRankText@idMultiplayerGame@@AAEPADH_NH@Z 200c76c0 f   MultiplayerGame.obj
 0001:000c6780       ?BuildSummaryListString@idMultiplayerGame@@AAEPBDPAVidPlayer@@H@Z 200c7780 f   MultiplayerGame.obj
 0001:000c6b30       ?UpdatePrivatePlayerCount@idMultiplayerGame@@AAEXXZ 200c7b30 f   MultiplayerGame.obj
 0001:000c6ba0       ?PlayAnnouncerSounds@idMultiplayerGame@@AAEXXZ 200c7ba0 f   MultiplayerGame.obj
 0001:000c6dd0       ?ClearTeamScores@idMultiplayerGame@@AAEXXZ 200c7dd0 f   MultiplayerGame.obj
 0001:000c6e00       ?ClearGuis@idMultiplayerGame@@AAEXXZ 200c7e00 f   MultiplayerGame.obj
 0001:000c7090       ?DrawScoreBoard@idMultiplayerGame@@AAEXPAVidPlayer@@@Z 200c8090 f   MultiplayerGame.obj
 0001:000c7160       ?CheckVote@idMultiplayerGame@@AAEXXZ 200c8160 f   MultiplayerGame.obj
 0001:000c7300       ?AllPlayersReady@idMultiplayerGame@@AAE_NPAVidStr@@@Z 200c8300 f   MultiplayerGame.obj
 0001:000c7580       ?GameTime@idMultiplayerGame@@AAEPBDXZ 200c8580 f   MultiplayerGame.obj
 0001:000c77b0       ?EnoughClientsToPlay@idMultiplayerGame@@AAE_NXZ 200c87b0 f   MultiplayerGame.obj
 0001:000c7820       ?DrawStatSummary@idMultiplayerGame@@AAEXXZ 200c8820 f   MultiplayerGame.obj
 0001:000c78b0       ?CheckRespawns@idMultiplayerGame@@AAEXPAVidPlayer@@@Z 200c88b0 f   MultiplayerGame.obj
 0001:000c7a50       ?FreeLight@idMultiplayerGame@@AAEXH@Z 200c8a50 f   MultiplayerGame.obj
 0001:000c7a90       ?UpdateLight@idMultiplayerGame@@AAEXHPAVidPlayer@@@Z 200c8a90 f   MultiplayerGame.obj
 0001:000c7b30       ?CheckSpecialLights@idMultiplayerGame@@AAEXXZ 200c8b30 f   MultiplayerGame.obj
 0001:000c7cf0       ?ForceReady@idMultiplayerGame@@AAEXXZ 200c8cf0 f   MultiplayerGame.obj
 0001:000c7d60       ?CheckAbortGame@idMultiplayerGame@@AAEXXZ 200c8d60 f   MultiplayerGame.obj
 0001:000c7dc0       ?MessageMode@idMultiplayerGame@@AAEXABVidCmdArgs@@@Z 200c8dc0 f   MultiplayerGame.obj
 0001:000c7e90       ?DisableMenu@idMultiplayerGame@@AAEXXZ 200c8e90 f   MultiplayerGame.obj
 0001:000c8030       ?SetMapShot@idMultiplayerGame@@AAEXXZ 200c9030 f   MultiplayerGame.obj
 0001:000c80e0       ?VoiceChat@idMultiplayerGame@@AAEXABVidCmdArgs@@_N@Z 200c90e0 f   MultiplayerGame.obj
 0001:000c8230       ?UpdateMPSettingsModel@idMultiplayerGame@@AAEXPAVidUserInterface@@@Z 200c9230 f   MultiplayerGame.obj
 0001:000c84a0       ?WriteStartState@idMultiplayerGame@@AAEXHAAVidBitMsg@@_N@Z 200c94a0 f   MultiplayerGame.obj
 0001:000c8570       ?ComparePlayersByScore@@YAHPBX0@Z 200c9570 f   MultiplayerGame.obj
 0001:000c8590       ?CompareTeamsByScore@@YAHPBX0@Z 200c9590 f   MultiplayerGame.obj
 0001:000c85b0       ?LocalServerRedirect@@YAXPBD@Z 200c95b0 f   MultiplayerGame.obj
 0001:000c85d0       ??4voteStruct_t@@QAEAAU0@ABU0@@Z 200c95d0 f i MultiplayerGame.obj
 0001:000c8660       ??_GannouncerSoundNode_s@idMultiplayerGame@@QAEPAXI@Z 200c9660 f i MultiplayerGame.obj
 0001:000c86b0       ?IsPlaying@rvTourneyArena@@QAE_NPAVidPlayer@@@Z 200c96b0 f i MultiplayerGame.obj
 0001:000c86e0       ?rvPairSecondCompareDirect@?$rvPair@HM@@SAHPBV1@0@Z 200c96e0 f i MultiplayerGame.obj
 0001:000c8730       ?DrawPlaybackDebugInfo@idGameEdit@@UAEXXZ 200c9730 f   Playback.obj
 0001:000c88a0       ?RecordPlayback@idGameEdit@@UAEXABVusercmd_t@@PAVidEntity@@@Z 200c98a0 f   Playback.obj
 0001:000c89a0       ?PlayPlayback@idGameEdit@@UAE_NXZ 200c99a0 f   Playback.obj
 0001:000c8a60       ?ShutdownPlaybacks@idGameEdit@@UAEXXZ 200c9a60 f   Playback.obj
 0001:000c8af0       ?Start@rvPlaybackDriver@@QAE_NPBDPAVidEntity@@HH@Z 200c9af0 f   Playback.obj
 0001:000c8c20       ?UpdateFrame@rvPlaybackDriver@@QAE_NPAVidEntity@@AAVrvDeclPlaybackData@@@Z 200c9c20 f   Playback.obj
 0001:000c8f90       ?Save@rvPlaybackDriver@@QBEXPAVidSaveGame@@@Z 200c9f90 f   Playback.obj
 0001:000c9000       ?Restore@rvPlaybackDriver@@QAEXPAVidRestoreGame@@@Z 200ca000 f   Playback.obj
 0001:000c9070       ??0rvGamePlayback@@QAE@XZ  200ca070 f   Playback.obj
 0001:000c92a0       ??1rvGamePlayback@@QAE@XZ  200ca2a0 f   Playback.obj
 0001:000c9340       ?RecordData@rvGamePlayback@@QAEXABVusercmd_t@@PAVidEntity@@@Z 200ca340 f   Playback.obj
 0001:000c9570       ?PlaybackCallback@@YAXHMPBX@Z 200ca570 f   Playback.obj
 0001:000c95d0       ??4rvDeclPlaybackData@@QAEAAV0@ABV0@@Z 200ca5d0 f i Playback.obj
 0001:000c9650       ?HandleCheats@idPlayer@@AAEXXZ 200ca650 f   Player_Cheats.obj
 0001:000c9660       ?ClearCheatState@idPlayer@@AAEXXZ 200ca660 f   Player_Cheats.obj
 0001:000c96b0       ?RegisterClassA@idProjectile@@SAXXZ 200ca6b0 f   Projectile.obj
 0001:000c9740       ?CreateInstance@idProjectile@@SAPAVidClass@@XZ 200ca740 f   Projectile.obj
 0001:000c97e0       ?GetClassType@idProjectile@@SAAAVidTypeInfo@@XZ 200ca7e0 f   Projectile.obj
 0001:000c97f0       ?GetType@idProjectile@@UBEPAVidTypeInfo@@XZ 200ca7f0 f   Projectile.obj
 0001:000c9800       ??0idProjectile@@QAE@XZ    200ca800 f   Projectile.obj
 0001:000c9c20       ??1idProjectile@@UAE@XZ    200cac20 f   Projectile.obj
 0001:000c9cd0       ?Spawn@idProjectile@@QAEXXZ 200cacd0 f   Projectile.obj
 0001:000c9e20       ?Save@idProjectile@@QBEXPAVidSaveGame@@@Z 200cae20 f   Projectile.obj
 0001:000c9fa0       ?Restore@idProjectile@@QAEXPAVidRestoreGame@@@Z 200cafa0 f   Projectile.obj
 0001:000ca140       ?Create@idProjectile@@QAEXPAVidEntity@@ABVidVec3@@100@Z 200cb140 f   Projectile.obj
 0001:000ca5d0       ?Launch@idProjectile@@UAEXABVidVec3@@00MMVidStr@@@Z 200cb5d0 f   Projectile.obj
 0001:000cb320       ?FreeLightDef@idProjectile@@UAEXXZ 200cc320 f   Projectile.obj
 0001:000cb350       ?GetOwner@idProjectile@@QBEPAVidEntity@@XZ 200cc350 f   Projectile.obj
 0001:000cb380       ?Think@idProjectile@@UAEXXZ 200cc380 f   Projectile.obj
 0001:000cb930       ?Killed@idProjectile@@UAEXPAVidEntity@@0HABVidVec3@@H@Z 200cc930 f   Projectile.obj
 0001:000cb9b0       ?GetPhysicsToVisualTransform@idProjectile@@UAE_NAAVidVec3@@AAVidMat3@@@Z 200cc9b0 f   Projectile.obj
 0001:000cbc20       ?Collide@idProjectile@@UAE_NABUtrace_t@@ABVidVec3@@@Z 200ccc20 f   Projectile.obj
 0001:000cbc50       ?Collide@idProjectile@@UAE_NABUtrace_t@@ABVidVec3@@AA_N@Z 200ccc50 f   Projectile.obj
 0001:000ccdf0       ?Explode@idProjectile@@UAEXPBUtrace_t@@_NPAVidEntity@@PBD@Z 200cddf0 f   Projectile.obj
 0001:000cd440       ?Fizzle@idProjectile@@QAEXXZ 200ce440 f   Projectile.obj
 0001:000cd590       ?GetVelocity@idProjectile@@SA?AVidVec3@@PBVidDict@@@Z 200ce590 f   Projectile.obj
 0001:000cd5f0       ?GetGravity@idProjectile@@SA?AVidVec3@@PBVidDict@@@Z 200ce5f0 f   Projectile.obj
 0001:000cd680       ?SetSpeed@idProjectile@@QAEXMH@Z 200ce680 f   Projectile.obj
 0001:000cd830       ?UpdateVisualAngles@idProjectile@@UAEXXZ 200ce830 f   Projectile.obj
 0001:000cdcf0       ?ClientPredictionThink@idProjectile@@UAEXXZ 200cecf0 f   Projectile.obj
 0001:000cde60       ?WriteToSnapshot@idProjectile@@UBEXAAVidBitMsgDelta@@@Z 200cee60 f   Projectile.obj
 0001:000cdf20       ?ReadFromSnapshot@idProjectile@@UAEXABVidBitMsgDelta@@@Z 200cef20 f   Projectile.obj
 0001:000ce210       ?ClientStale@idProjectile@@UAE_NXZ 200cf210 f   Projectile.obj
 0001:000ce220       ?SpawnImpactEntities@idProjectile@@IAEXABUtrace_t@@VidVec3@@@Z 200cf220 f   Projectile.obj
 0001:000ce9b0       ?PlayPainEffect@idProjectile@@IAEXPAVidEntity@@HPBVrvDeclMatType@@ABVidVec3@@2@Z 200cf9b0 f   Projectile.obj
 0001:000ceaa0       ?PlayDetonateEffect@idProjectile@@MAEXABVidVec3@@ABVidMat3@@@Z 200cfaa0 f   Projectile.obj
 0001:000ceca0       ?DefaultDamageEffect@idProjectile@@AAEXABUtrace_t@@ABVidVec3@@PBD@Z 200cfca0 f   Projectile.obj
 0001:000cf060       ?Event_Explode@idProjectile@@AAEXXZ 200d0060 f   Projectile.obj
 0001:000cf090       ?Event_Fizzle@idProjectile@@AAEXXZ 200d0090 f   Projectile.obj
 0001:000cf0b0       ?Event_RadiusDamage@idProjectile@@AAEXPAVidEntity@@@Z 200d00b0 f   Projectile.obj
 0001:000cf140       ?Event_ResidualDamage@idProjectile@@AAEXPAVidEntity@@@Z 200d0140 f   Projectile.obj
 0001:000cf220       ?Event_Touch@idProjectile@@AAEXPAVidEntity@@PAUtrace_t@@@Z 200d0220 f   Projectile.obj
 0001:000cf300       ?RegisterClassA@idGuidedProjectile@@SAXXZ 200d0300 f   Projectile.obj
 0001:000cf390       ?CreateInstance@idGuidedProjectile@@SAPAVidClass@@XZ 200d0390 f   Projectile.obj
 0001:000cf430       ?GetClassType@idGuidedProjectile@@SAAAVidTypeInfo@@XZ 200d0430 f   Projectile.obj
 0001:000cf440       ?GetType@idGuidedProjectile@@UBEPAVidTypeInfo@@XZ 200d0440 f   Projectile.obj
 0001:000cf450       ??0idGuidedProjectile@@QAE@XZ 200d0450 f   Projectile.obj
 0001:000cf510       ??1idGuidedProjectile@@UAE@XZ 200d0510 f   Projectile.obj
 0001:000cf530       ?Save@idGuidedProjectile@@QBEXPAVidSaveGame@@@Z 200d0530 f   Projectile.obj
 0001:000cf6b0       ?Restore@idGuidedProjectile@@QAEXPAVidRestoreGame@@@Z 200d06b0 f   Projectile.obj
 0001:000cf810       ?Think@idGuidedProjectile@@UAEXXZ 200d0810 f   Projectile.obj
 0001:000cff10       ?Launch@idGuidedProjectile@@UAEXABVidVec3@@00MM@Z 200d0f10 f   Projectile.obj
 0001:000d0600       ?Killed@idGuidedProjectile@@UAEXPAVidEntity@@0HABVidVec3@@H@Z 200d1600 f   Projectile.obj
 0001:000d0670       ?GetGuideDir@idGuidedProjectile@@MAE_NAAVidVec3@@AAM@Z 200d1670 f   Projectile.obj
 0001:000d12c0       ?RegisterClassA@rvDriftingProjectile@@SAXXZ 200d22c0 f   Projectile.obj
 0001:000d1350       ?CreateInstance@rvDriftingProjectile@@SAPAVidClass@@XZ 200d2350 f   Projectile.obj
 0001:000d13f0       ?GetClassType@rvDriftingProjectile@@SAAAVidTypeInfo@@XZ 200d23f0 f   Projectile.obj
 0001:000d1400       ?GetType@rvDriftingProjectile@@UBEPAVidTypeInfo@@XZ 200d2400 f   Projectile.obj
 0001:000d1410       ??0rvDriftingProjectile@@QAE@XZ 200d2410 f   Projectile.obj
 0001:000d1530       ??1rvDriftingProjectile@@UAE@XZ 200d2530 f   Projectile.obj
 0001:000d1540       ?Save@rvDriftingProjectile@@QBEXPAVidSaveGame@@@Z 200d2540 f   Projectile.obj
 0001:000d1600       ?Restore@rvDriftingProjectile@@QAEXPAVidRestoreGame@@@Z 200d2600 f   Projectile.obj
 0001:000d16a0       ?Think@rvDriftingProjectile@@UAEXXZ 200d26a0 f   Projectile.obj
 0001:000d4970       ?Launch@rvDriftingProjectile@@UAEXABVidVec3@@00MM@Z 200d5970 f   Projectile.obj
 0001:000d4b60       ?UpdateVisualAngles@rvDriftingProjectile@@MAEXXZ 200d5b60 f   Projectile.obj
 0001:000d4c20       ?RegisterClassA@rvSpawnerProjectile@@SAXXZ 200d5c20 f   Projectile.obj
 0001:000d4cb0       ?CreateInstance@rvSpawnerProjectile@@SAPAVidClass@@XZ 200d5cb0 f   Projectile.obj
 0001:000d4d50       ?GetClassType@rvSpawnerProjectile@@SAAAVidTypeInfo@@XZ 200d5d50 f   Projectile.obj
 0001:000d4d60       ?GetType@rvSpawnerProjectile@@UBEPAVidTypeInfo@@XZ 200d5d60 f   Projectile.obj
 0001:000d4d70       ??0rvSpawnerProjectile@@QAE@XZ 200d5d70 f   Projectile.obj
 0001:000d4da0       ??1rvSpawnerProjectile@@UAE@XZ 200d5da0 f   Projectile.obj
 0001:000d4e50       ?Spawn@rvSpawnerProjectile@@QAEXXZ 200d5e50 f   Projectile.obj
 0001:000d4e80       ?Think@rvSpawnerProjectile@@UAEXXZ 200d5e80 f   Projectile.obj
 0001:000d4f20       ?SetSpawner@rvSpawnerProjectile@@QAEXPAVrvSpawner@@@Z 200d5f20 f   Projectile.obj
 0001:000d4f50       ?Event_PostSpawn@rvSpawnerProjectile@@AAEXXZ 200d5f50 f   Projectile.obj
 0001:000d5010       ?RegisterClassA@rvMIRVProjectile@@SAXXZ 200d6010 f   Projectile.obj
 0001:000d50a0       ?CreateInstance@rvMIRVProjectile@@SAPAVidClass@@XZ 200d60a0 f   Projectile.obj
 0001:000d5140       ?GetClassType@rvMIRVProjectile@@SAAAVidTypeInfo@@XZ 200d6140 f   Projectile.obj
 0001:000d5150       ?GetType@rvMIRVProjectile@@UBEPAVidTypeInfo@@XZ 200d6150 f   Projectile.obj
 0001:000d5160       ??0rvMIRVProjectile@@QAE@XZ 200d6160 f   Projectile.obj
 0001:000d5180       ??1rvMIRVProjectile@@UAE@XZ 200d6180 f   Projectile.obj
 0001:000d5190       ?Spawn@rvMIRVProjectile@@QAEXXZ 200d6190 f   Projectile.obj
 0001:000d51e0       ?Event_LaunchWarheads@rvMIRVProjectile@@AAEXXZ 200d61e0 f   Projectile.obj
 0001:000d5570       ?Register_idProjectile@@YAXXZ 200d6570 f   Projectile.obj
 0001:000d5580       ?Register_idGuidedProjectile@@YAXXZ 200d6580 f   Projectile.obj
 0001:000d5590       ?Register_rvDriftingProjectile@@YAXXZ 200d6590 f   Projectile.obj
 0001:000d55a0       ?Register_rvSpawnerProjectile@@YAXXZ 200d65a0 f   Projectile.obj
 0001:000d55b0       ?Register_rvMIRVProjectile@@YAXXZ 200d65b0 f   Projectile.obj
 0001:000d55c0       ??1rvSphericalInterpolate@@UAE@XZ 200d65c0 f i Projectile.obj
 0001:000d55d0       ??_E?$idInterpolate@VidQuat@@@@UAEPAXI@Z 200d65d0 f i Projectile.obj
 0001:000d55d0       ??_G?$idInterpolate@VidQuat@@@@UAEPAXI@Z 200d65d0 f i Projectile.obj
 0001:000d55d0       ??_ErvSphericalInterpolate@@UAEPAXI@Z 200d65d0 f i Projectile.obj
 0001:000d55d0       ??_GrvSphericalInterpolate@@UAEPAXI@Z 200d65d0 f i Projectile.obj
 0001:000d5620       ??_EidGuidedProjectile@@UAEPAXI@Z 200d6620 f i Projectile.obj
 0001:000d5620       ??_GidGuidedProjectile@@UAEPAXI@Z 200d6620 f i Projectile.obj
 0001:000d5650       ??_GidProjectile@@UAEPAXI@Z 200d6650 f i Projectile.obj
 0001:000d5650       ??_EidProjectile@@UAEPAXI@Z 200d6650 f i Projectile.obj
 0001:000d5680       ??_ErvDriftingProjectile@@UAEPAXI@Z 200d6680 f i Projectile.obj
 0001:000d5680       ??_GrvDriftingProjectile@@UAEPAXI@Z 200d6680 f i Projectile.obj
 0001:000d56b0       ??_ErvMIRVProjectile@@UAEPAXI@Z 200d66b0 f i Projectile.obj
 0001:000d56b0       ??_GrvMIRVProjectile@@UAEPAXI@Z 200d66b0 f i Projectile.obj
 0001:000d56e0       ??_GrvSpawnerProjectile@@UAEPAXI@Z 200d66e0 f i Projectile.obj
 0001:000d56e0       ??_ErvSpawnerProjectile@@UAEPAXI@Z 200d66e0 f i Projectile.obj
 0001:000d5710       ?GetCurrentValue@?$idInterpolate@VidQuat@@@@UBE?AVidQuat@@M@Z 200d6710 f i Projectile.obj
 0001:000d5820       ?GetCurrentValue@rvSphericalInterpolate@@UBE?AVidQuat@@M@Z 200d6820 f i Projectile.obj
 0001:000d58b0       ?GetDeltaValue@?$idInterpolate@VidQuat@@@@UBE?AVidQuat@@MM@Z 200d68b0 f i Projectile.obj
 0001:000d5930       ?SinusoidalMidPoint@@YAMM@Z 200d6930 f i Projectile.obj
 0001:000d5990       ??0idPVS@@QAE@XZ           200d6990 f   Pvs.obj
 0001:000d59f0       ??1idPVS@@QAE@XZ           200d69f0 f   Pvs.obj
 0001:000d5a00       ?Init@idPVS@@QAEXXZ        200d6a00 f   Pvs.obj
 0001:000d5cf0       ?Shutdown@idPVS@@QAEXXZ    200d6cf0 f   Pvs.obj
 0001:000d5de0       ?GetPVSArea@idPVS@@QBEHABVidVec3@@@Z 200d6de0 f   Pvs.obj
 0001:000d5e00       ?GetPVSAreas@idPVS@@QBEHABVidBounds@@PAHH@Z 200d6e00 f   Pvs.obj
 0001:000d5e20       ?SetupCurrentPVS@idPVS@@QBE?AUpvsHandle_s@@ABVidVec3@@W4pvsType_t@@@Z 200d6e20 f   Pvs.obj
 0001:000d5e50       ?SetupCurrentPVS@idPVS@@QBE?AUpvsHandle_s@@ABVidBounds@@W4pvsType_t@@@Z 200d6e50 f   Pvs.obj
 0001:000d5e90       ?SetupCurrentPVS@idPVS@@QBE?AUpvsHandle_s@@HW4pvsType_t@@@Z 200d6e90 f   Pvs.obj
 0001:000d5fa0       ?SetupCurrentPVS@idPVS@@QBE?AUpvsHandle_s@@PBHHW4pvsType_t@@@Z 200d6fa0 f   Pvs.obj
 0001:000d6160       ?MergeCurrentPVS@idPVS@@QBE?AUpvsHandle_s@@U2@0@Z 200d7160 f   Pvs.obj
 0001:000d6220       ?FreeCurrentPVS@idPVS@@QBEXUpvsHandle_s@@@Z 200d7220 f   Pvs.obj
 0001:000d6270       ?InCurrentPVS@idPVS@@QBE_NUpvsHandle_s@@ABVidVec3@@@Z 200d7270 f   Pvs.obj
 0001:000d62f0       ?InCurrentPVS@idPVS@@QBE_NUpvsHandle_s@@ABVidBounds@@@Z 200d72f0 f   Pvs.obj
 0001:000d6390       ?InCurrentPVS@idPVS@@QBE_NUpvsHandle_s@@H@Z 200d7390 f   Pvs.obj
 0001:000d6400       ?InCurrentPVS@idPVS@@QBE_NUpvsHandle_s@@PBHH@Z 200d7400 f   Pvs.obj
 0001:000d6490       ?DrawPVS@idPVS@@QBEXABVidVec3@@W4pvsType_t@@@Z 200d7490 f   Pvs.obj
 0001:000d66a0       ?DrawPVS@idPVS@@QBEXABVidBounds@@W4pvsType_t@@@Z 200d76a0 f   Pvs.obj
 0001:000d68d0       ?DrawCurrentPVS@idPVS@@QBEXUpvsHandle_s@@ABVidVec3@@@Z 200d78d0 f   Pvs.obj
 0001:000d6ad0       ?GetPortalCount@idPVS@@ABEHXZ 200d7ad0 f   Pvs.obj
 0001:000d6b10       ?CreatePVSData@idPVS@@AAEXXZ 200d7b10 f   Pvs.obj
 0001:000d6e90       ?DestroyPVSData@idPVS@@AAEXXZ 200d7e90 f   Pvs.obj
 0001:000d6ff0       ?CopyPortalPVSToMightSee@idPVS@@ABEXXZ 200d7ff0 f   Pvs.obj
 0001:000d7030       ?FloodFrontPortalPVS_r@idPVS@@ABEXPAUpvsPortal_s@@H@Z 200d8030 f   Pvs.obj
 0001:000d70c0       ?FrontPortalPVS@idPVS@@ABEXXZ 200d80c0 f   Pvs.obj
 0001:000d7330       ?FloodPassagePVS_r@idPVS@@ABEPAUpvsStack_s@@PAUpvsPortal_s@@PBU3@PAU2@@Z 200d8330 f   Pvs.obj
 0001:000d7520       ?PassagePVS@idPVS@@ABEXXZ  200d8520 f   Pvs.obj
 0001:000d7620       ?AddPassageBoundaries@idPVS@@ABEXABVidWinding@@0_NPAVidPlane@@AAHH@Z 200d8620 f   Pvs.obj
 0001:000d7a80       ?CreatePassages@idPVS@@ABEXXZ 200d8a80 f   Pvs.obj
 0001:000d7ec0       ?DestroyPassages@idPVS@@ABEXXZ 200d8ec0 f   Pvs.obj
 0001:000d7f80       ?AreaPVSFromPortalPVS@idPVS@@ABEHXZ 200d8f80 f   Pvs.obj
 0001:000d8130       ?GetConnectedAreas@idPVS@@ABEXHPA_N@Z 200d9130 f   Pvs.obj
 0001:000d81f0       ?AllocCurrentPVS@idPVS@@ABE?AUpvsHandle_s@@I@Z 200d91f0 f   Pvs.obj
 0001:000d8260       ?RegisterClassA@idSecurityCamera@@SAXXZ 200d9260 f   SecurityCamera.obj
 0001:000d82f0       ?CreateInstance@idSecurityCamera@@SAPAVidClass@@XZ 200d92f0 f   SecurityCamera.obj
 0001:000d8410       ?GetClassType@idSecurityCamera@@SAAAVidTypeInfo@@XZ 200d9410 f   SecurityCamera.obj
 0001:000d8420       ?GetType@idSecurityCamera@@UBEPAVidTypeInfo@@XZ 200d9420 f   SecurityCamera.obj
 0001:000d8430       ??1idSecurityCamera@@UAE@XZ 200d9430 f   SecurityCamera.obj
 0001:000d8490       ?Spawn@idSecurityCamera@@QAEXXZ 200d9490 f   SecurityCamera.obj
 0001:000d8890       ?Save@idSecurityCamera@@QBEXPAVidSaveGame@@@Z 200d9890 f   SecurityCamera.obj
 0001:000d89d0       ?Restore@idSecurityCamera@@QAEXPAVidRestoreGame@@@Z 200d99d0 f   SecurityCamera.obj
 0001:000d8ae0       ?Think@idSecurityCamera@@UAEXXZ 200d9ae0 f   SecurityCamera.obj
 0001:000d8ce0       ?GetRenderView@idSecurityCamera@@UAEPAUrenderView_s@@XZ 200d9ce0 f   SecurityCamera.obj
 0001:000d8db0       ?Killed@idSecurityCamera@@UAEXPAVidEntity@@0HABVidVec3@@H@Z 200d9db0 f   SecurityCamera.obj
 0001:000d8f70       ?Pain@idSecurityCamera@@UAE_NPAVidEntity@@0HABVidVec3@@H@Z 200d9f70 f   SecurityCamera.obj
 0001:000d8fc0       ?Present@idSecurityCamera@@UAEXXZ 200d9fc0 f   SecurityCamera.obj
 0001:000d9030       ?StartSweep@idSecurityCamera@@AAEXXZ 200da030 f   SecurityCamera.obj
 0001:000d90c0       ?CanSeePlayer@idSecurityCamera@@AAE_NXZ 200da0c0 f   SecurityCamera.obj
 0001:000d9330       ?SetAlertMode@idSecurityCamera@@AAEXH@Z 200da330 f   SecurityCamera.obj
 0001:000d9360       ?DrawFov@idSecurityCamera@@AAEXXZ 200da360 f   SecurityCamera.obj
 0001:000d9c40       ?GetAxis@idSecurityCamera@@ABE?BVidVec3@@XZ 200dac40 f   SecurityCamera.obj
 0001:000d9ce0       ?SweepSpeed@idSecurityCamera@@ABEMXZ 200dace0 f   SecurityCamera.obj
 0001:000d9d30       ?Event_ReverseSweep@idSecurityCamera@@AAEXXZ 200dad30 f   SecurityCamera.obj
 0001:000d9d80       ?Event_ContinueSweep@idSecurityCamera@@AAEXXZ 200dad80 f   SecurityCamera.obj
 0001:000d9e60       ?Event_Pause@idSecurityCamera@@AAEXXZ 200dae60 f   SecurityCamera.obj
 0001:000d9ee0       ?Event_Alert@idSecurityCamera@@AAEXXZ 200daee0 f   SecurityCamera.obj
 0001:000d9f70       ?Event_AddLight@idSecurityCamera@@AAEXXZ 200daf70 f   SecurityCamera.obj
 0001:000da730       ?Register_idSecurityCamera@@YAXXZ 200db730 f   SecurityCamera.obj
 0001:000da740       ??_EidSecurityCamera@@UAEPAXI@Z 200db740 f i SecurityCamera.obj
 0001:000da740       ??_GidSecurityCamera@@UAEPAXI@Z 200db740 f i SecurityCamera.obj
 0001:000da770       ?RegisterClassA@idSound@@SAXXZ 200db770 f   Sound.obj
 0001:000da800       ?CreateInstance@idSound@@SAPAVidClass@@XZ 200db800 f   Sound.obj
 0001:000da8a0       ?GetClassType@idSound@@SAAAVidTypeInfo@@XZ 200db8a0 f   Sound.obj
 0001:000da8b0       ?GetType@idSound@@UBEPAVidTypeInfo@@XZ 200db8b0 f   Sound.obj
 0001:000da8c0       ??0idSound@@QAE@XZ         200db8c0 f   Sound.obj
 0001:000da950       ?Save@idSound@@QBEXPAVidSaveGame@@@Z 200db950 f   Sound.obj
 0001:000da9f0       ?Restore@idSound@@QAEXPAVidRestoreGame@@@Z 200db9f0 f   Sound.obj
 0001:000daa70       ?UpdateChangeableSpawnArgs@idSound@@UAEXPBVidDict@@@Z 200dba70 f   Sound.obj
 0001:000dad40       ?Spawn@idSound@@QAEXXZ     200dbd40 f   Sound.obj
 0001:000daf30       ?Think@idSound@@UAEXXZ     200dbf30 f   Sound.obj
 0001:000daf50       ?SetSound@idSound@@QAEXPBDH@Z 200dbf50 f   Sound.obj
 0001:000dafe0       ?ShowEditingDialog@idSound@@UAEXXZ 200dbfe0 f   Sound.obj
 0001:000db000       ?Event_Trigger@idSound@@AAEXPAVidEntity@@@Z 200dc000 f   Sound.obj
 0001:000db100       ?Event_Timer@idSound@@AAEXXZ 200dc100 f   Sound.obj
 0001:000db170       ?Event_On@idSound@@AAEXXZ  200dc170 f   Sound.obj
 0001:000db1f0       ?Event_Off@idSound@@AAEXXZ 200dc1f0 f   Sound.obj
 0001:000db220       ?DoSound@idSound@@AAEX_N@Z 200dc220 f   Sound.obj
 0001:000db270       ?SetTargetSoundHandles@idSound@@AAEXXZ 200dc270 f   Sound.obj
 0001:000db320       ?FindTargets@idSound@@EAEXXZ 200dc320 f   Sound.obj
 0001:000db370       ?GetPhysicsToSoundTransform@idSound@@EAE_NAAVidVec3@@AAVidMat3@@@Z 200dc370 f   Sound.obj
 0001:000db5c0       ?Register_idSound@@YAXXZ   200dc5c0 f   Sound.obj
 0001:000db5d0       ?ShouldAccelerate@splinePState_t@@QBE_NXZ 200dc5d0 f   SplineMover.obj
 0001:000db680       ?ShouldDecelerate@splinePState_t@@QBE_NXZ 200dc680 f   SplineMover.obj
 0001:000db730       ?ApplyAccelerationDelta@splinePState_t@@QAEXM@Z 200dc730 f   SplineMover.obj
 0001:000db7b0       ?ApplyDecelerationDelta@splinePState_t@@QAEXM@Z 200dc7b0 f   SplineMover.obj
 0001:000db830       ?UpdateDist@splinePState_t@@QAEXM@Z 200dc830 f   SplineMover.obj
 0001:000db850       ?Clear@splinePState_t@@QAEXXZ 200dc850 f   SplineMover.obj
 0001:000db990       ?WriteToSnapshot@splinePState_t@@QBEXAAVidBitMsgDelta@@@Z 200dc990 f   SplineMover.obj
 0001:000dbb70       ?ReadFromSnapshot@splinePState_t@@QAEXABVidBitMsgDelta@@@Z 200dcb70 f   SplineMover.obj
 0001:000dbde0       ?Save@splinePState_t@@QBEXPAVidSaveGame@@@Z 200dcde0 f   SplineMover.obj
 0001:000dbe80       ?Restore@splinePState_t@@QAEXPAVidRestoreGame@@@Z 200dce80 f   SplineMover.obj
 0001:000dbef0       ?Assign@splinePState_t@@QAEAAU1@PBU1@@Z 200dcef0 f   SplineMover.obj
 0001:000dbf20       ??4splinePState_t@@QAEAAU0@ABU0@@Z 200dcf20 f   SplineMover.obj
 0001:000dbf30       ??4splinePState_t@@QAEAAU0@PBU0@@Z 200dcf30 f   SplineMover.obj
 0001:000dbf40       ?RegisterClassA@rvPhysics_Spline@@SAXXZ 200dcf40 f   SplineMover.obj
 0001:000dbfd0       ?CreateInstance@rvPhysics_Spline@@SAPAVidClass@@XZ 200dcfd0 f   SplineMover.obj
 0001:000dc070       ?GetClassType@rvPhysics_Spline@@SAAAVidTypeInfo@@XZ 200dd070 f   SplineMover.obj
 0001:000dc080       ?GetType@rvPhysics_Spline@@UBEPAVidTypeInfo@@XZ 200dd080 f   SplineMover.obj
 0001:000dc090       ??0rvPhysics_Spline@@QAE@XZ 200dd090 f   SplineMover.obj
 0001:000dc170       ??1rvPhysics_Spline@@UAE@XZ 200dd170 f   SplineMover.obj
 0001:000dc230       ?Save@rvPhysics_Spline@@QBEXPAVidSaveGame@@@Z 200dd230 f   SplineMover.obj
 0001:000dc2a0       ?Event_PostRestore@rvPhysics_Spline@@QAEXXZ 200dd2a0 f   SplineMover.obj
 0001:000dc300       ?Restore@rvPhysics_Spline@@QAEXPAVidRestoreGame@@@Z 200dd300 f   SplineMover.obj
 0001:000dc390       ?SetSpline@rvPhysics_Spline@@QAEXPAV?$idCurve_Spline@VidVec3@@@@@Z 200dd390 f   SplineMover.obj
 0001:000dcad0       ?SetSplineEntity@rvPhysics_Spline@@QAEXPAVidSplinePath@@@Z 200ddad0 f   SplineMover.obj
 0001:000dcb20       ?SetLinearAcceleration@rvPhysics_Spline@@QAEXM@Z 200ddb20 f   SplineMover.obj
 0001:000dcb40       ?SetLinearDeceleration@rvPhysics_Spline@@QAEXM@Z 200ddb40 f   SplineMover.obj
 0001:000dcb60       ?SetSpeed@rvPhysics_Spline@@QAEXM@Z 200ddb60 f   SplineMover.obj
 0001:000dcbd0       ?GetSpeed@rvPhysics_Spline@@QBEMXZ 200ddbd0 f   SplineMover.obj
 0001:000dcbe0       ?StartingToMove@rvPhysics_Spline@@UBE_NXZ 200ddbe0 f   SplineMover.obj
 0001:000dcc50       ?StoppedMoving@rvPhysics_Spline@@UBE_NXZ 200ddc50 f   SplineMover.obj
 0001:000dcca0       ?ComputeDecelFromSpline@rvPhysics_Spline@@QBEMXZ 200ddca0 f   SplineMover.obj
 0001:000dcd20       ?SetClipModel@rvPhysics_Spline@@UAEXPAVidClipModel@@MH_N@Z 200ddd20 f   SplineMover.obj
 0001:000dcd90       ?GetClipModel@rvPhysics_Spline@@UBEPAVidClipModel@@H@Z 200ddd90 f   SplineMover.obj
 0001:000dcda0       ?SetContents@rvPhysics_Spline@@UAEXHH@Z 200ddda0 f   SplineMover.obj
 0001:000dcdc0       ?GetContents@rvPhysics_Spline@@UBEHH@Z 200dddc0 f   SplineMover.obj
 0001:000dcdd0       ?GetBounds@rvPhysics_Spline@@UBEABVidBounds@@H@Z 200dddd0 f   SplineMover.obj
 0001:000dcde0       ?GetAbsBounds@rvPhysics_Spline@@UBEABVidBounds@@H@Z 200ddde0 f   SplineMover.obj
 0001:000dcdf0       ?Evaluate@rvPhysics_Spline@@UAE_NHH@Z 200dddf0 f   SplineMover.obj
 0001:000ddad0       ?Activate@rvPhysics_Spline@@UAEXXZ 200dead0 f   SplineMover.obj
 0001:000ddae0       ?Rest@rvPhysics_Spline@@QAEXXZ 200deae0 f   SplineMover.obj
 0001:000ddaf0       ?IsAtRest@rvPhysics_Spline@@UBE_NXZ 200deaf0 f   SplineMover.obj
 0001:000ddb10       ?IsAtEndOfSpline@rvPhysics_Spline@@QBE_NXZ 200deb10 f   SplineMover.obj
 0001:000ddb30       ?IsAtBeginningOfSpline@rvPhysics_Spline@@QBE_NXZ 200deb30 f   SplineMover.obj
 0001:000ddb40       ?IsPushable@rvPhysics_Spline@@UBE_NXZ 200deb40 f   SplineMover.obj
 0001:000ddb60       ?HasValidSpline@rvPhysics_Spline@@QBE_NXZ 200deb60 f   SplineMover.obj
 0001:000ddb80       ?SaveState@rvPhysics_Spline@@UAEXXZ 200deb80 f   SplineMover.obj
 0001:000ddb90       ?RestoreState@rvPhysics_Spline@@UAEXXZ 200deb90 f   SplineMover.obj
 0001:000ddbb0       ?SetOrigin@rvPhysics_Spline@@UAEXABVidVec3@@H@Z 200debb0 f   SplineMover.obj
 0001:000ddcb0       ?SetAxis@rvPhysics_Spline@@UAEXABVidMat3@@H@Z 200decb0 f   SplineMover.obj
 0001:000ddf60       ?Translate@rvPhysics_Spline@@UAEXABVidVec3@@H@Z 200def60 f   SplineMover.obj
 0001:000ddfc0       ?Rotate@rvPhysics_Spline@@UAEXABVidRotation@@H@Z 200defc0 f   SplineMover.obj
 0001:000de250       ?GetOrigin@rvPhysics_Spline@@UBEABVidVec3@@H@Z 200df250 f   SplineMover.obj
 0001:000de260       ?GetAxis@rvPhysics_Spline@@UBEABVidMat3@@H@Z 200df260 f   SplineMover.obj
 0001:000de270       ?GetOrigin@rvPhysics_Spline@@QAEAAVidVec3@@H@Z 200df270 f   SplineMover.obj
 0001:000de280       ?GetAxis@rvPhysics_Spline@@QAEAAVidMat3@@H@Z 200df280 f   SplineMover.obj
 0001:000de290       ?SetMaster@rvPhysics_Spline@@UAEXPAVidEntity@@_N@Z 200df290 f   SplineMover.obj
 0001:000de580       ?ClipTranslation@rvPhysics_Spline@@UBEXAAUtrace_t@@ABVidVec3@@PBVidClipModel@@@Z 200df580 f   SplineMover.obj
 0001:000de680       ?ClipRotation@rvPhysics_Spline@@UBEXAAUtrace_t@@ABVidRotation@@PBVidClipModel@@@Z 200df680 f   SplineMover.obj
 0001:000de720       ?ClipContents@rvPhysics_Spline@@UBEHPBVidClipModel@@@Z 200df720 f   SplineMover.obj
 0001:000de7b0       ?DisableClip@rvPhysics_Spline@@UAEXXZ 200df7b0 f   SplineMover.obj
 0001:000de7c0       ?EnableClip@rvPhysics_Spline@@UAEXXZ 200df7c0 f   SplineMover.obj
 0001:000de7d0       ?UnlinkClip@rvPhysics_Spline@@UAEXXZ 200df7d0 f   SplineMover.obj
 0001:000de7e0       ?LinkClip@rvPhysics_Spline@@UAEXXZ 200df7e0 f   SplineMover.obj
 0001:000de820       ?WriteToSnapshot@rvPhysics_Spline@@UBEXAAVidBitMsgDelta@@@Z 200df820 f   SplineMover.obj
 0001:000de830       ?ReadFromSnapshot@rvPhysics_Spline@@UAEXABVidBitMsgDelta@@@Z 200df830 f   SplineMover.obj
 0001:000de850       ?GetBlockingInfo@rvPhysics_Spline@@UBEPBUtrace_t@@XZ 200df850 f   SplineMover.obj
 0001:000de870       ?GetBlockingEntity@rvPhysics_Spline@@UBEPAVidEntity@@XZ 200df870 f   SplineMover.obj
 0001:000de8a0       ?State_Accelerating@rvPhysics_Spline@@QAE?AW4stateResult_t@@ABUstateParms_t@@@Z 200df8a0 f   SplineMover.obj
 0001:000de970       ?State_Decelerating@rvPhysics_Spline@@QAE?AW4stateResult_t@@ABUstateParms_t@@@Z 200df970 f   SplineMover.obj
 0001:000dea50       ?State_Cruising@rvPhysics_Spline@@QAE?AW4stateResult_t@@ABUstateParms_t@@@Z 200dfa50 f   SplineMover.obj
 0001:000deaf0       ?GetLocalOrigin@rvPhysics_Spline@@IBEABVidVec3@@H@Z 200dfaf0 f   SplineMover.obj
 0001:000deb00       ?GetLocalAxis@rvPhysics_Spline@@IBEABVidMat3@@H@Z 200dfb00 f   SplineMover.obj
 0001:000deb10       ?GetLocalOrigin@rvPhysics_Spline@@IAEAAVidVec3@@H@Z 200dfb10 f   SplineMover.obj
 0001:000deb20       ?GetLocalAxis@rvPhysics_Spline@@IAEAAVidMat3@@H@Z 200dfb20 f   SplineMover.obj
 0001:000deb30       ?RegisterClassA@rvSplineMover@@SAXXZ 200dfb30 f   SplineMover.obj
 0001:000debc0       ?CreateInstance@rvSplineMover@@SAPAVidClass@@XZ 200dfbc0 f   SplineMover.obj
 0001:000dec80       ?GetClassType@rvSplineMover@@SAAAVidTypeInfo@@XZ 200dfc80 f   SplineMover.obj
 0001:000dec90       ?GetType@rvSplineMover@@UBEPAVidTypeInfo@@XZ 200dfc90 f   SplineMover.obj
 0001:000deca0       ?Spawn@rvSplineMover@@QAEXXZ 200dfca0 f   SplineMover.obj
 0001:000deee0       ??1rvSplineMover@@UAE@XZ   200dfee0 f   SplineMover.obj
 0001:000def60       ?SetSpeed@rvSplineMover@@UAEXM@Z 200dff60 f   SplineMover.obj
 0001:000def80       ?GetSpeed@rvSplineMover@@UBEMXZ 200dff80 f   SplineMover.obj
 0001:000def90       ?SetIdealSpeed@rvSplineMover@@UAEXM@Z 200dff90 f   SplineMover.obj
 0001:000defc0       ?GetIdealSpeed@rvSplineMover@@UBEMXZ 200dffc0 f   SplineMover.obj
 0001:000defd0       ?SetSpline@rvSplineMover@@UAEXPAVidSplinePath@@@Z 200dffd0 f   SplineMover.obj
 0001:000df000       ?GetSpline@rvSplineMover@@UBEPBVidSplinePath@@XZ 200e0000 f   SplineMover.obj
 0001:000df030       ?GetSpline@rvSplineMover@@UAEPAVidSplinePath@@XZ 200e0030 f   SplineMover.obj
 0001:000df060       ?SetAcceleration@rvSplineMover@@UAEXM@Z 200e0060 f   SplineMover.obj
 0001:000df080       ?SetDeceleration@rvSplineMover@@UAEXM@Z 200e0080 f   SplineMover.obj
 0001:000df0a0       ?CheckSplineForOverrides@rvSplineMover@@UAEXPBV?$idCurve_Spline@VidVec3@@@@PBVidDict@@@Z 200e00a0 f   SplineMover.obj
 0001:000df170       ?RestoreFromOverrides@rvSplineMover@@UAEXPBVidDict@@@Z 200e0170 f   SplineMover.obj
 0001:000df1c0       ?PlayAnim@rvSplineMover@@QAEHHPBDH@Z 200e01c0 f   SplineMover.obj
 0001:000df230       ?CycleAnim@rvSplineMover@@QAEXHPBDH@Z 200e0230 f   SplineMover.obj
 0001:000df290       ?ClearChannel@rvSplineMover@@QAEXHH@Z 200e0290 f   SplineMover.obj
 0001:000df2d0       ?Save@rvSplineMover@@QBEXPAVidSaveGame@@@Z 200e02d0 f   SplineMover.obj
 0001:000df310       ?Restore@rvSplineMover@@QAEXPAVidRestoreGame@@@Z 200e0310 f   SplineMover.obj
 0001:000df360       ?WriteToSnapshot@rvSplineMover@@UBEXAAVidBitMsgDelta@@@Z 200e0360 f   SplineMover.obj
 0001:000df380       ?ReadFromSnapshot@rvSplineMover@@UAEXABVidBitMsgDelta@@@Z 200e0380 f   SplineMover.obj
 0001:000df3a0       ?AddSelfToGlobalList@rvSplineMover@@IAEXXZ 200e03a0 f   SplineMover.obj
 0001:000df3d0       ?RemoveSelfFromGlobalList@rvSplineMover@@IAEXXZ 200e03d0 f   SplineMover.obj
 0001:000df3e0       ?InGlobalList@rvSplineMover@@IBE_NXZ 200e03e0 f   SplineMover.obj
 0001:000df3f0       ?WhosVisible@rvSplineMover@@IBE_NABVidFrustum@@AAV?$idList@PAVrvSplineMover@@@@@Z 200e03f0 f   SplineMover.obj
 0001:000df690       ?GetTrackInfo@rvSplineMover@@MBE?AVidStr@@PBVidSplinePath@@@Z 200e0690 f   SplineMover.obj
 0001:000df7b0       ?ConvertToMover@rvSplineMover@@IBEPAV1@PAVidEntity@@@Z 200e07b0 f   SplineMover.obj
 0001:000df7f0       ?ConvertToSplinePath@rvSplineMover@@IBEPAVidSplinePath@@PAVidEntity@@@Z 200e07f0 f   SplineMover.obj
 0001:000df830       ?CallScriptEvents@rvSplineMover@@IAEXPBVidSplinePath@@PBDPAVidEntity@@@Z 200e0830 f   SplineMover.obj
 0001:000df900       ?PreBind@rvSplineMover@@MAEXXZ 200e0900 f   SplineMover.obj
 0001:000df920       ?PreDoneMoving@rvSplineMover@@MAEXXZ 200e0920 f   SplineMover.obj
 0001:000df960       ?PostDoneMoving@rvSplineMover@@MAEXXZ 200e0960 f   SplineMover.obj
 0001:000df9a0       ?Event_PostSpawn@rvSplineMover@@IAEXXZ 200e09a0 f   SplineMover.obj
 0001:000dfae0       ?Event_SetSpline@rvSplineMover@@IAEXPAVidEntity@@@Z 200e0ae0 f   SplineMover.obj
 0001:000dfb00       ?Event_GetSpline@rvSplineMover@@IAEXXZ 200e0b00 f   SplineMover.obj
 0001:000dfb10       ?Event_SetAcceleration@rvSplineMover@@IAEXM@Z 200e0b10 f   SplineMover.obj
 0001:000dfb30       ?Event_SetDeceleration@rvSplineMover@@IAEXM@Z 200e0b30 f   SplineMover.obj
 0001:000dfb50       ?Event_OnAcceleration@rvSplineMover@@IAEXXZ 200e0b50 f   SplineMover.obj
 0001:000dfb70       ?Event_OnDeceleration@rvSplineMover@@IAEXXZ 200e0b70 f   SplineMover.obj
 0001:000dfb90       ?Event_OnCruising@rvSplineMover@@IAEXXZ 200e0b90 f   SplineMover.obj
 0001:000dfc80       ?Event_OnStopMoving@rvSplineMover@@IAEXXZ 200e0c80 f   SplineMover.obj
 0001:000dfca0       ?Event_OnStartMoving@rvSplineMover@@IAEXXZ 200e0ca0 f   SplineMover.obj
 0001:000dfcb0       ?Event_SetSpeed@rvSplineMover@@IAEXM@Z 200e0cb0 f   SplineMover.obj
 0001:000dfcf0       ?Event_GetSpeed@rvSplineMover@@IAEXXZ 200e0cf0 f   SplineMover.obj
 0001:000dfd10       ?Event_SetIdealSpeed@rvSplineMover@@IAEXM@Z 200e0d10 f   SplineMover.obj
 0001:000dfd30       ?Event_GetIdealSpeed@rvSplineMover@@IAEXXZ 200e0d30 f   SplineMover.obj
 0001:000dfd50       ?Event_ApplySpeedScale@rvSplineMover@@IAEXM@Z 200e0d50 f   SplineMover.obj
 0001:000dfda0       ?Event_SetCallBack@rvSplineMover@@IAEXXZ 200e0da0 f   SplineMover.obj
 0001:000dfdd0       ?Event_DoneMoving@rvSplineMover@@IAEXXZ 200e0dd0 f   SplineMover.obj
 0001:000dfe10       ?Event_GetCurrentTrackInfo@rvSplineMover@@IAEXXZ 200e0e10 f   SplineMover.obj
 0001:000dfe50       ?Event_GetTrackInfo@rvSplineMover@@IAEXPAVidEntity@@@Z 200e0e50 f   SplineMover.obj
 0001:000dfec0       ?Event_Activate@rvSplineMover@@IAEXPAVidEntity@@@Z 200e0ec0 f   SplineMover.obj
 0001:000dfed0       ?Event_StartSoundPeriodic@rvSplineMover@@IAEXPBDHHH@Z 200e0ed0 f   SplineMover.obj
 0001:000dff80       ?Event_PartBlocked@rvSplineMover@@IAEXPAVidEntity@@@Z 200e0f80 f   SplineMover.obj
 0001:000e0020       ?RegisterClassA@rvTramCar@@SAXXZ 200e1020 f   SplineMover.obj
 0001:000e00b0       ?CreateInstance@rvTramCar@@SAPAVidClass@@XZ 200e10b0 f   SplineMover.obj
 0001:000e0150       ?GetClassType@rvTramCar@@SAAAVidTypeInfo@@XZ 200e1150 f   SplineMover.obj
 0001:000e0160       ?GetType@rvTramCar@@UBEPAVidTypeInfo@@XZ 200e1160 f   SplineMover.obj
 0001:000e0170       ?Spawn@rvTramCar@@QAEXXZ   200e1170 f   SplineMover.obj
 0001:000e0390       ??1rvTramCar@@UAE@XZ       200e1390 f   SplineMover.obj
 0001:000e0870       ?Think@rvTramCar@@UAEXXZ   200e1870 f   SplineMover.obj
 0001:000e0890       ?MidThink@rvTramCar@@UAEXXZ 200e1890 f   SplineMover.obj
 0001:000e08d0       ?SetIdealTrack@rvTramCar@@UAEXH@Z 200e18d0 f   SplineMover.obj
 0001:000e08e0       ?GetIdealTrack@rvTramCar@@UBEHXZ 200e18e0 f   SplineMover.obj
 0001:000e08f0       ?AddDamageEffect@rvTramCar@@UAEXABUtrace_t@@ABVidVec3@@PBDPAVidEntity@@@Z 200e18f0 f   SplineMover.obj
 0001:000e0ae0       ?Damage@rvTramCar@@UAEXPAVidEntity@@0ABVidVec3@@PBDMH@Z 200e1ae0 f   SplineMover.obj
 0001:000e0bb0       ?Killed@rvTramCar@@UAEXPAVidEntity@@0HABVidVec3@@H@Z 200e1bb0 f   SplineMover.obj
 0001:000e0ce0       ?GetDamageScale@rvTramCar@@UBEMXZ 200e1ce0 f   SplineMover.obj
 0001:000e0d10       ?GetHealthScale@rvTramCar@@UBEMXZ 200e1d10 f   SplineMover.obj
 0001:000e0d90       ?Save@rvTramCar@@QBEXPAVidSaveGame@@@Z 200e1d90 f   SplineMover.obj
 0001:000e0e70       ?Restore@rvTramCar@@QAEXPAVidRestoreGame@@@Z 200e1e70 f   SplineMover.obj
 0001:000e1240       ?WriteToSnapshot@rvTramCar@@UBEXAAVidBitMsgDelta@@@Z 200e2240 f   SplineMover.obj
 0001:000e1250       ?ReadFromSnapshot@rvTramCar@@UAEXABVidBitMsgDelta@@@Z 200e2250 f   SplineMover.obj
 0001:000e1260       ?State_Idle@rvTramCar@@QAE?AW4stateResult_t@@ABUstateParms_t@@@Z 200e2260 f   SplineMover.obj
 0001:000e12b0       ?State_NormalSpeed@rvTramCar@@QAE?AW4stateResult_t@@ABUstateParms_t@@@Z 200e22b0 f   SplineMover.obj
 0001:000e1390       ?State_ExcessiveSpeed@rvTramCar@@QAE?AW4stateResult_t@@ABUstateParms_t@@@Z 200e2390 f   SplineMover.obj
 0001:000e1470       ?State_RandomTrack@rvTramCar@@QAE?AW4stateResult_t@@ABUstateParms_t@@@Z 200e2470 f   SplineMover.obj
 0001:000e14a0       ?State_AssignedTrack@rvTramCar@@QAE?AW4stateResult_t@@ABUstateParms_t@@@Z 200e24a0 f   SplineMover.obj
 0001:000e14b0       ?SpawnDriver@rvTramCar@@IAEXPBD@Z 200e24b0 f   SplineMover.obj
 0001:000e1510       ?SpawnWeapons@rvTramCar@@IAEXPBD@Z 200e2510 f   SplineMover.obj
 0001:000e1930       ?SpawnOccupants@rvTramCar@@IAEXPBD@Z 200e2930 f   SplineMover.obj
 0001:000e1d50       ?SpawnPart@rvTramCar@@IAEPAVidEntity@@PBD0@Z 200e2d50 f   SplineMover.obj
 0001:000e21a0       ?SpawnDoors@rvTramCar@@IAEXXZ 200e31a0 f   SplineMover.obj
 0001:000e2200       ?SpawnDoor@rvTramCar@@IAEPAVidMover@@PBD@Z 200e3200 f   SplineMover.obj
 0001:000e26d0       ?SortSplineTargets@rvTramCar@@IBEHPAVidSplinePath@@@Z 200e36d0 f   SplineMover.obj
 0001:000e2730       ?GetSplineTarget@rvTramCar@@IBEPAVidEntity@@PAVidSplinePath@@H@Z 200e3730 f   SplineMover.obj
 0001:000e27b0       ?HeadTowardsIdealTrack@rvTramCar@@IAEXXZ 200e37b0 f   SplineMover.obj
 0001:000e27f0       ?FindSplineToTrack@rvTramCar@@IBEPAVidSplinePath@@PAV2@ABVidStr@@@Z 200e37f0 f   SplineMover.obj
 0001:000e29c0       ?FindSplineToIdealTrack@rvTramCar@@IBEPAVidSplinePath@@PAV2@@Z 200e39c0 f   SplineMover.obj
 0001:000e2ab0       ?GetRandomSpline@rvTramCar@@IBEPAVidSplinePath@@PAV2@@Z 200e3ab0 f   SplineMover.obj
 0001:000e2b10       ?GetCurrentTrack@rvTramCar@@IBEHXZ 200e3b10 f   SplineMover.obj
 0001:000e2ba0       ?UpdateChannel@rvTramCar@@MAEXHABUsoundShaderParms_t@@@Z 200e3ba0 f   SplineMover.obj
 0001:000e2bd0       ?AttenuateTrackChannel@rvTramCar@@MAEXM@Z 200e3bd0 f   SplineMover.obj
 0001:000e2c20       ?AttenuateTramCarChannel@rvTramCar@@MAEXM@Z 200e3c20 f   SplineMover.obj
 0001:000e2cb0       ?RegisterStateThread@rvTramCar@@MAEXAAVrvStateThread@@PBD@Z 200e3cb0 f   SplineMover.obj
 0001:000e2ce0       ?LookForward@rvTramCar@@IBE_NAAV?$idList@PAVrvSplineMover@@@@@Z 200e3ce0 f   SplineMover.obj
 0001:000e2e10       ?LookLeft@rvTramCar@@IBE_NAAV?$idList@PAVrvSplineMover@@@@@Z 200e3e10 f   SplineMover.obj
 0001:000e3060       ?LookRight@rvTramCar@@IBE_NAAV?$idList@PAVrvSplineMover@@@@@Z 200e4060 f   SplineMover.obj
 0001:000e32b0       ?LookLeftForTrackChange@rvTramCar@@IBE_NAAV?$idList@PAVrvSplineMover@@@@@Z 200e42b0 f   SplineMover.obj
 0001:000e3500       ?LookRightForTrackChange@rvTramCar@@IBE_NAAV?$idList@PAVrvSplineMover@@@@@Z 200e4500 f   SplineMover.obj
 0001:000e3750       ?Look@rvTramCar@@IBE_NABVidFrustum@@AAV?$idList@PAVrvSplineMover@@@@@Z 200e4750 f   SplineMover.obj
 0001:000e3870       ?LookAround@rvTramCar@@MAEXXZ 200e4870 f   SplineMover.obj
 0001:000e3930       ?AdjustSpeed@rvTramCar@@MAE_NAAV?$idList@PAVrvSplineMover@@@@@Z 200e4930 f   SplineMover.obj
 0001:000e3a30       ?OnSameTrackAs@rvTramCar@@MBE_NPBVrvSplineMover@@@Z 200e4a30 f   SplineMover.obj
 0001:000e3b10       ?SameIdealTrackAs@rvTramCar@@MBE_NPBVrvSplineMover@@@Z 200e4b10 f   SplineMover.obj
 0001:000e3b50       ?DriverSpeak@rvTramCar@@MAEPAVidEntity@@PBD_N@Z 200e4b50 f   SplineMover.obj
 0001:000e3c10       ?OccupantSpeak@rvTramCar@@MAEPAVidEntity@@PBD_N@Z 200e4c10 f   SplineMover.obj
 0001:000e3ce0       ?PostDoneMoving@rvTramCar@@MAEXXZ 200e4ce0 f   SplineMover.obj
 0001:000e3cf0       ?DeployRamp@rvTramCar@@MAEXXZ 200e4cf0 f   SplineMover.obj
 0001:000e3d00       ?RetractRamp@rvTramCar@@MAEXXZ 200e4d00 f   SplineMover.obj
 0001:000e3d10       ?OperateRamp@rvTramCar@@IAEXPBD@Z 200e4d10 f   SplineMover.obj
 0001:000e3da0       ?OperateRamp@rvTramCar@@IAEXPBDPAVidMover@@@Z 200e4da0 f   SplineMover.obj
 0001:000e3ef0       ?Event_DriverSpeak@rvTramCar@@IAEXPBD@Z 200e4ef0 f   SplineMover.obj
 0001:000e3f10       ?Event_GetDriver@rvTramCar@@IAEXXZ 200e4f10 f   SplineMover.obj
 0001:000e3f50       ?Event_Activate@rvTramCar@@IAEXPAVidEntity@@@Z 200e4f50 f   SplineMover.obj
 0001:000e40e0       ?Event_RadiusDamage@rvTramCar@@IAEXABVidVec3@@PBD@Z 200e50e0 f   SplineMover.obj
 0001:000e4110       ?Event_SetIdealTrack@rvTramCar@@IAEXPBD@Z 200e5110 f   SplineMover.obj
 0001:000e4290       ?Event_OnStopMoving@rvTramCar@@IAEXXZ 200e5290 f   SplineMover.obj
 0001:000e42b0       ?Event_OnStartMoving@rvTramCar@@IAEXXZ 200e52b0 f   SplineMover.obj
 0001:000e42d0       ?Event_OpenDoors@rvTramCar@@IAEXXZ 200e52d0 f   SplineMover.obj
 0001:000e42e0       ?Event_CloseDoors@rvTramCar@@IAEXXZ 200e52e0 f   SplineMover.obj
 0001:000e42f0       ?Event_SetHealth@rvTramCar@@IAEXM@Z 200e52f0 f   SplineMover.obj
 0001:000e4310       ?RegisterClassA@rvTramCar_Marine@@SAXXZ 200e5310 f   SplineMover.obj
 0001:000e43a0       ?CreateInstance@rvTramCar_Marine@@SAPAVidClass@@XZ 200e53a0 f   SplineMover.obj
 0001:000e4440       ?GetClassType@rvTramCar_Marine@@SAAAVidTypeInfo@@XZ 200e5440 f   SplineMover.obj
 0001:000e4450       ?GetType@rvTramCar_Marine@@UBEPAVidTypeInfo@@XZ 200e5450 f   SplineMover.obj
 0001:000e4460       ?Spawn@rvTramCar_Marine@@QAEXXZ 200e5460 f   SplineMover.obj
 0001:000e4560       ?MidThink@rvTramCar_Marine@@UAEXXZ 200e5560 f   SplineMover.obj
 0001:000e45c0       ?Save@rvTramCar_Marine@@QBEXPAVidSaveGame@@@Z 200e55c0 f   SplineMover.obj
 0001:000e4640       ?Restore@rvTramCar_Marine@@QAEXPAVidRestoreGame@@@Z 200e5640 f   SplineMover.obj
 0001:000e4880       ?State_Occupied@rvTramCar_Marine@@QAE?AW4stateResult_t@@ABUstateParms_t@@@Z 200e5880 f   SplineMover.obj
 0001:000e4910       ?State_NotOccupied@rvTramCar_Marine@@QAE?AW4stateResult_t@@ABUstateParms_t@@@Z 200e5910 f   SplineMover.obj
 0001:000e4990       ?State_UsingMountedGun@rvTramCar_Marine@@QAE?AW4stateResult_t@@ABUstateParms_t@@@Z 200e5990 f   SplineMover.obj
 0001:000e4a10       ?State_NotUsingMountedGun@rvTramCar_Marine@@QAE?AW4stateResult_t@@ABUstateParms_t@@@Z 200e5a10 f   SplineMover.obj
 0001:000e4a60       ?Damage@rvTramCar_Marine@@MAEXPAVidEntity@@0ABVidVec3@@PBDMH@Z 200e5a60 f   SplineMover.obj
 0001:000e4b10       ?Killed@rvTramCar_Marine@@MAEXPAVidEntity@@0HABVidVec3@@H@Z 200e5b10 f   SplineMover.obj
 0001:000e4b70       ?LookAround@rvTramCar_Marine@@MAEXXZ 200e5b70 f   SplineMover.obj
 0001:000e4d00       ?LookOverLeftShoulder@rvTramCar_Marine@@IAE_NAAV?$idList@PAVrvSplineMover@@@@@Z 200e5d00 f   SplineMover.obj
 0001:000e53c0       ?LookOverRightShoulder@rvTramCar_Marine@@IAE_NAAV?$idList@PAVrvSplineMover@@@@@Z 200e63c0 f   SplineMover.obj
 0001:000e5a80       ?EntityIsInside@rvTramCar_Marine@@IBE_NPBVidEntity@@@Z 200e6a80 f   SplineMover.obj
 0001:000e5b40       ?ActivateTramHud@rvTramCar_Marine@@IAEXPAVidPlayer@@@Z 200e6b40 f   SplineMover.obj
 0001:000e5b90       ?DeactivateTramHud@rvTramCar_Marine@@IAEXPAVidPlayer@@@Z 200e6b90 f   SplineMover.obj
 0001:000e5be0       ?UpdateTramHud@rvTramCar_Marine@@IAEXPAVidPlayer@@@Z 200e6be0 f   SplineMover.obj
 0001:000e5c50       ?DeployRamp@rvTramCar_Marine@@MAEXXZ 200e6c50 f   SplineMover.obj
 0001:000e5cd0       ?RetractRamp@rvTramCar_Marine@@MAEXXZ 200e6cd0 f   SplineMover.obj
 0001:000e5cf0       ?UseMountedGun@rvTramCar_Marine@@IAEXPAVidPlayer@@@Z 200e6cf0 f   SplineMover.obj
 0001:000e5da0       ?Event_UseMountedGun@rvTramCar_Marine@@IAEXPAVidEntity@@@Z 200e6da0 f   SplineMover.obj
 0001:000e5de0       ?Event_SetPlayerDamageEntity@rvTramCar_Marine@@IAEXM@Z 200e6de0 f   SplineMover.obj
 0001:000e5e30       ?RegisterClassA@rvTramCar_Strogg@@SAXXZ 200e6e30 f   SplineMover.obj
 0001:000e5ec0       ?CreateInstance@rvTramCar_Strogg@@SAPAVidClass@@XZ 200e6ec0 f   SplineMover.obj
 0001:000e5f80       ?GetClassType@rvTramCar_Strogg@@SAAAVidTypeInfo@@XZ 200e6f80 f   SplineMover.obj
 0001:000e5f90       ?GetType@rvTramCar_Strogg@@UBEPAVidTypeInfo@@XZ 200e6f90 f   SplineMover.obj
 0001:000e5fa0       ?Spawn@rvTramCar_Strogg@@QAEXXZ 200e6fa0 f   SplineMover.obj
 0001:000e5fe0       ?SetTarget@rvTramCar_Strogg@@UAEXPAVidEntity@@@Z 200e6fe0 f   SplineMover.obj
 0001:000e6020       ?GetTarget@rvTramCar_Strogg@@UBEPBVrvSplineMover@@XZ 200e7020 f   SplineMover.obj
 0001:000e6050       ?Save@rvTramCar_Strogg@@QBEXPAVidSaveGame@@@Z 200e7050 f   SplineMover.obj
 0001:000e6080       ?Restore@rvTramCar_Strogg@@QAEXPAVidRestoreGame@@@Z 200e7080 f   SplineMover.obj
 0001:000e60b0       ?WriteToSnapshot@rvTramCar_Strogg@@UBEXAAVidBitMsgDelta@@@Z 200e70b0 f   SplineMover.obj
 0001:000e60c0       ?ReadFromSnapshot@rvTramCar_Strogg@@UAEXABVidBitMsgDelta@@@Z 200e70c0 f   SplineMover.obj
 0001:000e60d0       ?State_LookingForTarget@rvTramCar_Strogg@@QAE?AW4stateResult_t@@ABUstateParms_t@@@Z 200e70d0 f   SplineMover.obj
 0001:000e61e0       ?State_TargetInSight@rvTramCar_Strogg@@QAE?AW4stateResult_t@@ABUstateParms_t@@@Z 200e71e0 f   SplineMover.obj
 0001:000e6600       ?TargetIsToLeft@rvTramCar_Strogg@@IAE_NXZ 200e7600 f   SplineMover.obj
 0001:000e66f0       ?TargetIsToRight@rvTramCar_Strogg@@IAE_NXZ 200e76f0 f   SplineMover.obj
 0001:000e67e0       ?LookAround@rvTramCar_Strogg@@MAEXXZ 200e77e0 f   SplineMover.obj
 0001:000e67f0       ?Event_PostSpawn@rvTramCar_Strogg@@IAEXXZ 200e77f0 f   SplineMover.obj
 0001:000e6930       ?Register_rvPhysics_Spline@@YAXXZ 200e7930 f   SplineMover.obj
 0001:000e6940       ?Register_rvSplineMover@@YAXXZ 200e7940 f   SplineMover.obj
 0001:000e6950       ?Register_rvTramCar@@YAXXZ 200e7950 f   SplineMover.obj
 0001:000e6960       ?rvSortByDist@@YAHPBX0@Z   200e7960 f   SplineMover.obj
 0001:000e69e0       ?Register_rvTramCar_Marine@@YAXXZ 200e79e0 f   SplineMover.obj
 0001:000e69f0       ?Register_rvTramCar_Strogg@@YAXXZ 200e79f0 f   SplineMover.obj
 0001:000e6a00       ??$SpawnSafeEntityDef@VidMover@@@idGameLocal@@QAEPAVidMover@@PBDPBVidDict@@@Z 200e7a00 f i SplineMover.obj
 0001:000e6a60       ??0?$idLinkList@VrvAIHelper@@@@QAE@XZ 200e7a60 f i AI_Manager.obj
 0001:000e6a60       ??0?$idLinkList@VidMsgQueue@@@@QAE@XZ 200e7a60 f i idLib:BitMsg.obj
 0001:000e6a60       ??0?$idLinkList@VidAI@@@@QAE@XZ 200e7a60 f i AI.obj
 0001:000e6a60       ??0?$idLinkList@VidEntity@@@@QAE@XZ 200e7a60 f i Entity.obj
 0001:000e6a60       ??0?$idLinkList@VidActor@@@@QAE@XZ 200e7a60 f i Actor.obj
 0001:000e6a60       ??0?$idLinkList@VrvClientEntity@@@@QAE@XZ 200e7a60 f i Entity.obj
 0001:000e6a60       ??0?$idLinkList@UannouncerSoundNode_s@idMultiplayerGame@@@@QAE@XZ 200e7a60 f i MultiplayerGame.obj
 0001:000e6a60       ??0?$idLinkList@VidEvent@@@@QAE@XZ 200e7a60 f i Event.obj
 0001:000e6a60       ??0?$idLinkList@UstateCall_t@@@@QAE@XZ 200e7a60 f i State.obj
 0001:000e6a60       ??0?$idLinkList@VrvSplineMover@@@@QAE@XZ 200e7a60 f i SplineMover.obj
 0001:000e6a80       ??0rvTramCar@@QAE@XZ       200e7a80 f i SplineMover.obj
 0001:000e6bb0       ??0rvTramCar_Marine@@QAE@XZ 200e7bb0 f i SplineMover.obj
 0001:000e6c40       ??1rvTramCar_Marine@@UAE@XZ 200e7c40 f i SplineMover.obj
 0001:000e6cf0       ??_GrvPhysics_Spline@@UAEPAXI@Z 200e7cf0 f i SplineMover.obj
 0001:000e6cf0       ??_ErvPhysics_Spline@@UAEPAXI@Z 200e7cf0 f i SplineMover.obj
 0001:000e6d20       ??_ErvSplineMover@@UAEPAXI@Z 200e7d20 f i SplineMover.obj
 0001:000e6d20       ??_GrvSplineMover@@UAEPAXI@Z 200e7d20 f i SplineMover.obj
 0001:000e6d50       ??_ErvTramCar@@UAEPAXI@Z   200e7d50 f i SplineMover.obj
 0001:000e6d50       ??_GrvTramCar@@UAEPAXI@Z   200e7d50 f i SplineMover.obj
 0001:000e6d80       ??_ErvTramCar_Marine@@UAEPAXI@Z 200e7d80 f i SplineMover.obj
 0001:000e6d80       ??_GrvTramCar_Marine@@UAEPAXI@Z 200e7d80 f i SplineMover.obj
 0001:000e6db0       ??_ErvTramCar_Strogg@@UAEPAXI@Z 200e7db0 f i SplineMover.obj
 0001:000e6db0       ??_GrvTramCar_Strogg@@UAEPAXI@Z 200e7db0 f i SplineMover.obj
 0001:000e6e20       ?GetNormalSpeed@rvTramCar@@UBEMXZ 200e7e20 f i SplineMover.obj
 0001:000e6e70       ?InsertBefore@?$idLinkList@UannouncerSoundNode_s@idMultiplayerGame@@@@QAEXAAV1@@Z 200e7e70 f i MultiplayerGame.obj
 0001:000e6e70       ?InsertBefore@?$idLinkList@UstateCall_t@@@@QAEXAAV1@@Z 200e7e70 f i State.obj
 0001:000e6e70       ?InsertBefore@?$idLinkList@VidEntity@@@@QAEXAAV1@@Z 200e7e70 f i Entity.obj
 0001:000e6e70       ?InsertBefore@?$idLinkList@VrvSplineMover@@@@QAEXAAV1@@Z 200e7e70 f i SplineMover.obj
 0001:000e6e70       ?InsertBefore@?$idLinkList@VrvAIHelper@@@@QAEXAAV1@@Z 200e7e70 f i AI_Manager.obj
 0001:000e6e70       ?InsertBefore@?$idLinkList@VrvClientEntity@@@@QAEXAAV1@@Z 200e7e70 f i Entity.obj
 0001:000e6e70       ?InsertBefore@?$idLinkList@VidAI@@@@QAEXAAV1@@Z 200e7e70 f i AI_Manager.obj
 0001:000e6e70       ?InsertBefore@?$idLinkList@VidActor@@@@QAEXAAV1@@Z 200e7e70 f i Actor.obj
 0001:000e6e70       ?InsertBefore@?$idLinkList@VidMsgQueue@@@@QAEXAAV1@@Z 200e7e70 f i idLib:BitMsg.obj
 0001:000e6e70       ?InsertBefore@?$idLinkList@VidEvent@@@@QAEXAAV1@@Z 200e7e70 f i Event.obj
 0001:000e6ed0       ?CompareAmmoData@@YAHPBX0@Z 200e7ed0 f   Target.obj
 0001:000e6ef0       ?RegisterClassA@idTarget@@SAXXZ 200e7ef0 f   Target.obj
 0001:000e6f80       ?CreateInstance@idTarget@@SAPAVidClass@@XZ 200e7f80 f   Target.obj
 0001:000e7030       ?GetClassType@idTarget@@SAAAVidTypeInfo@@XZ 200e8030 f   Target.obj
 0001:000e7040       ?GetType@idTarget@@UBEPAVidTypeInfo@@XZ 200e8040 f   Target.obj
 0001:000e7050       ?RegisterClassA@idTarget_Remove@@SAXXZ 200e8050 f   Target.obj
 0001:000e70e0       ?CreateInstance@idTarget_Remove@@SAPAVidClass@@XZ 200e80e0 f   Target.obj
 0001:000e7190       ?GetClassType@idTarget_Remove@@SAAAVidTypeInfo@@XZ 200e8190 f   Target.obj
 0001:000e71a0       ?GetType@idTarget_Remove@@UBEPAVidTypeInfo@@XZ 200e81a0 f   Target.obj
 0001:000e71b0       ?Event_Activate@idTarget_Remove@@AAEXPAVidEntity@@@Z 200e81b0 f   Target.obj
 0001:000e7210       ?RegisterClassA@idTarget_Show@@SAXXZ 200e8210 f   Target.obj
 0001:000e72a0       ?CreateInstance@idTarget_Show@@SAPAVidClass@@XZ 200e82a0 f   Target.obj
 0001:000e7350       ?GetClassType@idTarget_Show@@SAAAVidTypeInfo@@XZ 200e8350 f   Target.obj
 0001:000e7360       ?GetType@idTarget_Show@@UBEPAVidTypeInfo@@XZ 200e8360 f   Target.obj
 0001:000e7370       ?Event_Activate@idTarget_Show@@AAEXPAVidEntity@@@Z 200e8370 f   Target.obj
 0001:000e73d0       ?RegisterClassA@idTarget_Damage@@SAXXZ 200e83d0 f   Target.obj
 0001:000e7460       ?CreateInstance@idTarget_Damage@@SAPAVidClass@@XZ 200e8460 f   Target.obj
 0001:000e7510       ?GetClassType@idTarget_Damage@@SAAAVidTypeInfo@@XZ 200e8510 f   Target.obj
 0001:000e7520       ?GetType@idTarget_Damage@@UBEPAVidTypeInfo@@XZ 200e8520 f   Target.obj
 0001:000e7530       ?Event_Activate@idTarget_Damage@@AAEXPAVidEntity@@@Z 200e8530 f   Target.obj
 0001:000e75c0       ?RegisterClassA@idTarget_SessionCommand@@SAXXZ 200e85c0 f   Target.obj
 0001:000e7650       ?CreateInstance@idTarget_SessionCommand@@SAPAVidClass@@XZ 200e8650 f   Target.obj
 0001:000e7700       ?GetClassType@idTarget_SessionCommand@@SAAAVidTypeInfo@@XZ 200e8700 f   Target.obj
 0001:000e7710       ?GetType@idTarget_SessionCommand@@UBEPAVidTypeInfo@@XZ 200e8710 f   Target.obj
 0001:000e7720       ?Event_Activate@idTarget_SessionCommand@@AAEXPAVidEntity@@@Z 200e8720 f   Target.obj
 0001:000e7760       ?RegisterClassA@idTarget_EndLevel@@SAXXZ 200e8760 f   Target.obj
 0001:000e77f0       ?CreateInstance@idTarget_EndLevel@@SAPAVidClass@@XZ 200e87f0 f   Target.obj
 0001:000e78a0       ?GetClassType@idTarget_EndLevel@@SAAAVidTypeInfo@@XZ 200e88a0 f   Target.obj
 0001:000e78b0       ?GetType@idTarget_EndLevel@@UBEPAVidTypeInfo@@XZ 200e88b0 f   Target.obj
 0001:000e78c0       ?Event_Activate@idTarget_EndLevel@@AAEXPAVidEntity@@@Z 200e88c0 f   Target.obj
 0001:000e7b40       ?RegisterClassA@idTarget_WaitForButton@@SAXXZ 200e8b40 f   Target.obj
 0001:000e7bd0       ?CreateInstance@idTarget_WaitForButton@@SAPAVidClass@@XZ 200e8bd0 f   Target.obj
 0001:000e7c80       ?GetClassType@idTarget_WaitForButton@@SAAAVidTypeInfo@@XZ 200e8c80 f   Target.obj
 0001:000e7c90       ?GetType@idTarget_WaitForButton@@UBEPAVidTypeInfo@@XZ 200e8c90 f   Target.obj
 0001:000e7ca0       ?Think@idTarget_WaitForButton@@UAEXXZ 200e8ca0 f   Target.obj
 0001:000e7d10       ?Event_Activate@idTarget_WaitForButton@@AAEXPAVidEntity@@@Z 200e8d10 f   Target.obj
 0001:000e7d40       ?RegisterClassA@idTarget_SetGlobalShaderTime@@SAXXZ 200e8d40 f   Target.obj
 0001:000e7dd0       ?CreateInstance@idTarget_SetGlobalShaderTime@@SAPAVidClass@@XZ 200e8dd0 f   Target.obj
 0001:000e7e80       ?GetClassType@idTarget_SetGlobalShaderTime@@SAAAVidTypeInfo@@XZ 200e8e80 f   Target.obj
 0001:000e7e90       ?GetType@idTarget_SetGlobalShaderTime@@UBEPAVidTypeInfo@@XZ 200e8e90 f   Target.obj
 0001:000e7ea0       ?Event_Activate@idTarget_SetGlobalShaderTime@@AAEXPAVidEntity@@@Z 200e8ea0 f   Target.obj
 0001:000e7f00       ?RegisterClassA@idTarget_SetShaderParm@@SAXXZ 200e8f00 f   Target.obj
 0001:000e7f90       ?CreateInstance@idTarget_SetShaderParm@@SAPAVidClass@@XZ 200e8f90 f   Target.obj
 0001:000e8040       ?GetClassType@idTarget_SetShaderParm@@SAAAVidTypeInfo@@XZ 200e9040 f   Target.obj
 0001:000e8050       ?GetType@idTarget_SetShaderParm@@UBEPAVidTypeInfo@@XZ 200e9050 f   Target.obj
 0001:000e8060       ?Event_Activate@idTarget_SetShaderParm@@AAEXPAVidEntity@@@Z 200e9060 f   Target.obj
 0001:000e8220       ?RegisterClassA@idTarget_SetShaderTime@@SAXXZ 200e9220 f   Target.obj
 0001:000e82b0       ?CreateInstance@idTarget_SetShaderTime@@SAPAVidClass@@XZ 200e92b0 f   Target.obj
 0001:000e8360       ?GetClassType@idTarget_SetShaderTime@@SAAAVidTypeInfo@@XZ 200e9360 f   Target.obj
 0001:000e8370       ?GetType@idTarget_SetShaderTime@@UBEPAVidTypeInfo@@XZ 200e9370 f   Target.obj
 0001:000e8380       ?Event_Activate@idTarget_SetShaderTime@@AAEXPAVidEntity@@@Z 200e9380 f   Target.obj
 0001:000e8450       ?RegisterClassA@idTarget_FadeEntity@@SAXXZ 200e9450 f   Target.obj
 0001:000e84e0       ?CreateInstance@idTarget_FadeEntity@@SAPAVidClass@@XZ 200e94e0 f   Target.obj
 0001:000e8580       ?GetClassType@idTarget_FadeEntity@@SAAAVidTypeInfo@@XZ 200e9580 f   Target.obj
 0001:000e8590       ?GetType@idTarget_FadeEntity@@UBEPAVidTypeInfo@@XZ 200e9590 f   Target.obj
 0001:000e85a0       ??0idTarget_FadeEntity@@QAE@XZ 200e95a0 f   Target.obj
 0001:000e85f0       ?Save@idTarget_FadeEntity@@QBEXPAVidSaveGame@@@Z 200e95f0 f   Target.obj
 0001:000e8630       ?Restore@idTarget_FadeEntity@@QAEXPAVidRestoreGame@@@Z 200e9630 f   Target.obj
 0001:000e8670       ?Think@idTarget_FadeEntity@@UAEXXZ 200e9670 f   Target.obj
 0001:000e87e0       ?Event_Activate@idTarget_FadeEntity@@AAEXPAVidEntity@@@Z 200e97e0 f   Target.obj
 0001:000e88c0       ?RegisterClassA@idTarget_LightFadeIn@@SAXXZ 200e98c0 f   Target.obj
 0001:000e8950       ?CreateInstance@idTarget_LightFadeIn@@SAPAVidClass@@XZ 200e9950 f   Target.obj
 0001:000e8a00       ?GetClassType@idTarget_LightFadeIn@@SAAAVidTypeInfo@@XZ 200e9a00 f   Target.obj
 0001:000e8a10       ?GetType@idTarget_LightFadeIn@@UBEPAVidTypeInfo@@XZ 200e9a10 f   Target.obj
 0001:000e8a20       ?Event_Activate@idTarget_LightFadeIn@@AAEXPAVidEntity@@@Z 200e9a20 f   Target.obj
 0001:000e8b10       ?RegisterClassA@idTarget_LightFadeOut@@SAXXZ 200e9b10 f   Target.obj
 0001:000e8ba0       ?CreateInstance@idTarget_LightFadeOut@@SAPAVidClass@@XZ 200e9ba0 f   Target.obj
 0001:000e8c50       ?GetClassType@idTarget_LightFadeOut@@SAAAVidTypeInfo@@XZ 200e9c50 f   Target.obj
 0001:000e8c60       ?GetType@idTarget_LightFadeOut@@UBEPAVidTypeInfo@@XZ 200e9c60 f   Target.obj
 0001:000e8c70       ?Event_Activate@idTarget_LightFadeOut@@AAEXPAVidEntity@@@Z 200e9c70 f   Target.obj
 0001:000e8d60       ?RegisterClassA@idTarget_Give@@SAXXZ 200e9d60 f   Target.obj
 0001:000e8df0       ?CreateInstance@idTarget_Give@@SAPAVidClass@@XZ 200e9df0 f   Target.obj
 0001:000e8ea0       ?GetClassType@idTarget_Give@@SAAAVidTypeInfo@@XZ 200e9ea0 f   Target.obj
 0001:000e8eb0       ?GetType@idTarget_Give@@UBEPAVidTypeInfo@@XZ 200e9eb0 f   Target.obj
 0001:000e8ec0       ?Spawn@idTarget_Give@@QAEXXZ 200e9ec0 f   Target.obj
 0001:000e8f40       ?Event_Activate@idTarget_Give@@AAEXPAVidEntity@@@Z 200e9f40 f   Target.obj
 0001:000e9350       ?Event_PostSpawn@idTarget_Give@@AAEXXZ 200ea350 f   Target.obj
 0001:000e9380       ?RegisterClassA@idTarget_GiveEmail@@SAXXZ 200ea380 f   Target.obj
 0001:000e9410       ?CreateInstance@idTarget_GiveEmail@@SAPAVidClass@@XZ 200ea410 f   Target.obj
 0001:000e94c0       ?GetClassType@idTarget_GiveEmail@@SAAAVidTypeInfo@@XZ 200ea4c0 f   Target.obj
 0001:000e94d0       ?GetType@idTarget_GiveEmail@@UBEPAVidTypeInfo@@XZ 200ea4d0 f   Target.obj
 0001:000e94e0       ?Spawn@idTarget_GiveEmail@@QAEXXZ 200ea4e0 f   Target.obj
 0001:000e94f0       ?Event_Activate@idTarget_GiveEmail@@AAEXPAVidEntity@@@Z 200ea4f0 f   Target.obj
 0001:000e9500       ?RegisterClassA@idTarget_SetModel@@SAXXZ 200ea500 f   Target.obj
 0001:000e9590       ?CreateInstance@idTarget_SetModel@@SAPAVidClass@@XZ 200ea590 f   Target.obj
 0001:000e9640       ?GetClassType@idTarget_SetModel@@SAAAVidTypeInfo@@XZ 200ea640 f   Target.obj
 0001:000e9650       ?GetType@idTarget_SetModel@@UBEPAVidTypeInfo@@XZ 200ea650 f   Target.obj
 0001:000e9660       ?Spawn@idTarget_SetModel@@QAEXXZ 200ea660 f   Target.obj
 0001:000e96d0       ?Event_Activate@idTarget_SetModel@@AAEXPAVidEntity@@@Z 200ea6d0 f   Target.obj
 0001:000e9740       ?RegisterClassA@idTarget_SetInfluence@@SAXXZ 200ea740 f   Target.obj
 0001:000e97d0       ?CreateInstance@idTarget_SetInfluence@@SAPAVidClass@@XZ 200ea7d0 f   Target.obj
 0001:000e9870       ?GetClassType@idTarget_SetInfluence@@SAAAVidTypeInfo@@XZ 200ea870 f   Target.obj
 0001:000e9880       ?GetType@idTarget_SetInfluence@@UBEPAVidTypeInfo@@XZ 200ea880 f   Target.obj
 0001:000e9890       ??0idTarget_SetInfluence@@QAE@XZ 200ea890 f   Target.obj
 0001:000e9a30       ?Save@idTarget_SetInfluence@@QBEXPAVidSaveGame@@@Z 200eaa30 f   Target.obj
 0001:000e9be0       ?Restore@idTarget_SetInfluence@@QAEXPAVidRestoreGame@@@Z 200eabe0 f   Target.obj
 0001:000ea5e0       ?Spawn@idTarget_SetInfluence@@QAEXXZ 200eb5e0 f   Target.obj
 0001:000ea6e0       ?Event_Activate@idTarget_SetInfluence@@AAEXPAVidEntity@@@Z 200eb6e0 f   Target.obj
 0001:000eb110       ?Event_RestoreInfluence@idTarget_SetInfluence@@AAEXXZ 200ec110 f   Target.obj
 0001:000eb520       ?Event_GatherEntities@idTarget_SetInfluence@@AAEXXZ 200ec520 f   Target.obj
 0001:000ec220       ?Event_Flash@idTarget_SetInfluence@@AAEXMH@Z 200ed220 f   Target.obj
 0001:000ec2f0       ?Event_ClearFlash@idTarget_SetInfluence@@AAEXM@Z 200ed2f0 f   Target.obj
 0001:000ec330       ?Think@idTarget_SetInfluence@@EAEXXZ 200ed330 f   Target.obj
 0001:000ec3f0       ?RegisterClassA@idTarget_SetKeyVal@@SAXXZ 200ed3f0 f   Target.obj
 0001:000ec480       ?CreateInstance@idTarget_SetKeyVal@@SAPAVidClass@@XZ 200ed480 f   Target.obj
 0001:000ec530       ?GetClassType@idTarget_SetKeyVal@@SAAAVidTypeInfo@@XZ 200ed530 f   Target.obj
 0001:000ec540       ?GetType@idTarget_SetKeyVal@@UBEPAVidTypeInfo@@XZ 200ed540 f   Target.obj
 0001:000ec550       ?Event_Activate@idTarget_SetKeyVal@@AAEXPAVidEntity@@@Z 200ed550 f   Target.obj
 0001:000ec7b0       ?RegisterClassA@idTarget_SetFov@@SAXXZ 200ed7b0 f   Target.obj
 0001:000ec840       ?CreateInstance@idTarget_SetFov@@SAPAVidClass@@XZ 200ed840 f   Target.obj
 0001:000ec8e0       ?GetClassType@idTarget_SetFov@@SAAAVidTypeInfo@@XZ 200ed8e0 f   Target.obj
 0001:000ec8f0       ?GetType@idTarget_SetFov@@UBEPAVidTypeInfo@@XZ 200ed8f0 f   Target.obj
 0001:000ec900       ?Save@idTarget_SetFov@@QBEXPAVidSaveGame@@@Z 200ed900 f   Target.obj
 0001:000ec970       ?Restore@idTarget_SetFov@@QAEXPAVidRestoreGame@@@Z 200ed970 f   Target.obj
 0001:000eca00       ?Think@idTarget_SetFov@@UAEXXZ 200eda00 f   Target.obj
 0001:000ecaa0       ?Event_Activate@idTarget_SetFov@@AAEXPAVidEntity@@@Z 200edaa0 f   Target.obj
 0001:000ecbc0       ?RegisterClassA@idTarget_SetPrimaryObjective@@SAXXZ 200edbc0 f   Target.obj
 0001:000ecc50       ?CreateInstance@idTarget_SetPrimaryObjective@@SAPAVidClass@@XZ 200edc50 f   Target.obj
 0001:000ecd00       ?GetClassType@idTarget_SetPrimaryObjective@@SAAAVidTypeInfo@@XZ 200edd00 f   Target.obj
 0001:000ecd10       ?GetType@idTarget_SetPrimaryObjective@@UBEPAVidTypeInfo@@XZ 200edd10 f   Target.obj
 0001:000ecd20       ?Event_Activate@idTarget_SetPrimaryObjective@@AAEXPAVidEntity@@@Z 200edd20 f   Target.obj
 0001:000ecd90       ?RegisterClassA@rvTarget_SecretArea@@SAXXZ 200edd90 f   Target.obj
 0001:000ece20       ?CreateInstance@rvTarget_SecretArea@@SAPAVidClass@@XZ 200ede20 f   Target.obj
 0001:000eced0       ?GetClassType@rvTarget_SecretArea@@SAAAVidTypeInfo@@XZ 200eded0 f   Target.obj
 0001:000ecee0       ?GetType@rvTarget_SecretArea@@UBEPAVidTypeInfo@@XZ 200edee0 f   Target.obj
 0001:000ecef0       ?Event_Activate@rvTarget_SecretArea@@AAEXPAVidEntity@@@Z 200edef0 f   Target.obj
 0001:000ecf40       ?RegisterClassA@rvTarget_BossBattle@@SAXXZ 200edf40 f   Target.obj
 0001:000ecfd0       ?CreateInstance@rvTarget_BossBattle@@SAPAVidClass@@XZ 200edfd0 f   Target.obj
 0001:000ed080       ?GetClassType@rvTarget_BossBattle@@SAAAVidTypeInfo@@XZ 200ee080 f   Target.obj
 0001:000ed090       ?GetType@rvTarget_BossBattle@@UBEPAVidTypeInfo@@XZ 200ee090 f   Target.obj
 0001:000ed0a0       ?Event_Activate@rvTarget_BossBattle@@AAEXPAVidEntity@@@Z 200ee0a0 f   Target.obj
 0001:000ed110       ?Event_SetShieldPercent@rvTarget_BossBattle@@AAEXM@Z 200ee110 f   Target.obj
 0001:000ed180       ?Event_SetBossMaxHealth@rvTarget_BossBattle@@AAEXM@Z 200ee180 f   Target.obj
 0001:000ed1e0       ?Event_AllowShieldBar@rvTarget_BossBattle@@AAEXM@Z 200ee1e0 f   Target.obj
 0001:000ed260       ?Event_AllowShieldWarningBar@rvTarget_BossBattle@@AAEXM@Z 200ee260 f   Target.obj
 0001:000ed2e0       ?RegisterClassA@rvTarget_TetherAI@@SAXXZ 200ee2e0 f   Target.obj
 0001:000ed370       ?CreateInstance@rvTarget_TetherAI@@SAPAVidClass@@XZ 200ee370 f   Target.obj
 0001:000ed420       ?GetClassType@rvTarget_TetherAI@@SAAAVidTypeInfo@@XZ 200ee420 f   Target.obj
 0001:000ed430       ?GetType@rvTarget_TetherAI@@UBEPAVidTypeInfo@@XZ 200ee430 f   Target.obj
 0001:000ed440       ?Event_Activate@rvTarget_TetherAI@@AAEXPAVidEntity@@@Z 200ee440 f   Target.obj
 0001:000ed570       ?RegisterClassA@rvTarget_Nailable@@SAXXZ 200ee570 f   Target.obj
 0001:000ed600       ?CreateInstance@rvTarget_Nailable@@SAPAVidClass@@XZ 200ee600 f   Target.obj
 0001:000ed6b0       ?GetClassType@rvTarget_Nailable@@SAAAVidTypeInfo@@XZ 200ee6b0 f   Target.obj
 0001:000ed6c0       ?GetType@rvTarget_Nailable@@UBEPAVidTypeInfo@@XZ 200ee6c0 f   Target.obj
 0001:000ed6d0       ?Spawn@rvTarget_Nailable@@AAEXXZ 200ee6d0 f   Target.obj
 0001:000ed6f0       ?RegisterClassA@idTarget_LockDoor@@SAXXZ 200ee6f0 f   Target.obj
 0001:000ed780       ?CreateInstance@idTarget_LockDoor@@SAPAVidClass@@XZ 200ee780 f   Target.obj
 0001:000ed830       ?GetClassType@idTarget_LockDoor@@SAAAVidTypeInfo@@XZ 200ee830 f   Target.obj
 0001:000ed840       ?GetType@idTarget_LockDoor@@UBEPAVidTypeInfo@@XZ 200ee840 f   Target.obj
 0001:000ed850       ?Event_Activate@idTarget_LockDoor@@AAEXPAVidEntity@@@Z 200ee850 f   Target.obj
 0001:000ed910       ?RegisterClassA@idTarget_CallObjectFunction@@SAXXZ 200ee910 f   Target.obj
 0001:000ed9a0       ?CreateInstance@idTarget_CallObjectFunction@@SAPAVidClass@@XZ 200ee9a0 f   Target.obj
 0001:000eda50       ?GetClassType@idTarget_CallObjectFunction@@SAAAVidTypeInfo@@XZ 200eea50 f   Target.obj
 0001:000eda60       ?GetType@idTarget_CallObjectFunction@@UBEPAVidTypeInfo@@XZ 200eea60 f   Target.obj
 0001:000eda70       ?Event_Activate@idTarget_CallObjectFunction@@AAEXPAVidEntity@@@Z 200eea70 f   Target.obj
 0001:000edc10       ?RegisterClassA@idTarget_EnableLevelWeapons@@SAXXZ 200eec10 f   Target.obj
 0001:000edca0       ?CreateInstance@idTarget_EnableLevelWeapons@@SAPAVidClass@@XZ 200eeca0 f   Target.obj
 0001:000edd50       ?GetClassType@idTarget_EnableLevelWeapons@@SAAAVidTypeInfo@@XZ 200eed50 f   Target.obj
 0001:000edd60       ?GetType@idTarget_EnableLevelWeapons@@UBEPAVidTypeInfo@@XZ 200eed60 f   Target.obj
 0001:000edd70       ?Event_Activate@idTarget_EnableLevelWeapons@@AAEXPAVidEntity@@@Z 200eed70 f   Target.obj
 0001:000edeb0       ?RegisterClassA@idTarget_Tip@@SAXXZ 200eeeb0 f   Target.obj
 0001:000edf40       ?CreateInstance@idTarget_Tip@@SAPAVidClass@@XZ 200eef40 f   Target.obj
 0001:000edfe0       ?GetClassType@idTarget_Tip@@SAAAVidTypeInfo@@XZ 200eefe0 f   Target.obj
 0001:000edff0       ?GetType@idTarget_Tip@@UBEPAVidTypeInfo@@XZ 200eeff0 f   Target.obj
 0001:000ee000       ??0idTarget_Tip@@QAE@XZ    200ef000 f   Target.obj
 0001:000ee030       ?Spawn@idTarget_Tip@@QAEXXZ 200ef030 f   Target.obj
 0001:000ee040       ?Save@idTarget_Tip@@QBEXPAVidSaveGame@@@Z 200ef040 f   Target.obj
 0001:000ee060       ?Restore@idTarget_Tip@@QAEXPAVidRestoreGame@@@Z 200ef060 f   Target.obj
 0001:000ee080       ?Event_Activate@idTarget_Tip@@AAEXPAVidEntity@@@Z 200ef080 f   Target.obj
 0001:000ee130       ?Event_TipOff@idTarget_Tip@@AAEXXZ 200ef130 f   Target.obj
 0001:000ee1d0       ?Event_GetPlayerPos@idTarget_Tip@@AAEXXZ 200ef1d0 f   Target.obj
 0001:000ee220       ?RegisterClassA@idTarget_GiveSecurity@@SAXXZ 200ef220 f   Target.obj
 0001:000ee2b0       ?CreateInstance@idTarget_GiveSecurity@@SAPAVidClass@@XZ 200ef2b0 f   Target.obj
 0001:000ee360       ?GetClassType@idTarget_GiveSecurity@@SAAAVidTypeInfo@@XZ 200ef360 f   Target.obj
 0001:000ee370       ?GetType@idTarget_GiveSecurity@@UBEPAVidTypeInfo@@XZ 200ef370 f   Target.obj
 0001:000ee380       ?Event_Activate@idTarget_GiveSecurity@@AAEXPAVidEntity@@@Z 200ef380 f   Target.obj
 0001:000ee390       ?RegisterClassA@idTarget_RemoveWeapons@@SAXXZ 200ef390 f   Target.obj
 0001:000ee420       ?CreateInstance@idTarget_RemoveWeapons@@SAPAVidClass@@XZ 200ef420 f   Target.obj
 0001:000ee4d0       ?GetClassType@idTarget_RemoveWeapons@@SAAAVidTypeInfo@@XZ 200ef4d0 f   Target.obj
 0001:000ee4e0       ?GetType@idTarget_RemoveWeapons@@UBEPAVidTypeInfo@@XZ 200ef4e0 f   Target.obj
 0001:000ee4f0       ?Event_Activate@idTarget_RemoveWeapons@@AAEXPAVidEntity@@@Z 200ef4f0 f   Target.obj
 0001:000ee580       ?RegisterClassA@idTarget_LevelTrigger@@SAXXZ 200ef580 f   Target.obj
 0001:000ee610       ?CreateInstance@idTarget_LevelTrigger@@SAPAVidClass@@XZ 200ef610 f   Target.obj
 0001:000ee6c0       ?GetClassType@idTarget_LevelTrigger@@SAAAVidTypeInfo@@XZ 200ef6c0 f   Target.obj
 0001:000ee6d0       ?GetType@idTarget_LevelTrigger@@UBEPAVidTypeInfo@@XZ 200ef6d0 f   Target.obj
 0001:000ee6e0       ?Event_Activate@idTarget_LevelTrigger@@AAEXPAVidEntity@@@Z 200ef6e0 f   Target.obj
 0001:000ee760       ?RegisterClassA@idTarget_EnableStamina@@SAXXZ 200ef760 f   Target.obj
 0001:000ee7f0       ?CreateInstance@idTarget_EnableStamina@@SAPAVidClass@@XZ 200ef7f0 f   Target.obj
 0001:000ee8a0       ?GetClassType@idTarget_EnableStamina@@SAAAVidTypeInfo@@XZ 200ef8a0 f   Target.obj
 0001:000ee8b0       ?GetType@idTarget_EnableStamina@@UBEPAVidTypeInfo@@XZ 200ef8b0 f   Target.obj
 0001:000ee8c0       ?Event_Activate@idTarget_EnableStamina@@AAEXPAVidEntity@@@Z 200ef8c0 f   Target.obj
 0001:000ee980       ?RegisterClassA@idTarget_FadeSoundClass@@SAXXZ 200ef980 f   Target.obj
 0001:000eea10       ?CreateInstance@idTarget_FadeSoundClass@@SAPAVidClass@@XZ 200efa10 f   Target.obj
 0001:000eeac0       ?GetClassType@idTarget_FadeSoundClass@@SAAAVidTypeInfo@@XZ 200efac0 f   Target.obj
 0001:000eead0       ?GetType@idTarget_FadeSoundClass@@UBEPAVidTypeInfo@@XZ 200efad0 f   Target.obj
 0001:000eeae0       ?Event_Activate@idTarget_FadeSoundClass@@AAEXPAVidEntity@@@Z 200efae0 f   Target.obj
 0001:000eec40       ?Event_RestoreVolume@idTarget_FadeSoundClass@@AAEXXZ 200efc40 f   Target.obj
 0001:000eecd0       ?RegisterClassA@rvTarget_LaunchProjectile@@SAXXZ 200efcd0 f   Target.obj
 0001:000eed60       ?CreateInstance@rvTarget_LaunchProjectile@@SAPAVidClass@@XZ 200efd60 f   Target.obj
 0001:000eee10       ?GetClassType@rvTarget_LaunchProjectile@@SAAAVidTypeInfo@@XZ 200efe10 f   Target.obj
 0001:000eee20       ?GetType@rvTarget_LaunchProjectile@@UBEPAVidTypeInfo@@XZ 200efe20 f   Target.obj
 0001:000eee30       ?Spawn@rvTarget_LaunchProjectile@@QAEXXZ 200efe30 f   Target.obj
 0001:000eee80       ?Event_Activate@rvTarget_LaunchProjectile@@AAEXPAVidEntity@@@Z 200efe80 f   Target.obj
 0001:000ef120       ?Event_LaunchProjectile@rvTarget_LaunchProjectile@@AAEXPAVidEntity@@@Z 200f0120 f   Target.obj
 0001:000ef5e0       ?RegisterClassA@rvTarget_ExitAreaAlert@@SAXXZ 200f05e0 f   Target.obj
 0001:000ef670       ?CreateInstance@rvTarget_ExitAreaAlert@@SAPAVidClass@@XZ 200f0670 f   Target.obj
 0001:000ef720       ?GetClassType@rvTarget_ExitAreaAlert@@SAAAVidTypeInfo@@XZ 200f0720 f   Target.obj
 0001:000ef730       ?GetType@rvTarget_ExitAreaAlert@@UBEPAVidTypeInfo@@XZ 200f0730 f   Target.obj
 0001:000ef740       ?Event_Activate@rvTarget_ExitAreaAlert@@AAEXPAVidEntity@@@Z 200f0740 f   Target.obj
 0001:000ef750       ?RegisterClassA@rvTarget_AmmoStash@@SAXXZ 200f0750 f   Target.obj
 0001:000ef7e0       ?CreateInstance@rvTarget_AmmoStash@@SAPAVidClass@@XZ 200f07e0 f   Target.obj
 0001:000ef8b0       ?GetClassType@rvTarget_AmmoStash@@SAAAVidTypeInfo@@XZ 200f08b0 f   Target.obj
 0001:000ef8c0       ?GetType@rvTarget_AmmoStash@@UBEPAVidTypeInfo@@XZ 200f08c0 f   Target.obj
 0001:000ef8d0       ?Event_Activate@rvTarget_AmmoStash@@AAEXPAVidEntity@@@Z 200f08d0 f   Target.obj
 0001:000efe00       ?Register_idTarget@@YAXXZ  200f0e00 f   Target.obj
 0001:000efe10       ?Register_idTarget_Remove@@YAXXZ 200f0e10 f   Target.obj
 0001:000efe20       ?Register_idTarget_Show@@YAXXZ 200f0e20 f   Target.obj
 0001:000efe30       ?Register_idTarget_Damage@@YAXXZ 200f0e30 f   Target.obj
 0001:000efe40       ?Register_idTarget_SessionCommand@@YAXXZ 200f0e40 f   Target.obj
 0001:000efe50       ?Register_idTarget_EndLevel@@YAXXZ 200f0e50 f   Target.obj
 0001:000efe60       ?Register_idTarget_WaitForButton@@YAXXZ 200f0e60 f   Target.obj
 0001:000efe70       ?Register_idTarget_SetGlobalShaderTime@@YAXXZ 200f0e70 f   Target.obj
 0001:000efe80       ?Register_idTarget_SetShaderParm@@YAXXZ 200f0e80 f   Target.obj
 0001:000efe90       ?Register_idTarget_SetShaderTime@@YAXXZ 200f0e90 f   Target.obj
 0001:000efea0       ?Register_idTarget_FadeEntity@@YAXXZ 200f0ea0 f   Target.obj
 0001:000efeb0       ?Register_idTarget_LightFadeIn@@YAXXZ 200f0eb0 f   Target.obj
 0001:000efec0       ?Register_idTarget_LightFadeOut@@YAXXZ 200f0ec0 f   Target.obj
 0001:000efed0       ?Register_idTarget_Give@@YAXXZ 200f0ed0 f   Target.obj
 0001:000efee0       ?Register_idTarget_GiveEmail@@YAXXZ 200f0ee0 f   Target.obj
 0001:000efef0       ?Register_idTarget_SetModel@@YAXXZ 200f0ef0 f   Target.obj
 0001:000eff00       ?Register_idTarget_SetInfluence@@YAXXZ 200f0f00 f   Target.obj
 0001:000eff10       ?Register_idTarget_SetKeyVal@@YAXXZ 200f0f10 f   Target.obj
 0001:000eff20       ?Register_idTarget_SetFov@@YAXXZ 200f0f20 f   Target.obj
 0001:000eff30       ?Register_idTarget_SetPrimaryObjective@@YAXXZ 200f0f30 f   Target.obj
 0001:000eff40       ?Register_rvTarget_SecretArea@@YAXXZ 200f0f40 f   Target.obj
 0001:000eff50       ?Register_rvTarget_BossBattle@@YAXXZ 200f0f50 f   Target.obj
 0001:000eff60       ?Register_rvTarget_LaunchProjectile@@YAXXZ 200f0f60 f   Target.obj
 0001:000eff70       ?Register_rvTarget_ExitAreaAlert@@YAXXZ 200f0f70 f   Target.obj
 0001:000eff80       ?Register_rvTarget_AmmoStash@@YAXXZ 200f0f80 f   Target.obj
 0001:000eff90       ?Register_rvTarget_TetherAI@@YAXXZ 200f0f90 f   Target.obj
 0001:000effa0       ?Register_rvTarget_Nailable@@YAXXZ 200f0fa0 f   Target.obj
 0001:000effb0       ?Register_idTarget_LockDoor@@YAXXZ 200f0fb0 f   Target.obj
 0001:000effc0       ?Register_idTarget_CallObjectFunction@@YAXXZ 200f0fc0 f   Target.obj
 0001:000effd0       ?Register_idTarget_EnableLevelWeapons@@YAXXZ 200f0fd0 f   Target.obj
 0001:000effe0       ?Register_idTarget_Tip@@YAXXZ 200f0fe0 f   Target.obj
 0001:000efff0       ?Register_idTarget_GiveSecurity@@YAXXZ 200f0ff0 f   Target.obj
 0001:000f0000       ?Register_idTarget_RemoveWeapons@@YAXXZ 200f1000 f   Target.obj
 0001:000f0010       ?Register_idTarget_LevelTrigger@@YAXXZ 200f1010 f   Target.obj
 0001:000f0020       ?Register_idTarget_EnableStamina@@YAXXZ 200f1020 f   Target.obj
 0001:000f0030       ?Register_idTarget_FadeSoundClass@@YAXXZ 200f1030 f   Target.obj
 0001:000f0040       ??0idTarget_SetFov@@QAE@XZ 200f1040 f i Target.obj
 0001:000f00a0       ??1?$idInterpolate@H@@UAE@XZ 200f10a0 f i Target.obj
 0001:000f00b0       ??1spawnerCallback_t@@QAE@XZ 200f10b0 f i spawner.obj
 0001:000f00b0       ??1ammodata_s@@QAE@XZ      200f10b0 f i Target.obj
 0001:000f00b0       ??1serverAdminData_t@idMultiplayerGame@@QAE@XZ 200f10b0 f i MultiplayerGame.obj
 0001:000f00b0       ??1selectedTypeInfo_s@@QAE@XZ 200f10b0 f i Game_local.obj
 0001:000f00c0       ??1idTarget_SetInfluence@@UAE@XZ 200f10c0 f i Target.obj
 0001:000f0270       ??_G?$idInterpolate@H@@UAEPAXI@Z 200f1270 f i Target.obj
 0001:000f0270       ??_E?$idInterpolate@H@@UAEPAXI@Z 200f1270 f i Target.obj
 0001:000f02c0       ??_GidTarget_SetFov@@UAEPAXI@Z 200f12c0 f i Target.obj
 0001:000f02c0       ??_EidTarget_SetFov@@UAEPAXI@Z 200f12c0 f i Target.obj
 0001:000f02f0       ??_GidTarget_SetInfluence@@UAEPAXI@Z 200f12f0 f i Target.obj
 0001:000f02f0       ??_EidTarget_SetInfluence@@UAEPAXI@Z 200f12f0 f i Target.obj
 0001:000f0320       ??_GrvTarget_AmmoStash@@UAEPAXI@Z 200f1320 f i Target.obj
 0001:000f0320       ??_ErvTarget_AmmoStash@@UAEPAXI@Z 200f1320 f i Target.obj
 0001:000f0390       ?GetCurrentValue@?$idInterpolate@H@@UBEHM@Z 200f1390 f i Target.obj
 0001:000f0400       ?GetDeltaValue@?$idInterpolate@H@@UBEHMM@Z 200f1400 f i Target.obj
 0001:000f0440       ?RegisterClassA@rvTramGate@@SAXXZ 200f1440 f   TramGate.obj
 0001:000f04d0       ?CreateInstance@rvTramGate@@SAPAVidClass@@XZ 200f14d0 f   TramGate.obj
 0001:000f05a0       ?GetClassType@rvTramGate@@SAAAVidTypeInfo@@XZ 200f15a0 f   TramGate.obj
 0001:000f05b0       ?GetType@rvTramGate@@UBEPAVidTypeInfo@@XZ 200f15b0 f   TramGate.obj
 0001:000f05c0       ?Spawn@rvTramGate@@QAEXXZ  200f15c0 f   TramGate.obj
 0001:000f05d0       ??1rvTramGate@@UAE@XZ      200f15d0 f   TramGate.obj
 0001:000f07c0       ?OpenGate@rvTramGate@@QAEXXZ 200f17c0 f   TramGate.obj
 0001:000f07d0       ?CloseGate@rvTramGate@@QAEXXZ 200f17d0 f   TramGate.obj
 0001:000f07e0       ?Save@rvTramGate@@QBEXPAVidSaveGame@@@Z 200f17e0 f   TramGate.obj
 0001:000f0830       ?Restore@rvTramGate@@QAEXPAVidRestoreGame@@@Z 200f1830 f   TramGate.obj
 0001:000f0b90       ?SpawnDoors@rvTramGate@@IAEXXZ 200f1b90 f   TramGate.obj
 0001:000f15e0       ?AdjustFrameRate@rvTramGate@@IAEXXZ 200f25e0 f   TramGate.obj
 0001:000f1680       ?PlayAnim@rvTramGate@@IAEHHPBDH@Z 200f2680 f   TramGate.obj
 0001:000f1700       ?CycleAnim@rvTramGate@@IAEXHPBDH@Z 200f2700 f   TramGate.obj
 0001:000f1770       ?ClearAllAnims@rvTramGate@@IAEXH@Z 200f2770 f   TramGate.obj
 0001:000f17b0       ?ClearAnim@rvTramGate@@IAEXHH@Z 200f27b0 f   TramGate.obj
 0001:000f17f0       ?AnimIsPlaying@rvTramGate@@IAE_NHH@Z 200f27f0 f   TramGate.obj
 0001:000f1840       ?IsOpen@rvTramGate@@IBE_NXZ 200f2840 f   TramGate.obj
 0001:000f1860       ?IsClosed@rvTramGate@@IBE_NXZ 200f2860 f   TramGate.obj
 0001:000f1890       ?GetDoorMaster@rvTramGate@@IBEPAVidDoor@@XZ 200f2890 f   TramGate.obj
 0001:000f18e0       ?IsDoorMasterValid@rvTramGate@@IBE_NXZ 200f28e0 f   TramGate.obj
 0001:000f18f0       ?Event_Touch@rvTramGate@@IAEXPAVidEntity@@PAUtrace_t@@@Z 200f28f0 f   TramGate.obj
 0001:000f1960       ?Event_Activate@rvTramGate@@IAEXPAVidEntity@@@Z 200f2960 f   TramGate.obj
 0001:000f19d0       ?Event_OpenGate@rvTramGate@@IAEXXZ 200f29d0 f   TramGate.obj
 0001:000f19e0       ?Event_CloseGate@rvTramGate@@IAEXXZ 200f29e0 f   TramGate.obj
 0001:000f19f0       ?Event_IsOpen@rvTramGate@@IAEXXZ 200f29f0 f   TramGate.obj
 0001:000f1a00       ?Event_IsLocked@rvTramGate@@IAEXXZ 200f2a00 f   TramGate.obj
 0001:000f1a40       ?Event_Lock@rvTramGate@@IAEXH@Z 200f2a40 f   TramGate.obj
 0001:000f1a70       ?Register_rvTramGate@@YAXXZ 200f2a70 f   TramGate.obj
 0001:000f1a80       ??$SpawnSafeEntityDef@VidDoor@@@idGameLocal@@QAEPAVidDoor@@PBDPBVidDict@@@Z 200f2a80 f i TramGate.obj
 0001:000f1ae0       ??_ErvTramGate@@UAEPAXI@Z  200f2ae0 f i TramGate.obj
 0001:000f1ae0       ??_GrvTramGate@@UAEPAXI@Z  200f2ae0 f i TramGate.obj
 0001:000f1b10       ?RegisterClassA@idTrigger@@SAXXZ 200f2b10 f   Trigger.obj
 0001:000f1ba0       ?CreateInstance@idTrigger@@SAPAVidClass@@XZ 200f2ba0 f   Trigger.obj
 0001:000f1c40       ?GetClassType@idTrigger@@SAAAVidTypeInfo@@XZ 200f2c40 f   Trigger.obj
 0001:000f1c50       ?GetType@idTrigger@@UBEPAVidTypeInfo@@XZ 200f2c50 f   Trigger.obj
 0001:000f1c60       ?DrawDebugInfo@idTrigger@@SAXXZ 200f2c60 f   Trigger.obj
 0001:000f23b0       ??0idTrigger@@QAE@XZ       200f33b0 f   Trigger.obj
 0001:000f2410       ?Spawn@idTrigger@@QAEXXZ   200f3410 f   Trigger.obj
 0001:000f2900       ?GetScriptFunction@idTrigger@@QBEPBVfunction_t@@XZ 200f3900 f   Trigger.obj
 0001:000f2920       ?Save@idTrigger@@QBEXPAVidSaveGame@@@Z 200f3920 f   Trigger.obj
 0001:000f2960       ?Restore@idTrigger@@QAEXPAVidRestoreGame@@@Z 200f3960 f   Trigger.obj
 0001:000f2b50       ?Enable@idTrigger@@UAEXXZ  200f3b50 f   Trigger.obj
 0001:000f2b80       ?Disable@idTrigger@@UAEXXZ 200f3b80 f   Trigger.obj
 0001:000f2bb0       ?CallScript@idTrigger@@IAEXPAVidEntity@@@Z 200f3bb0 f   Trigger.obj
 0001:000f2c10       ?Event_Enable@idTrigger@@IAEXXZ 200f3c10 f   Trigger.obj
 0001:000f2c20       ?Event_Disable@idTrigger@@IAEXXZ 200f3c20 f   Trigger.obj
 0001:000f2c30       ?RegisterClassA@idTrigger_Multi@@SAXXZ 200f3c30 f   Trigger.obj
 0001:000f2cc0       ?CreateInstance@idTrigger_Multi@@SAPAVidClass@@XZ 200f3cc0 f   Trigger.obj
 0001:000f2d60       ?GetClassType@idTrigger_Multi@@SAAAVidTypeInfo@@XZ 200f3d60 f   Trigger.obj
 0001:000f2d70       ?GetType@idTrigger_Multi@@UBEPAVidTypeInfo@@XZ 200f3d70 f   Trigger.obj
 0001:000f2d80       ??0idTrigger_Multi@@QAE@XZ 200f3d80 f   Trigger.obj
 0001:000f2e70       ?Spawn@idTrigger_Multi@@QAEXXZ 200f3e70 f   Trigger.obj
 0001:000f3280       ?Save@idTrigger_Multi@@QBEXPAVidSaveGame@@@Z 200f4280 f   Trigger.obj
 0001:000f3360       ?Restore@idTrigger_Multi@@QAEXPAVidRestoreGame@@@Z 200f4360 f   Trigger.obj
 0001:000f3420       ?Think@idTrigger_Multi@@UAEXXZ 200f4420 f   Trigger.obj
 0001:000f3430       ?CheckFacing@idTrigger_Multi@@AAE_NPAVidEntity@@@Z 200f4430 f   Trigger.obj
 0001:000f3620       ?HandleControlZoneTrigger@idTrigger_Multi@@AAEXXZ 200f4620 f   Trigger.obj
 0001:000f38a0       ?Event_EarthQuake@idTrigger_Multi@@AAEXM@Z 200f48a0 f   Trigger.obj
 0001:000f3980       ?TriggerAction@idTrigger_Multi@@AAEXPAVidEntity@@@Z 200f4980 f   Trigger.obj
 0001:000f3ad0       ?Event_TriggerAction@idTrigger_Multi@@AAEXPAVidEntity@@@Z 200f4ad0 f   Trigger.obj
 0001:000f3ae0       ?Event_Trigger@idTrigger_Multi@@AAEXPAVidEntity@@@Z 200f4ae0 f   Trigger.obj
 0001:000f3c10       ?Event_Touch@idTrigger_Multi@@AAEXPAVidEntity@@PAUtrace_t@@@Z 200f4c10 f   Trigger.obj
 0001:000f40a0       ?RegisterClassA@idTrigger_EntityName@@SAXXZ 200f50a0 f   Trigger.obj
 0001:000f4130       ?CreateInstance@idTrigger_EntityName@@SAPAVidClass@@XZ 200f5130 f   Trigger.obj
 0001:000f41d0       ?GetClassType@idTrigger_EntityName@@SAAAVidTypeInfo@@XZ 200f51d0 f   Trigger.obj
 0001:000f41e0       ?GetType@idTrigger_EntityName@@UBEPAVidTypeInfo@@XZ 200f51e0 f   Trigger.obj
 0001:000f41f0       ??0idTrigger_EntityName@@QAE@XZ 200f51f0 f   Trigger.obj
 0001:000f4260       ?Save@idTrigger_EntityName@@QBEXPAVidSaveGame@@@Z 200f5260 f   Trigger.obj
 0001:000f42f0       ?Restore@idTrigger_EntityName@@QAEXPAVidRestoreGame@@@Z 200f52f0 f   Trigger.obj
 0001:000f4370       ?Spawn@idTrigger_EntityName@@QAEXXZ 200f5370 f   Trigger.obj
 0001:000f4580       ?TriggerAction@idTrigger_EntityName@@AAEXPAVidEntity@@@Z 200f5580 f   Trigger.obj
 0001:000f4670       ?Event_TriggerAction@idTrigger_EntityName@@AAEXPAVidEntity@@@Z 200f5670 f   Trigger.obj
 0001:000f4680       ?Event_Trigger@idTrigger_EntityName@@AAEXPAVidEntity@@@Z 200f5680 f   Trigger.obj
 0001:000f4810       ?Event_Touch@idTrigger_EntityName@@AAEXPAVidEntity@@PAUtrace_t@@@Z 200f5810 f   Trigger.obj
 0001:000f4990       ?RegisterClassA@idTrigger_Timer@@SAXXZ 200f5990 f   Trigger.obj
 0001:000f4a20       ?CreateInstance@idTrigger_Timer@@SAPAVidClass@@XZ 200f5a20 f   Trigger.obj
 0001:000f4ac0       ?GetClassType@idTrigger_Timer@@SAAAVidTypeInfo@@XZ 200f5ac0 f   Trigger.obj
 0001:000f4ad0       ?GetType@idTrigger_Timer@@UBEPAVidTypeInfo@@XZ 200f5ad0 f   Trigger.obj
 0001:000f4ae0       ??0idTrigger_Timer@@QAE@XZ 200f5ae0 f   Trigger.obj
 0001:000f4b60       ?Save@idTrigger_Timer@@QBEXPAVidSaveGame@@@Z 200f5b60 f   Trigger.obj
 0001:000f4be0       ?Restore@idTrigger_Timer@@QAEXPAVidRestoreGame@@@Z 200f5be0 f   Trigger.obj
 0001:000f4c50       ?Spawn@idTrigger_Timer@@QAEXXZ 200f5c50 f   Trigger.obj
 0001:000f4da0       ?Enable@idTrigger_Timer@@UAEXXZ 200f5da0 f   Trigger.obj
 0001:000f4dd0       ?Disable@idTrigger_Timer@@UAEXXZ 200f5dd0 f   Trigger.obj
 0001:000f4df0       ?Event_Timer@idTrigger_Timer@@AAEXXZ 200f5df0 f   Trigger.obj
 0001:000f4e70       ?Event_Use@idTrigger_Timer@@AAEXPAVidEntity@@@Z 200f5e70 f   Trigger.obj
 0001:000f4f10       ?RegisterClassA@idTrigger_Count@@SAXXZ 200f5f10 f   Trigger.obj
 0001:000f4fa0       ?CreateInstance@idTrigger_Count@@SAPAVidClass@@XZ 200f5fa0 f   Trigger.obj
 0001:000f5040       ?GetClassType@idTrigger_Count@@SAAAVidTypeInfo@@XZ 200f6040 f   Trigger.obj
 0001:000f5050       ?GetType@idTrigger_Count@@UBEPAVidTypeInfo@@XZ 200f6050 f   Trigger.obj
 0001:000f5060       ??0idTrigger_Count@@QAE@XZ 200f6060 f   Trigger.obj
 0001:000f5090       ?Save@idTrigger_Count@@QBEXPAVidSaveGame@@@Z 200f6090 f   Trigger.obj
 0001:000f50d0       ?Restore@idTrigger_Count@@QAEXPAVidRestoreGame@@@Z 200f60d0 f   Trigger.obj
 0001:000f5110       ?Spawn@idTrigger_Count@@QAEXXZ 200f6110 f   Trigger.obj
 0001:000f5160       ?Event_Trigger@idTrigger_Count@@AAEXPAVidEntity@@@Z 200f6160 f   Trigger.obj
 0001:000f51f0       ?Event_TriggerAction@idTrigger_Count@@AAEXPAVidEntity@@@Z 200f61f0 f   Trigger.obj
 0001:000f5230       ?RegisterClassA@idTrigger_Hurt@@SAXXZ 200f6230 f   Trigger.obj
 0001:000f52c0       ?CreateInstance@idTrigger_Hurt@@SAPAVidClass@@XZ 200f62c0 f   Trigger.obj
 0001:000f5360       ?GetClassType@idTrigger_Hurt@@SAAAVidTypeInfo@@XZ 200f6360 f   Trigger.obj
 0001:000f5370       ?GetType@idTrigger_Hurt@@UBEPAVidTypeInfo@@XZ 200f6370 f   Trigger.obj
 0001:000f5380       ??0idTrigger_Hurt@@QAE@XZ  200f6380 f   Trigger.obj
 0001:000f53b0       ?Save@idTrigger_Hurt@@QBEXPAVidSaveGame@@@Z 200f63b0 f   Trigger.obj
 0001:000f5400       ?Restore@idTrigger_Hurt@@QAEXPAVidRestoreGame@@@Z 200f6400 f   Trigger.obj
 0001:000f5450       ?Spawn@idTrigger_Hurt@@QAEXXZ 200f6450 f   Trigger.obj
 0001:000f54c0       ?Event_Touch@idTrigger_Hurt@@AAEXPAVidEntity@@PAUtrace_t@@@Z 200f64c0 f   Trigger.obj
 0001:000f55a0       ?Event_Toggle@idTrigger_Hurt@@AAEXPAVidEntity@@@Z 200f65a0 f   Trigger.obj
 0001:000f55c0       ?RegisterClassA@idTrigger_Fade@@SAXXZ 200f65c0 f   Trigger.obj
 0001:000f5650       ?CreateInstance@idTrigger_Fade@@SAPAVidClass@@XZ 200f6650 f   Trigger.obj
 0001:000f5700       ?GetClassType@idTrigger_Fade@@SAAAVidTypeInfo@@XZ 200f6700 f   Trigger.obj
 0001:000f5710       ?GetType@idTrigger_Fade@@UBEPAVidTypeInfo@@XZ 200f6710 f   Trigger.obj
 0001:000f5720       ?Event_Trigger@idTrigger_Fade@@AAEXPAVidEntity@@@Z 200f6720 f   Trigger.obj
 0001:000f57e0       ?RegisterClassA@idTrigger_Touch@@SAXXZ 200f67e0 f   Trigger.obj
 0001:000f5870       ?CreateInstance@idTrigger_Touch@@SAPAVidClass@@XZ 200f6870 f   Trigger.obj
 0001:000f5910       ?GetClassType@idTrigger_Touch@@SAAAVidTypeInfo@@XZ 200f6910 f   Trigger.obj
 0001:000f5920       ?GetType@idTrigger_Touch@@UBEPAVidTypeInfo@@XZ 200f6920 f   Trigger.obj
 0001:000f5930       ??0idTrigger_Touch@@QAE@XZ 200f6930 f   Trigger.obj
 0001:000f5950       ??1idTrigger_Touch@@UAE@XZ 200f6950 f   Trigger.obj
 0001:000f59e0       ?Spawn@idTrigger_Touch@@QAEXXZ 200f69e0 f   Trigger.obj
 0001:000f5bb0       ?Think@idTrigger_Touch@@UAEXXZ 200f6bb0 f   Trigger.obj
 0001:000f5bd0       ?Save@idTrigger_Touch@@QAEXPAVidSaveGame@@@Z 200f6bd0 f   Trigger.obj
 0001:000f5c00       ?Restore@idTrigger_Touch@@QAEXPAVidRestoreGame@@@Z 200f6c00 f   Trigger.obj
 0001:000f5c30       ?Enable@idTrigger_Touch@@UAEXXZ 200f6c30 f   Trigger.obj
 0001:000f5c40       ?Disable@idTrigger_Touch@@UAEXXZ 200f6c40 f   Trigger.obj
 0001:000f5c50       ?TouchEntities@idTrigger_Touch@@QAEXXZ 200f6c50 f   Trigger.obj
 0001:000f5f20       ?Event_Trigger@idTrigger_Touch@@AAEXPAVidEntity@@@Z 200f6f20 f   Trigger.obj
 0001:000f5f40       ?Register_idTrigger@@YAXXZ 200f6f40 f   Trigger.obj
 0001:000f5f50       ?Register_idTrigger_Multi@@YAXXZ 200f6f50 f   Trigger.obj
 0001:000f5f60       ?Register_idTrigger_EntityName@@YAXXZ 200f6f60 f   Trigger.obj
 0001:000f5f70       ?Register_idTrigger_Timer@@YAXXZ 200f6f70 f   Trigger.obj
 0001:000f5f80       ?Register_idTrigger_Count@@YAXXZ 200f6f80 f   Trigger.obj
 0001:000f5f90       ?Register_idTrigger_Hurt@@YAXXZ 200f6f90 f   Trigger.obj
 0001:000f5fa0       ?Register_idTrigger_Fade@@YAXXZ 200f6fa0 f   Trigger.obj
 0001:000f5fb0       ?Register_idTrigger_Touch@@YAXXZ 200f6fb0 f   Trigger.obj
 0001:000f5fc0       ??1idTrigger@@UAE@XZ       200f6fc0 f i Trigger.obj
 0001:000f6070       ??1idTrigger_Multi@@UAE@XZ 200f7070 f i Trigger.obj
 0001:000f6110       ??_GidTrigger_Count@@UAEPAXI@Z 200f7110 f i Trigger.obj
 0001:000f6110       ??_GidTrigger_Fade@@UAEPAXI@Z 200f7110 f i Trigger.obj
 0001:000f6110       ??_GidTrigger@@UAEPAXI@Z   200f7110 f i Trigger.obj
 0001:000f6110       ??_EidTrigger_Count@@UAEPAXI@Z 200f7110 f i Trigger.obj
 0001:000f6110       ??_EidTrigger@@UAEPAXI@Z   200f7110 f i Trigger.obj
 0001:000f6110       ??_EidTrigger_Fade@@UAEPAXI@Z 200f7110 f i Trigger.obj
 0001:000f6110       ??_EidTrigger_Hurt@@UAEPAXI@Z 200f7110 f i Trigger.obj
 0001:000f6110       ??_GidTrigger_Hurt@@UAEPAXI@Z 200f7110 f i Trigger.obj
 0001:000f6140       ??_EidTrigger_EntityName@@UAEPAXI@Z 200f7140 f i Trigger.obj
 0001:000f6140       ??_GidTrigger_EntityName@@UAEPAXI@Z 200f7140 f i Trigger.obj
 0001:000f61b0       ??_EidTrigger_Multi@@UAEPAXI@Z 200f71b0 f i Trigger.obj
 0001:000f61b0       ??_GidTrigger_Multi@@UAEPAXI@Z 200f71b0 f i Trigger.obj
 0001:000f61e0       ??_GidTrigger_Timer@@UAEPAXI@Z 200f71e0 f i Trigger.obj
 0001:000f61e0       ??_EidTrigger_Timer@@UAEPAXI@Z 200f71e0 f i Trigger.obj
 0001:000f6250       ??_GidTrigger_Touch@@UAEPAXI@Z 200f7250 f i Trigger.obj
 0001:000f6250       ??_EidTrigger_Touch@@UAEPAXI@Z 200f7250 f i Trigger.obj
 0001:000f6280       ?RegisterClassA@idWorldspawn@@SAXXZ 200f7280 f   WorldSpawn.obj
 0001:000f6310       ?CreateInstance@idWorldspawn@@SAPAVidClass@@XZ 200f7310 f   WorldSpawn.obj
 0001:000f63c0       ?GetClassType@idWorldspawn@@SAAAVidTypeInfo@@XZ 200f73c0 f   WorldSpawn.obj
 0001:000f63d0       ?GetType@idWorldspawn@@UBEPAVidTypeInfo@@XZ 200f73d0 f   WorldSpawn.obj
 0001:000f63e0       ??1idWorldspawn@@UAE@XZ    200f73e0 f   WorldSpawn.obj
 0001:000f6400       ?Spawn@idWorldspawn@@QAEXXZ 200f7400 f   WorldSpawn.obj
 0001:000f6580       ?Save@idWorldspawn@@QAEXPAVidRestoreGame@@@Z 200f7580 f   WorldSpawn.obj
 0001:000f6590       ?Restore@idWorldspawn@@QAEXPAVidRestoreGame@@@Z 200f7590 f   WorldSpawn.obj
 0001:000f6600       ?Event_Remove@idWorldspawn@@AAEXXZ 200f7600 f   WorldSpawn.obj
 0001:000f6620       ?Register_idWorldspawn@@YAXXZ 200f7620 f   WorldSpawn.obj
 0001:000f6630       ??_EidWorldspawn@@UAEPAXI@Z 200f7630 f i WorldSpawn.obj
 0001:000f6630       ??_GidWorldspawn@@UAEPAXI@Z 200f7630 f i WorldSpawn.obj
 0001:000f6660       ??1idAASCallback@@UAE@XZ   200f7660 f   AAS.obj
 0001:000f6670       ?Init@idAASCallback@@UAEXXZ 200f7670 f   AAS.obj
 0001:000f6680       ?Finish@idAASCallback@@UAEXXZ 200f7680 f   AAS.obj
 0001:000f6690       ?Test@idAASCallback@@QAE?AW4testResult_t@1@PAVidAAS@@HABVidVec3@@MMPBV4@AAUaasGoal_s@@@Z 200f7690 f   AAS.obj
 0001:000f6b80       ?TestArea@idAASCallback@@MAE_NPAVidAAS@@HABUaasArea_s@@@Z 200f7b80 f   AAS.obj
 0001:000f6b90       ?TestPoint@idAASCallback@@MAE_NPAVidAAS@@ABVidVec3@@M@Z 200f7b90 f   AAS.obj
 0001:000f6ba0       ?TestPointDistance@idAASCallback@@AAE_NABVidVec3@@0MM@Z 200f7ba0 f   AAS.obj
 0001:000f6c50       ?Alloc@idAAS@@SAPAV1@XZ    200f7c50 f   AAS.obj
 0001:000f6cd0       ??1idAAS@@UAE@XZ           200f7cd0 f   AAS.obj
 0001:000f6ce0       ??0idAASLocal@@QAE@XZ      200f7ce0 f   AAS.obj
 0001:000f6d50       ??1idAASLocal@@UAE@XZ      200f7d50 f   AAS.obj
 0001:000f6df0       ?Init@idAASLocal@@UAE_NABVidStr@@I@Z 200f7df0 f   AAS.obj
 0001:000f6ee0       ?Shutdown@idAASLocal@@UAEXXZ 200f7ee0 f   AAS.obj
 0001:000f6f10       ?StatsSummary@idAASLocal@@UBEIXZ 200f7f10 f   AAS.obj
 0001:000f6f40       ?Stats@idAASLocal@@UBEXXZ  200f7f40 f   AAS.obj
 0001:000f6f80       ?GetSettings@idAASLocal@@UBEPBVidAASSettings@@XZ 200f7f80 f   AAS.obj
 0001:000f6fa0       ?PointAreaNum@idAASLocal@@UBEHABVidVec3@@@Z 200f7fa0 f   AAS.obj
 0001:000f6fc0       ?PointReachableAreaNum@idAASLocal@@UBEHABVidVec3@@ABVidBounds@@H@Z 200f7fc0 f   AAS.obj
 0001:000f6ff0       ?BoundsReachableAreaNum@idAASLocal@@UBEHABVidBounds@@H@Z 200f7ff0 f   AAS.obj
 0001:000f7020       ?PushPointIntoAreaNum@idAASLocal@@UBEXHAAVidVec3@@@Z 200f8020 f   AAS.obj
 0001:000f7040       ?AreaCenter@idAASLocal@@UBE?AVidVec3@@H@Z 200f8040 f   AAS.obj
 0001:000f7090       ?AreaRadius@idAASLocal@@UBEMH@Z 200f8090 f   AAS.obj
 0001:000f70c0       ?AreaBounds@idAASLocal@@UBEAAVidBounds@@H@Z 200f80c0 f   AAS.obj
 0001:000f70e0       ?AreaCeiling@idAASLocal@@UBEMH@Z 200f80e0 f   AAS.obj
 0001:000f7100       ?AreaFlags@idAASLocal@@UBEHH@Z 200f8100 f   AAS.obj
 0001:000f7120       ?AreaTravelFlags@idAASLocal@@UBEHH@Z 200f8120 f   AAS.obj
 0001:000f7140       ?Trace@idAASLocal@@UBE_NAAUaasTrace_s@@ABVidVec3@@1@Z 200f8140 f   AAS.obj
 0001:000f7170       ?GetPlane@idAASLocal@@UBEABVidPlane@@H@Z 200f8170 f   AAS.obj
 0001:000f71a0       ?GetEdgeVertexNumbers@idAASLocal@@UBEXHQAH@Z 200f81a0 f   AAS.obj
 0001:000f71f0       ?GetEdge@idAASLocal@@UBEXHAAVidVec3@@0@Z 200f81f0 f   AAS.obj
 0001:000f7290       ??_GidAASCallback@@UAEPAXI@Z 200f8290 f i AAS.obj
 0001:000f7290       ??_GrvAASFindGoalOutOfRange@@UAEPAXI@Z 200f8290 f i AAS_Find.obj
 0001:000f7290       ??_ErvAASFindGoalOutOfRange@@UAEPAXI@Z 200f8290 f i AAS_Find.obj
 0001:000f7290       ??_EidAASCallback@@UAEPAXI@Z 200f8290 f i AAS.obj
 0001:000f72e0       ??_EidAASLocal@@UAEPAXI@Z  200f82e0 f i AAS.obj
 0001:000f72e0       ??_GidAASLocal@@UAEPAXI@Z  200f82e0 f i AAS.obj
 0001:000f7330       ?GetFile@idAASLocal@@UAEPAVidAASFile@@XZ 200f8330 f i AAS.obj
 0001:000f7330       ?GetSelf@idPhysics_StaticMulti@@UBEPAVidEntity@@XZ 200f8330 f i Physics_StaticMulti.obj
 0001:000f7330       ?GetSelf@idPhysics_Base@@UBEPAVidEntity@@XZ 200f8330 f i SplineMover.obj
 0001:000f7330       ?GetSelf@idPhysics_Static@@UBEPAVidEntity@@XZ 200f8330 f i Physics_Static.obj
 0001:000f7340       ?Test@idAASLocal@@UAEXABVidVec3@@@Z 200f8340 f   AAS_debug.obj
 0001:000f74d0       ?ShowWalkPath@idAASLocal@@UBEXABVidVec3@@H0@Z 200f84d0 f   AAS_debug.obj
 0001:000f7620       ?ShowFlyPath@idAASLocal@@UBEXABVidVec3@@H0@Z 200f8620 f   AAS_debug.obj
 0001:000f7770       ?IsValid@idAASLocal@@UBE_NXZ 200f8770 f   AAS_debug.obj
 0001:000f7780       ?ShowAreas@idAASLocal@@UBEXABVidVec3@@_N@Z 200f8780 f   AAS_debug.obj
 0001:000f7970       ?DefaultSearchBounds@idAASLocal@@ABEABVidBounds@@XZ 200f8970 f   AAS_debug.obj
 0001:000f7980       ?DrawCone@idAASLocal@@ABEXABVidVec3@@0MABVidVec4@@@Z 200f8980 f   AAS_debug.obj
 0001:000f7c90       ?DrawAreaBounds@idAASLocal@@ABEXH@Z 200f8c90 f   AAS_debug.obj
 0001:000f7de0       ?DrawArea@idAASLocal@@ABEXH@Z 200f8de0 f   AAS_debug.obj
 0001:000f7fb0       ?DrawFace@idAASLocal@@ABEXH_N@Z 200f8fb0 f   AAS_debug.obj
 0001:000f81b0       ?DrawEdge@idAASLocal@@ABEXH_N@Z 200f91b0 f   AAS_debug.obj
 0001:000f8320       ?DrawReachability@idAASLocal@@ABEXPBVidReachability@@@Z 200f9320 f   AAS_debug.obj
 0001:000f83f0       ?ShowArea@idAASLocal@@ABEXABVidVec3@@@Z 200f93f0 f   AAS_debug.obj
 0001:000f8600       ?ShowWallEdges@idAASLocal@@ABEXABVidVec3@@@Z 200f9600 f   AAS_debug.obj
 0001:000f87a0       ?ShowHideArea@idAASLocal@@ABEXABVidVec3@@H@Z 200f97a0 f   AAS_debug.obj
 0001:000f8970       ?PullPlayer@idAASLocal@@ABE_NABVidVec3@@H@Z 200f9970 f   AAS_debug.obj
 0001:000f8d50       ?RandomPullPlayer@idAASLocal@@ABEXABVidVec3@@@Z 200f9d50 f   AAS_debug.obj
 0001:000f8e40       ?ShowPushIntoArea@idAASLocal@@ABEXABVidVec3@@@Z 200f9e40 f   AAS_debug.obj
 0001:000f8ec0       ?DrawSimpleEdge@idAASLocal@@ABEXH@Z 200f9ec0 f   AAS_debug.obj
 0001:000f8f30       ?DrawSimpleFace@idAASLocal@@ABEXH_N@Z 200f9f30 f   AAS_debug.obj
 0001:000f92a0       ?DrawSimpleArea@idAASLocal@@ABEXH@Z 200fa2a0 f   AAS_debug.obj
 0001:000f9430       ?ShowProblemEdge@idAASLocal@@ABEXH@Z 200fa430 f   AAS_debug.obj
 0001:000f9d10       ?ShowProblemFace@idAASLocal@@ABEXH@Z 200fad10 f   AAS_debug.obj
 0001:000f9d60       ?ShowProblemArea@idAASLocal@@ABEXH@Z 200fad60 f   AAS_debug.obj
 0001:000f9f10       ?ShowProblemArea@idAASLocal@@ABEXABVidVec3@@@Z 200faf10 f   AAS_debug.obj
 0001:000f9f40       ??0rvAASFindGoalForHide@@QAE@ABVidVec3@@@Z 200faf40 f   AAS_Find.obj
 0001:000fa020       ??1rvAASFindGoalForHide@@UAE@XZ 200fb020 f   AAS_Find.obj
 0001:000fa080       ?TestArea@rvAASFindGoalForHide@@MAE_NPAVidAAS@@HABUaasArea_s@@@Z 200fb080 f   AAS_Find.obj
 0001:000fa140       ??0rvAASFindGoalOutOfRange@@QAE@PAVidAI@@@Z 200fb140 f   AAS_Find.obj
 0001:000fa160       ?TestPoint@rvAASFindGoalOutOfRange@@MAE_NPAVidAAS@@ABVidVec3@@M@Z 200fb160 f   AAS_Find.obj
 0001:000fa180       ??0rvAASFindGoalForAttack@@QAE@PAVidAI@@@Z 200fb180 f   AAS_Find.obj
 0001:000fa1e0       ??1rvAASFindGoalForAttack@@UAE@XZ 200fb1e0 f   AAS_Find.obj
 0001:000fa270       ?TestCachedGoals@rvAASFindGoalForAttack@@QAE_NHAAUaasGoal_s@@@Z 200fb270 f   AAS_Find.obj
 0001:000fa2f0       ?Init@rvAASFindGoalForAttack@@UAEXXZ 200fb2f0 f   AAS_Find.obj
 0001:000fa4a0       ?Finish@rvAASFindGoalForAttack@@UAEXXZ 200fb4a0 f   AAS_Find.obj
 0001:000fa4c0       ?TestArea@rvAASFindGoalForAttack@@EAE_NPAVidAAS@@HABUaasArea_s@@@Z 200fb4c0 f   AAS_Find.obj
 0001:000fa590       ?TestPoint@rvAASFindGoalForAttack@@EAE_NPAVidAAS@@ABVidVec3@@M@Z 200fb590 f   AAS_Find.obj
 0001:000fa9a0       ?TestCachedGoal@rvAASFindGoalForAttack@@AAE_NH@Z 200fb9a0 f   AAS_Find.obj
 0001:000fab60       ??0rvAASFindGoalForTether@@QAE@PAVidAI@@PAVrvAITether@@@Z 200fbb60 f   AAS_Find.obj
 0001:000fab80       ??1rvAASFindGoalForTether@@UAE@XZ 200fbb80 f   AAS_Find.obj
 0001:000fab90       ?TestArea@rvAASFindGoalForTether@@MAE_NPAVidAAS@@HABUaasArea_s@@@Z 200fbb90 f   AAS_Find.obj
 0001:000fac00       ?TestPoint@rvAASFindGoalForTether@@MAE_NPAVidAAS@@ABVidVec3@@M@Z 200fbc00 f   AAS_Find.obj
 0001:000faca0       ??1rvAASFindGoalOutOfRange@@UAE@XZ 200fbca0 f i AAS_Find.obj
 0001:000facb0       ??_GrvAASFindGoalForAttack@@UAEPAXI@Z 200fbcb0 f i AAS_Find.obj
 0001:000facb0       ??_ErvAASFindGoalForAttack@@UAEPAXI@Z 200fbcb0 f i AAS_Find.obj
 0001:000fad00       ??_ErvAASFindGoalForHide@@UAEPAXI@Z 200fbd00 f i AAS_Find.obj
 0001:000fad00       ??_GrvAASFindGoalForHide@@UAEPAXI@Z 200fbd00 f i AAS_Find.obj
 0001:000fad50       ??_GrvAASFindGoalForTether@@UAEPAXI@Z 200fbd50 f i AAS_Find.obj
 0001:000fad50       ??_ErvAASFindGoalForTether@@UAEPAXI@Z 200fbd50 f i AAS_Find.obj
 0001:000fada0       ?GetWallEdges@idAASLocal@@UBEHHABVidBounds@@HPAHH@Z 200fbda0 f   AAS_pathing.obj
 0001:000fb070       ?SortWallEdges@idAASLocal@@UBEXPAHH@Z 200fc070 f   AAS_pathing.obj
 0001:000fb230       ?WalkPathToGoal@idAASLocal@@UBE_NAAUaasPath_s@@HABVidVec3@@H1H@Z 200fc230 f   AAS_pathing.obj
 0001:000fb550       ?WalkPathValid@idAASLocal@@UBE_NHABVidVec3@@H0HAAV2@AAH@Z 200fc550 f   AAS_pathing.obj
 0001:000fbf60       ?FlyPathToGoal@idAASLocal@@UBE_NAAUaasPath_s@@HABVidVec3@@H1H@Z 200fcf60 f   AAS_pathing.obj
 0001:000fc1c0       ?FlyPathValid@idAASLocal@@UBE_NHABVidVec3@@H0HAAV2@AAH@Z 200fd1c0 f   AAS_pathing.obj
 0001:000fc270       ?EdgeSplitPoint@idAASLocal@@ABE_NAAVidVec3@@HABVidPlane@@@Z 200fd270 f   AAS_pathing.obj
 0001:000fc3a0       ?FloorEdgeSplitPoint@idAASLocal@@ABE_NAAVidVec3@@HABVidPlane@@1_N@Z 200fd3a0 f   AAS_pathing.obj
 0001:000fc800       ?SubSampleWalkPath@idAASLocal@@ABE?AVidVec3@@HABV2@00HAAH@Z 200fd800 f   AAS_pathing.obj
 0001:000fc9d0       ?SubSampleFlyPath@idAASLocal@@ABE?AVidVec3@@HABV2@00HAAH@Z 200fd9d0 f   AAS_pathing.obj
 0001:000fcb90       ??0idRoutingCache@@QAE@H@Z 200fdb90 f   AAS_routing.obj
 0001:000fcc60       ??1idRoutingCache@@QAE@XZ  200fdc60 f   AAS_routing.obj
 0001:000fccc0       ?Size@idRoutingCache@@QBEHXZ 200fdcc0 f   AAS_routing.obj
 0001:000fccd0       ?SetAreaState@idAASLocal@@UAE_NABVidBounds@@H_N@Z 200fdcd0 f   AAS_routing.obj
 0001:000fcd80       ?AddObstacle@idAASLocal@@UAEHABVidBounds@@@Z 200fdd80 f   AAS_routing.obj
 0001:000fd050       ?RemoveObstacle@idAASLocal@@UAEXH@Z 200fe050 f   AAS_routing.obj
 0001:000fd0b0       ?RemoveAllObstacles@idAASLocal@@UAEXXZ 200fe0b0 f   AAS_routing.obj
 0001:000fd1b0       ?TravelTimeToGoalArea@idAASLocal@@UBEHHABVidVec3@@HH@Z 200fe1b0 f   AAS_routing.obj
 0001:000fd210       ?RouteToGoalArea@idAASLocal@@UBE_NHVidVec3@@HHAAHPAPAVidReachability@@@Z 200fe210 f   AAS_routing.obj
 0001:000fd620       ?FindNearestGoal@idAASLocal@@UBE_NAAUaasGoal_s@@HVidVec3@@ABV3@HMMPAUaasObstacle_s@@HAAVidAASCallback@@@Z 200fe620 f   AAS_routing.obj
 0001:000fde00       ?SetReachabilityState@idAASLocal@@UAEXPAVidReachability@@_N@Z 200fee00 f   AAS_routing.obj
 0001:000fde60       ?SetupRouting@idAASLocal@@AAE_NXZ 200fee60 f   AAS_routing.obj
 0001:000fdea0       ?ShutdownRouting@idAASLocal@@AAEXXZ 200feea0 f   AAS_routing.obj
 0001:000fdeb0       ?AreaTravelTime@idAASLocal@@ABEGHABVidVec3@@0@Z 200feeb0 f   AAS_routing.obj
 0001:000fdf90       ?CalculateAreaTravelTimes@idAASLocal@@AAEXXZ 200fef90 f   AAS_routing.obj
 0001:000fe1c0       ?DeleteAreaTravelTimes@idAASLocal@@AAEXXZ 200ff1c0 f   AAS_routing.obj
 0001:000fe1e0       ?SetupRoutingCache@idAASLocal@@AAEXXZ 200ff1e0 f   AAS_routing.obj
 0001:000fe320       ?DeleteClusterCache@idAASLocal@@AAEXH@Z 200ff320 f   AAS_routing.obj
 0001:000fe3d0       ?DeletePortalCache@idAASLocal@@AAEXXZ 200ff3d0 f   AAS_routing.obj
 0001:000fe460       ?ShutdownRoutingCache@idAASLocal@@AAEXXZ 200ff460 f   AAS_routing.obj
 0001:000fe520       ?RoutingStats@idAASLocal@@ABEXXZ 200ff520 f   AAS_routing.obj
 0001:000fe620       ?LinkCache@idAASLocal@@ABEXPAVidRoutingCache@@@Z 200ff620 f   AAS_routing.obj
 0001:000fe680       ?UnlinkCache@idAASLocal@@ABEXPAVidRoutingCache@@@Z 200ff680 f   AAS_routing.obj
 0001:000fe6e0       ?DeleteOldestCache@idAASLocal@@ABEXXZ 200ff6e0 f   AAS_routing.obj
 0001:000fe7d0       ?GetAreaReachability@idAASLocal@@ABEPAVidReachability@@HH@Z 200ff7d0 f   AAS_routing.obj
 0001:000fe800       ?UpdateAreaRoutingCache@idAASLocal@@ABEXPAVidRoutingCache@@@Z 200ff800 f   AAS_routing.obj
 0001:000fead0       ?GetAreaRoutingCache@idAASLocal@@ABEPAVidRoutingCache@@HHH@Z 200ffad0 f   AAS_routing.obj
 0001:000fec40       ?UpdatePortalRoutingCache@idAASLocal@@ABEXPAVidRoutingCache@@@Z 200ffc40 f   AAS_routing.obj
 0001:000fee50       ?GetPortalRoutingCache@idAASLocal@@ABEPAVidRoutingCache@@HHH@Z 200ffe50 f   AAS_routing.obj
 0001:000fef50       ?RemoveRoutingCacheUsingArea@idAASLocal@@AAEXH@Z 200fff50 f   AAS_routing.obj
 0001:000fefc0       ?DisableArea@idAASLocal@@AAEXH@Z 200fffc0 f   AAS_routing.obj
 0001:000ff000       ?EnableArea@idAASLocal@@AAEXH@Z 20100000 f   AAS_routing.obj
 0001:000ff040       ?SetAreaState_r@idAASLocal@@AAE_NHABVidBounds@@H_N@Z 20100040 f   AAS_routing.obj
 0001:000ff0f0       ?GetBoundsAreas_r@idAASLocal@@ABEXHABVidBounds@@AAV?$idList@H@@@Z 201000f0 f   AAS_routing.obj
 0001:000ff320       ?SetObstacleState@idAASLocal@@AAEXPBVidRoutingObstacle@@_N@Z 20100320 f   AAS_routing.obj
 0001:000ff430       ??_GidRoutingObstacle@@QAEPAXI@Z 20100430 f i AAS_routing.obj
 0001:000ff4b0       ?Normal@aasFeature_s@@QAEAAVidVec3@@XZ 201004b0 f   AAS_tactical.obj
 0001:000ff530       ?Origin@aasFeature_s@@QAEAAVidVec3@@XZ 20100530 f   AAS_tactical.obj
 0001:000ff580       ?DrawDebugInfo@aasFeature_s@@QAEXH@Z 20100580 f   AAS_tactical.obj
 0001:000ffa80       ?GetLookPos@aasFeature_s@@QAEHAAVidVec3@@ABV2@M@Z 20100a80 f   AAS_tactical.obj
 0001:000ffd60       ?CREATE_SENSOR@rvAASTacticalSensor@@SAPAU1@PAVidActor@@@Z 20100d60 f   AAS_tactical.obj
 0001:000ffe00       ?DrawDebugInfo@rvTest@@QAEXVidVec4@@ABVidVec3@@1@Z 20100e00 f   AAS_tactical.obj
 0001:000ffe60       ?DrawDebugInfo@rvTest@@QAEXVidVec4@@ABVidVec3@@@Z 20100e60 f   AAS_tactical.obj
 0001:000fff20       ?DrawDebugInfo@rvTestSet@@QAEXABVidVec4@@ABVidVec3@@@Z 20100f20 f   AAS_tactical.obj
 0001:00100040       ??0rvAASTacticalSensorLocal@@QAE@XZ 20101040 f   AAS_tactical.obj
 0001:001001e0       ??1rvAASTacticalSensorLocal@@QAE@XZ 201011e0 f   AAS_tactical.obj
 0001:00100280       ?Update@rvAASTacticalSensorLocal@@UAEXXZ 20101280 f   AAS_tactical.obj
 0001:00100b40       ?Save@rvAASTacticalSensorLocal@@UAEXPAVidSaveGame@@@Z 20101b40 f   AAS_tactical.obj
 0001:00100cd0       ?Restore@rvAASTacticalSensorLocal@@UAEXPAVidRestoreGame@@@Z 20101cd0 f   AAS_tactical.obj
 0001:00100e70       ?Clear@rvAASTacticalSensorLocal@@UAEXXZ 20101e70 f   AAS_tactical.obj
 0001:00100ef0       ?DrawDebugInfo@rvAASTacticalSensorLocal@@QAEXXZ 20101ef0 f   AAS_tactical.obj
 0001:001015d0       ?Search@rvAASTacticalSensorLocal@@QAEXXZ 201025d0 f   AAS_tactical.obj
 0001:00102520       ?SearchReset@rvAASTacticalSensorLocal@@QAEXPAVidEntity@@MM@Z 20103520 f   AAS_tactical.obj
 0001:001027d0       ?SearchRadius@rvAASTacticalSensorLocal@@UAEXABVidVec3@@MM@Z 201037d0 f   AAS_tactical.obj
 0001:001028e0       ?SearchCover@rvAASTacticalSensorLocal@@UAEXMM@Z 201038e0 f   AAS_tactical.obj
 0001:00102920       ?SearchHide@rvAASTacticalSensorLocal@@UAEXPAVidEntity@@@Z 20103920 f   AAS_tactical.obj
 0001:001029a0       ?SearchFlank@rvAASTacticalSensorLocal@@UAEXXZ 201039a0 f   AAS_tactical.obj
 0001:00102a00       ?SearchAdvance@rvAASTacticalSensorLocal@@UAEXXZ 20103a00 f   AAS_tactical.obj
 0001:00102a50       ?SearchRetreat@rvAASTacticalSensorLocal@@UAEXXZ 20103a50 f   AAS_tactical.obj
 0001:00102aa0       ?SearchAmbush@rvAASTacticalSensorLocal@@UAEXXZ 20103aa0 f   AAS_tactical.obj
 0001:00102b00       ?SearchDebug@rvAASTacticalSensorLocal@@UAEXXZ 20103b00 f   AAS_tactical.obj
 0001:00102b20       ?SearchComputeWeightRange@rvAASTacticalSensorLocal@@QAEMAAM@Z 20103b20 f   AAS_tactical.obj
 0001:00102dd0       ?SearchComputeWeight@rvAASTacticalSensorLocal@@QAEMXZ 20103dd0 f   AAS_tactical.obj
 0001:00102f00       ?TestSetupCurrentValues@rvAASTacticalSensorLocal@@QAEXXZ 20103f00 f   AAS_tactical.obj
 0001:00103400       ?TestValid@rvAASTacticalSensorLocal@@UAE_NPAUaasFeature_s@@M@Z 20104400 f   AAS_tactical.obj
 0001:00103780       ?TestValidWithCurrentState@rvAASTacticalSensorLocal@@UAE_NPAUaasFeature_s@@@Z 20104780 f   AAS_tactical.obj
 0001:001037f0       ?Reserve@rvAASTacticalSensorLocal@@UAEXPAUaasFeature_s@@@Z 201047f0 f   AAS_tactical.obj
 0001:00103840       ?Dist@idVec3@@QBEMABV1@@Z  20104840 f i AAS_tactical.obj
 0001:001038d0       ?Feature@rvAASTacticalSensorLocal@@UAEPAUaasFeature_s@@H@Z 201048d0 f i AAS_tactical.obj
 0001:001038f0       ?FeatureCount@rvAASTacticalSensorLocal@@UAEHXZ 201048f0 f i AAS_tactical.obj
 0001:00103900       ?Look@rvAASTacticalSensorLocal@@UBEPAUaasFeature_s@@XZ 20104900 f i AAS_tactical.obj
 0001:00103910       ?Near@rvAASTacticalSensorLocal@@UBEPAUaasFeature_s@@XZ 20104910 f i AAS_tactical.obj
 0001:00103920       ?Reserved@rvAASTacticalSensorLocal@@UBEPAUaasFeature_s@@XZ 20104920 f i AAS_tactical.obj
 0001:00103930       ?ReservedOrigin@rvAASTacticalSensorLocal@@UBEABVidVec3@@XZ 20104930 f i AAS_tactical.obj
 0001:00103940       ?Reset@rvTestSet@@QAEXXZ   20104940 f i AAS_tactical.obj
 0001:001039a0       ?Restore@rvTestSet@@QAEXPAVidRestoreGame@@@Z 201049a0 f i AAS_tactical.obj
 0001:00103a40       ?Save@rvTestSet@@QAEXPAVidSaveGame@@@Z 20104a40 f i AAS_tactical.obj
 0001:00103b20       ?SetupOriginAndFacing@rvTestSet@@QAEXPBVidEntity@@PBVidVec3@@1@Z 20104b20 f i AAS_tactical.obj
 0001:00103c90       ?Test@rvTest@@QAE_NMM@Z    20104c90 f i AAS_tactical.obj
 0001:00103d20       ?Test@rvTestSet@@QAE_NPAUaasFeature_s@@M@Z 20104d20 f i AAS_tactical.obj
 0001:00104130       ?rvSortFeature@@YAHPBQAUaasFeature_s@@0@Z 20105130 f i AAS_tactical.obj
 0001:00104160       ??0idAI@@QAE@XZ            20105160 f   AI.obj
 0001:00104880       ??1idAI@@UAE@XZ            20105880 f   AI.obj
 0001:00104b40       ?Save@idAI@@QBEXPAVidSaveGame@@@Z 20105b40 f   AI.obj
 0001:00105330       ?Restore@idAI@@QAEXPAVidRestoreGame@@@Z 20106330 f   AI.obj
 0001:00106290       ?Spawn@idAI@@QAEXXZ        20107290 f   AI.obj
 0001:00107d90       ?TalkTo@idAI@@UAEXPAVidActor@@@Z 20108d90 f   AI.obj
 0001:00108130       ?GetTalkState@idAI@@QBE?AW4talkState_t@@XZ 20109130 f   AI.obj
 0001:00108180       ?TouchedByFlashlight@idAI@@QAEXPAVidActor@@@Z 20109180 f   AI.obj
 0001:001081a0       ?FindEnemy@idAI@@QAEPAVidEntity@@_N0M@Z 201091a0 f   AI.obj
 0001:00108410       ?SetSpawner@idAI@@QAEXPAVrvSpawner@@@Z 20109410 f   AI.obj
 0001:00108440       ?GetSpawner@idAI@@QAEPAVrvSpawner@@XZ 20109440 f   AI.obj
 0001:00108470       ?List_f@idAI@@SAXABVidCmdArgs@@@Z 20109470 f   AI.obj
 0001:00108be0       ?IsCrouching@idAI@@UBE_NXZ 20109be0 f   AI.obj
 0001:00108bf0       ?DormantBegin@idAI@@UAEXXZ 20109bf0 f   AI.obj
 0001:00108c10       ?DormantEnd@idAI@@UAEXXZ   20109c10 f   AI.obj
 0001:00108ca0       ?Think@idAI@@UAEXXZ        20109ca0 f   AI.obj
 0001:00109070       ?Activate@idAI@@QAEXPAVidEntity@@@Z 2010a070 f   AI.obj
 0001:00109140       ?Hide@idAI@@UAEXXZ         2010a140 f   AI.obj
 0001:001091a0       ?Show@idAI@@UAEXXZ         2010a1a0 f   AI.obj
 0001:00109270       ?AdjustHealthByDamage@idAI@@UAEXH@Z 2010a270 f   AI.obj
 0001:001092b0       ?CalculateAttackOffsets@idAI@@QAEXXZ 2010a2b0 f   AI.obj
 0001:00109700       ?InitNonPersistentSpawnArgs@idAI@@QAEXXZ 2010a700 f   AI.obj
 0001:00109820       ?Speak@idAI@@QAE_NPBD_N@Z  2010a820 f   AI.obj
 0001:00109950       ?StopSpeaking@idAI@@QAEX_N@Z 2010a950 f   AI.obj
 0001:00109a00       ?CheckBlink@idAI@@UAEXXZ   2010aa00 f   AI.obj
 0001:00109a10       ?CanPlayChatterSounds@idAI@@MBE_NXZ 2010aa10 f   AI.obj
 0001:00109a90       ?UpdateChatter@idAI@@IAEXXZ 2010aa90 f   AI.obj
 0001:00109bb0       ?ReactToShotAt@idAI@@QAEXPAVidEntity@@ABVidVec3@@1@Z 2010abb0 f   AI.obj
 0001:00109de0       ?ReactToPain@idAI@@QAEXPAVidEntity@@H@Z 2010ade0 f   AI.obj
 0001:00109df0       ?UpdateHelper@idAI@@QAEXXZ 2010adf0 f   AI.obj
 0001:00109ed0       ?GetActiveHelper@idAI@@QAEPAVrvAIHelper@@XZ 2010aed0 f   AI.obj
 0001:00109f30       ?LastKnownPosition@idAI@@QAEABVidVec3@@PBVidEntity@@@Z 2010af30 f   AI.obj
 0001:00109f90       ?HeardSound@idAI@@QAEPAVidEntity@@H@Z 2010af90 f   AI.obj
 0001:0010a120       ?ReactionTo@idAI@@QAEHPBVidEntity@@@Z 2010b120 f   AI.obj
 0001:0010a1e0       ?SetTalkState@idAI@@QAEXW4talkState_t@@@Z 2010b1e0 f   AI.obj
 0001:0010a220       ?SetPassivePrefix@idAI@@QAEXPBD@Z 2010b220 f   AI.obj
 0001:0010a2f0       ?GetPassiveAnimPrefix@idAI@@IAE_NPBDAAVidStr@@@Z 2010b2f0 f   AI.obj
 0001:0010a390       ?SetEnemy@idAI@@QAE_NPAVidEntity@@@Z 2010b390 f   AI.obj
 0001:0010a4c0       ?ClearEnemy@idAI@@QAEX_N@Z 2010b4c0 f   AI.obj
 0001:0010a630       ?UpdateEnemy@idAI@@QAEXXZ  2010b630 f   AI.obj
 0001:0010ad30       ?UpdateEnemyPosition@idAI@@QAEX_N@Z 2010bd30 f   AI.obj
 0001:0010af30       ?UpdateEnemyVisibility@idAI@@QAEXXZ 2010bf30 f   AI.obj
 0001:0010b000       ?GetAimDir@idAI@@QBE_NABVidVec3@@PBVidEntity@@PBVidDict@@PAV3@AAV2@MM@Z 2010c000 f   AI.obj
 0001:0010b6f0       ?GetPredictedAimDirOffset@idAI@@QBEXABVidVec3@@0M0AAV2@@Z 2010c6f0 f   AI.obj
 0001:0010b8a0       ?Pain@idAI@@UAE_NPAVidEntity@@0HABVidVec3@@H@Z 2010c8a0 f   AI.obj
 0001:0010bae0       ?Killed@idAI@@UAEXPAVidEntity@@0HABVidVec3@@H@Z 2010cae0 f   AI.obj
 0001:0010c1d0       ?CheckDeathCausesMissionFailure@idAI@@QAE_NXZ 2010d1d0 f   AI.obj
 0001:0010c290       ?Attack@idAI@@UAE_NPBDW4jointHandle_t@@PAVidEntity@@ABVidVec3@@@Z 2010d290 f   AI.obj
 0001:0010c390       ?AttackRanged@idAI@@UAEPAVidProjectile@@PBDPBVidDict@@W4jointHandle_t@@PAVidEntity@@ABVidVec3@@@Z 2010d390 f   AI.obj
 0001:0010d180       ?AttackProjectile@idAI@@UAEPAVidProjectile@@PBVidDict@@ABVidVec3@@ABVidAngles@@@Z 2010e180 f   AI.obj
 0001:0010d540       ?AttackMelee@idAI@@UAE_NPBDPBVidDict@@@Z 2010e540 f   AI.obj
 0001:0010dc10       ?CreateProjectileClipModel@idAI@@QBEXXZ 2010ec10 f   AI.obj
 0001:0010dd20       ?CreateProjectile@idAI@@QAEPAVidProjectile@@PBVidDict@@ABVidVec3@@1@Z 2010ed20 f   AI.obj
 0001:0010de60       ?RemoveProjectile@idAI@@QAEXXZ 2010ee60 f   AI.obj
 0001:0010ded0       ?DamageFeedback@idAI@@UAEXPAVidEntity@@0AAH@Z 2010eed0 f   AI.obj
 0001:0010df50       ?DirectDamage@idAI@@QAEXPBDPAVidEntity@@@Z 2010ef50 f   AI.obj
 0001:0010e2c0       ?TestMelee@idAI@@QBE_NXZ   2010f2c0 f   AI.obj
 0001:0010e580       ?PushWithAF@idAI@@QAEXXZ   2010f580 f   AI.obj
 0001:0010e740       ?IsMeleeNeeded@idAI@@QAE_NXZ 2010f740 f   AI.obj
 0001:0010e800       ?GetMuzzle@idAI@@QAEXW4jointHandle_t@@AAVidVec3@@AAVidMat3@@@Z 2010f800 f   AI.obj
 0001:0010e9a0       ?UpdateAnimationControllers@idAI@@UAE_NXZ 2010f9a0 f   AI.obj
 0001:00110330       ?UpdateStates@idAI@@QAEXXZ 20111330 f   AI.obj
 0001:001103c0       ?UpdateFocus@idAI@@QAEXABVidMat3@@@Z 201113c0 f   AI.obj
 0001:00111020       ?FootStep@idAI@@UAEXXZ     20112020 f   AI.obj
 0001:00111040       ?RadiusDamageFromJoint@idAI@@QAEXPBD0@Z 20112040 f   AI.obj
 0001:00111100       ?BecomeSolid@idAI@@QAEXXZ  20112100 f   AI.obj
 0001:001111c0       ?BecomeNonSolid@idAI@@QAEXXZ 201121c0 f   AI.obj
 0001:001111f0       ?ChooseAnim@idAI@@QAEPBDHPBD@Z 201121f0 f   AI.obj
 0001:001112a0       ?SkipCurrentDestination@idAI@@UBE_NXZ 201122a0 f   AI.obj
 0001:001112b0       ?DoDormantTests@idAI@@UAE_NXZ 201122b0 f   AI.obj
 0001:00111360       ?OverrideFlag@idAI@@QAEXW4aiFlagOverride_t@@_N@Z 20112360 f   AI.obj
 0001:001114a0       ?RestoreFlag@idAI@@QAEXW4aiFlagOverride_t@@@Z 201124a0 f   AI.obj
 0001:00111540       ?SkipImpulse@idAI@@UAE_NPAVidEntity@@H@Z 20112540 f   AI.obj
 0001:00111590       ?GetIdleAnimName@idAI@@UAEPBDXZ 20112590 f   AI.obj
 0001:001115e0       ?CanBecomeSolid@idAI@@QAE_NXZ 201125e0 f   AI.obj
 0001:00111680       ?CanHitEnemyFromAnim@idAI@@QAE_NHVidVec3@@@Z 20112680 f   AI.obj
 0001:00111b70       ?CanHitEnemy@idAI@@QAE_NXZ 20112b70 f   AI.obj
 0001:00111db0       ?CanHitEnemyFromJoint@idAI@@QAE_NPBD@Z 20112db0 f   AI.obj
 0001:001120d0       ?GetTurnDelta@idAI@@QAEMXZ 201130d0 f   AI.obj
 0001:00112180       ?ExecScriptFunction@idAI@@QAEXAAVrvScriptFuncUtility@@PAVidEntity@@@Z 20113180 f   AI.obj
 0001:001121c0       ?SetLeader@idAI@@QAEXPAVidEntity@@@Z 201131c0 f   AI.obj
 0001:00112290       ?CheckForEnemy@idAI@@QAE_N_N0@Z 20113290 f   AI.obj
 0001:00112390       ?CheckForCloserEnemy@idAI@@QAE_NXZ 20113390 f   AI.obj
 0001:00112550       ?CheckForReplaceEnemy@idAI@@QAE_NPAVidEntity@@@Z 20113550 f   AI.obj
 0001:00112740       ?CheckForTeammateEnemy@idAI@@QAE_NXZ 20113740 f   AI.obj
 0001:001128d0       ?ValidateCover@idAI@@QAE_NXZ 201138d0 f   AI.obj
 0001:001129b0       ?Begin@idAI@@QAEXXZ        201139b0 f   AI.obj
 0001:00112b10       ?WakeUp@idAI@@QAEXXZ       20113b10 f   AI.obj
 0001:00112db0       ?Prethink@idAI@@UAEXXZ     20113db0 f   AI.obj
 0001:00112f30       ?Postthink@idAI@@UAEXXZ    20113f30 f   AI.obj
 0001:00113180       ?UpdateThreat@idAI@@MAEXXZ 20114180 f   AI.obj
 0001:001131e0       ?CalculateEnemyThreat@idAI@@MAEMPAVidEntity@@@Z 201141e0 f   AI.obj
 0001:00113350       ?IsTethered@idAI@@UBE_NXZ  20114350 f   AI.obj
 0001:001134a0       ?IsWithinTether@idAI@@QBE_NXZ 201144a0 f   AI.obj
 0001:00113510       ?GetTether@idAI@@QAEPAVrvAITether@@XZ 20114510 f   AI.obj
 0001:00113540       ?SetTether@idAI@@UAEXPAVrvAITether@@@Z 20114540 f   AI.obj
 0001:001136d0       ?ScriptedMove@idAI@@QAEXPAVidEntity@@M_N@Z 201146d0 f   AI.obj
 0001:00113760       ?ScriptedFace@idAI@@QAEXPAVidEntity@@_N@Z 20114760 f   AI.obj
 0001:001137d0       ?ScriptedAnim@idAI@@QAEXPBDH_N1@Z 201147d0 f   AI.obj
 0001:00113870       ?ScriptedPlaybackAim@idAI@@QAEXPBDHH@Z 20114870 f   AI.obj
 0001:001138e0       ?ScriptedAction@idAI@@QAEXPAVidEntity@@_N@Z 201148e0 f   AI.obj
 0001:00113990       ?ScriptedStop@idAI@@QAEXXZ 20114990 f   AI.obj
 0001:001139b0       ?SetScript@idAI@@QAEXPBD0@Z 201149b0 f   AI.obj
 0001:00113b90       ?ScriptedBegin@idAI@@AAE_N_N0@Z 20114b90 f   AI.obj
 0001:00113c00       ?ScriptedEnd@idAI@@AAEXXZ  20114c00 f   AI.obj
 0001:00113c20       ?OnDeath@idAI@@MAEXXZ      20114c20 f   AI.obj
 0001:00113ea0       ?OnStateChange@idAI@@MAEXH@Z 20114ea0 f   AI.obj
 0001:00113eb0       ?OnUpdatePlayback@idAI@@MAEXABVrvDeclPlaybackData@@@Z 20114eb0 f   AI.obj
 0001:00113ec0       ?OnEnemyChange@idAI@@MAEXPAVidEntity@@@Z 20114ec0 f   AI.obj
 0001:00114010       ?OnLeaderChange@idAI@@MAEXPAVidEntity@@@Z 20115010 f   AI.obj
 0001:00114050       ?OnStartMoving@idAI@@MAEXXZ 20115050 f   AI.obj
 0001:00114060       ?OnStopMoving@idAI@@MAEXW4aiMoveCommand_t@@@Z 20115060 f   AI.obj
 0001:00114070       ?OnTacticalChange@idAI@@MAEXW4aiTactical_t@@@Z 20115070 f   AI.obj
 0001:00114090       ?OnFriendlyFire@idAI@@MAEXPAVidActor@@@Z 20115090 f   AI.obj
 0001:001140a0       ?OnWakeUp@idAI@@MAEXXZ     201150a0 f   AI.obj
 0001:001140b0       ?OnTouch@idAI@@MAEXPAVidEntity@@PAUtrace_t@@@Z 201150b0 f   AI.obj
 0001:00114230       ?OnCoverInvalidated@idAI@@MAEXXZ 20115230 f   AI.obj
 0001:00114270       ?OnCoverNotFacingEnemy@idAI@@MAEXXZ 20115270 f   AI.obj
 0001:001142a0       ?OnEnemyVisiblityChange@idAI@@MAEX_N@Z 201152a0 f   AI.obj
 0001:001142b0       ?OnStartAction@idAI@@MAEXXZ 201152b0 f   AI.obj
 0001:001142c0       ?OnStopAction@idAI@@MAEXXZ 201152c0 f   AI.obj
 0001:001142d0       ?OnSetKey@idAI@@MAEXPBD0@Z 201152d0 f   AI.obj
 0001:00114420       ??0rvAIFuncs_s@@QAE@XZ     20115420 f i AI.obj
 0001:001144e0       ??0rvAIPassive_s@@QAE@XZ   201154e0 f i AI.obj
 0001:00114570       ??1rvAIAction@@QAE@XZ      20115570 f i AI.obj
 0001:00114570       ??1rvScriptFuncUtility@@QAE@XZ 20115570 f i Entity.obj
 0001:00114610       ??1rvAIFuncs_s@@QAE@XZ     20115610 f i AI.obj
 0001:001146d0       ??1rvAIPain_s@@QAE@XZ      201156d0 f i AI.obj
 0001:001146e0       ??1rvAIPassive_s@@QAE@XZ   201156e0 f i AI.obj
 0001:00114760       ?CanAnnounce@idAI@@UBE_NM@Z 20115760 f i AI.obj
 0001:001147d0       ?CanMove@idAI@@UBE_NXZ     201157d0 f i AI.obj
 0001:00114800       ?CanTakeDamage@idEntity@@UBE_NXZ 20115800 f i Actor.obj
 0001:00114800       ?CanTakeDamage@idAI@@UBE_NXZ 20115800 f i AI.obj
 0001:00114810       ?CanTakePain@idAI@@UBE_NXZ 20115810 f i AI.obj
 0001:00114820       ?CanTurn@idAI@@UBE_NXZ     20115820 f i AI.obj
 0001:00114850       ??0rvAIActionTimer@@QAE@XZ 20115850 f   AI_Actions.obj
 0001:00114860       ?Init@rvAIActionTimer@@QAE_NABVidDict@@PBD@Z 20115860 f   AI_Actions.obj
 0001:001148d0       ?Save@rvAIActionTimer@@QBEXPAVidSaveGame@@@Z 201158d0 f   AI_Actions.obj
 0001:001148f0       ?Restore@rvAIActionTimer@@QAEXPAVidRestoreGame@@@Z 201158f0 f   AI_Actions.obj
 0001:00114910       ?Clear@rvAIActionTimer@@QAEXH@Z 20115910 f   AI_Actions.obj
 0001:00114920       ?Reset@rvAIActionTimer@@QAEXHMM@Z 20115920 f   AI_Actions.obj
 0001:001149a0       ?Add@rvAIActionTimer@@QAEXHM@Z 201159a0 f   AI_Actions.obj
 0001:00114a10       ??0rvAIAction@@QAE@XZ      20115a10 f   AI_Actions.obj
 0001:00114a60       ?Init@rvAIAction@@QAE_NABVidDict@@PBD1H@Z 20115a60 f   AI_Actions.obj
 0001:00115160       ?Save@rvAIAction@@QBEXPAVidSaveGame@@@Z 20116160 f   AI_Actions.obj
 0001:00115250       ?Restore@rvAIAction@@QAEXPAVidRestoreGame@@@Z 20116250 f   AI_Actions.obj
 0001:00115540       ?UpdateAction@idAI@@IAE_NXZ 20116540 f   AI_Actions.obj
 0001:00115560       ?CheckActions@idAI@@MAE_NXZ 20116560 f   AI_Actions.obj
 0001:001156b0       ?CheckPainActions@idAI@@MAE_NXZ 201166b0 f   AI_Actions.obj
 0001:00115730       ?PerformAction@idAI@@IAE_NPAVrvAIAction@@P81@AE_N0H@ZPAVrvAIActionTimer@@@Z 20116730 f   AI_Actions.obj
 0001:00115d20       ?PerformAction@idAI@@IAEXPBDH_N@Z 20116d20 f   AI_Actions.obj
 0001:00115dd0       ?CheckAction_EvadeLeft@idAI@@UAE_NPAVrvAIAction@@H@Z 20116dd0 f   AI_Actions.obj
 0001:00115e30       ?CheckAction_EvadeRight@idAI@@UAE_NPAVrvAIAction@@H@Z 20116e30 f   AI_Actions.obj
 0001:00115e80       ?CheckAction_RangedAttack@idAI@@UAE_NPAVrvAIAction@@H@Z 20116e80 f   AI_Actions.obj
 0001:00116030       ?CheckAction_MeleeAttack@idAI@@UAE_NPAVrvAIAction@@H@Z 20117030 f   AI_Actions.obj
 0001:001160c0       ?CheckAction_LeapAttack@idAI@@QAE_NPAVrvAIAction@@H@Z 201170c0 f   AI_Actions.obj
 0001:001161a0       ?CheckAction_JumpBack@idAI@@UAE_NPAVrvAIAction@@H@Z 201171a0 f   AI_Actions.obj
 0001:001161c7       ??_9idAI@@$BCIA@AE         201171c7 f i AI_Actions.obj
 0001:001161cf       ??_9idAI@@$BCIE@AE         201171cf f i AI_Actions.obj
 0001:001161d7       ??_9idAI@@$BCII@AE         201171d7 f i AI_Actions.obj
 0001:001161d7       ??_9rvMonsterBerserker@@$BCII@AE 201171d7 f i Monster_Berserker.obj
 0001:001161df       ??_9idAI@@$BCIM@AE         201171df f i AI_Actions.obj
 0001:001161e7       ??_9idAI@@$BCJA@AE         201171e7 f i AI_Actions.obj
 0001:001161f0       ?AnnounceNewEnemy@idAI@@QAEXXZ 201171f0 f   AI_Announcements.obj
 0001:00116660       ?AnnounceKill@idAI@@QAEXPAVidActor@@@Z 20117660 f   AI_Announcements.obj
 0001:001166b0       ?AnnounceTactical@idAI@@QAEXW4aiTactical_t@@@Z 201176b0 f   AI_Announcements.obj
 0001:00116760       ?AnnounceSuppressed@idAI@@QAEXPAVidActor@@@Z 20117760 f   AI_Announcements.obj
 0001:00116770       ?AnnounceSuppressing@idAI@@QAEXXZ 20117770 f   AI_Announcements.obj
 0001:00116780       ?AnnounceFlinch@idAI@@QAEXPAVidEntity@@@Z 20117780 f   AI_Announcements.obj
 0001:00116870       ?AnnounceInjured@idAI@@QAEXXZ 20117870 f   AI_Announcements.obj
 0001:001168a0       ?AnnounceFriendlyFire@idAI@@QAEXPAVidActor@@@Z 201178a0 f   AI_Announcements.obj
 0001:00116a00       ?AnnounceGrenade@idAI@@QAEXXZ 20117a00 f   AI_Announcements.obj
 0001:00116a50       ?AnnounceGrenadeThrow@idAI@@QAEXXZ 20117a50 f   AI_Announcements.obj
 0001:00116aa0       ?AnnounceKill@rvAIManager@@QAEXPAVidAI@@PAVidEntity@@1@Z 20117aa0 f   AI_Announcements.obj
 0001:00116c20       ?AnnounceDeath@rvAIManager@@QAEXPAVidAI@@PAVidEntity@@@Z 20117c20 f   AI_Announcements.obj
 0001:00116dd0       ?GetDebugInfo@idAI@@UAEXP6AXPBD00PAX@Z1@Z 20117dd0 f   AI_Debug.obj
 0001:001177f0       ?DrawRoute@idAI@@QBEXXZ    201187f0 f   AI_Debug.obj
 0001:00117870       ?DrawTactical@idAI@@QAEXXZ 20118870 f   AI_Debug.obj
 0001:00118810       ?RegisterClassA@idAI@@SAXXZ 20119810 f   AI_events.obj
 0001:001188a0       ?CreateInstance@idAI@@SAPAVidClass@@XZ 201198a0 f   AI_events.obj
 0001:00118940       ?GetClassType@idAI@@SAAAVidTypeInfo@@XZ 20119940 f   AI_events.obj
 0001:00118950       ?GetType@idAI@@UBEPAVidTypeInfo@@XZ 20119950 f   AI_events.obj
 0001:00118960       ?LookAtEntity@idAI@@QAEXPAVidEntity@@M@Z 20119960 f   AI_events.obj
 0001:00118a30       ?Event_PostSpawn@idAI@@MAEXXZ 20119a30 f   AI_events.obj
 0001:00118ad0       ?Event_ClosestReachableEnemyOfEntity@idAI@@AAEXPAVidEntity@@@Z 20119ad0 f   AI_events.obj
 0001:00118c70       ?Event_GetReachableEntityPosition@idAI@@AAEXPAVidEntity@@@Z 20119c70 f   AI_events.obj
 0001:00118d50       ?Event_EntityInAttackCone@idAI@@AAEXPAVidEntity@@@Z 20119d50 f   AI_events.obj
 0001:00118fb0       ?Event_TestAnimMoveTowardEnemy@idAI@@AAEXPBD@Z 20119fb0 f   AI_events.obj
 0001:00119350       ?Event_TestAnimMove@idAI@@AAEXPBD@Z 2011a350 f   AI_events.obj
 0001:00119660       ?Event_TestMoveToPosition@idAI@@AAEXABVidVec3@@@Z 2011a660 f   AI_events.obj
 0001:001197b0       ?Event_TestMeleeAttack@idAI@@AAEXXZ 2011a7b0 f   AI_events.obj
 0001:001197c0       ?Event_TestAnimAttack@idAI@@AAEXPBD@Z 2011a7c0 f   AI_events.obj
 0001:001198c0       ?Event_ThrowMoveable@idAI@@AAEXXZ 2011a8c0 f   AI_events.obj
 0001:00119940       ?Event_ThrowAF@idAI@@AAEXXZ 2011a940 f   AI_events.obj
 0001:001199c0       ?Event_PredictEnemyPos@idAI@@AAEXM@Z 2011a9c0 f   AI_events.obj
 0001:00119ab0       ?Event_FindActorsInBounds@idAI@@AAEXABVidVec3@@0@Z 2011aab0 f   AI_events.obj
 0001:00119ba0       ?Event_Activate@idAI@@AAEXPAVidEntity@@@Z 2011aba0 f   AI_events.obj
 0001:00119bb0       ?Event_Touch@idAI@@AAEXPAVidEntity@@PAUtrace_t@@@Z 2011abb0 f   AI_events.obj
 0001:00119bc0       ?Event_LookAt@idAI@@AAEXPAVidEntity@@@Z 2011abc0 f   AI_events.obj
 0001:00119bf0       ?Event_SetAngles@idAI@@AAEXABVidAngles@@@Z 2011abf0 f   AI_events.obj
 0001:00119c90       ?Event_SetEnemy@idAI@@AAEXPAVidEntity@@@Z 2011ac90 f   AI_events.obj
 0001:00119cb0       ?Event_SetHealth@idAI@@AAEXM@Z 2011acb0 f   AI_events.obj
 0001:00119ce0       ?Event_SetTalkState@idAI@@AAEXH@Z 2011ace0 f   AI_events.obj
 0001:00119cf0       ?Event_SetLeader@idAI@@AAEXPAVidEntity@@@Z 2011acf0 f   AI_events.obj
 0001:00119d00       ?Event_SetScript@idAI@@AAEXPBD0@Z 2011ad00 f   AI_events.obj
 0001:00119d10       ?Event_SetMoveSpeed@idAI@@AAEXH@Z 2011ad10 f   AI_events.obj
 0001:00119d60       ?Event_SetPassivePrefix@idAI@@AAEXPBD@Z 2011ad60 f   AI_events.obj
 0001:00119d70       ?Event_GetAngles@idAI@@AAEXXZ 2011ad70 f   AI_events.obj
 0001:00119db0       ?Event_GetEnemy@idAI@@AAEXXZ 2011adb0 f   AI_events.obj
 0001:00119df0       ?Event_GetLeader@idAI@@AAEXXZ 2011adf0 f   AI_events.obj
 0001:00119e30       ?Event_Attack@idAI@@AAEXPBD0@Z 2011ae30 f   AI_events.obj
 0001:00119e90       ?Event_AttackMelee@idAI@@AAEXPBD@Z 2011ae90 f   AI_events.obj
 0001:00119f10       ?Event_DirectDamage@idAI@@AAEXPAVidEntity@@PBD@Z 2011af10 f   AI_events.obj
 0001:00119f30       ?Event_RadiusDamageFromJoint@idAI@@AAEXPBD0@Z 2011af30 f   AI_events.obj
 0001:00119f40       ?Event_CanBecomeSolid@idAI@@AAEXXZ 2011af40 f   AI_events.obj
 0001:00119f60       ?Event_BecomeSolid@idAI@@AAEXXZ 2011af60 f   AI_events.obj
 0001:00119f70       ?Event_BecomeNonSolid@idAI@@AAEXXZ 2011af70 f   AI_events.obj
 0001:00119f80       ?Event_BecomeRagdoll@idAI@@AAEXXZ 2011af80 f   AI_events.obj
 0001:00119f90       ?Event_StopRagdoll@idAI@@AAEXXZ 2011af90 f   AI_events.obj
 0001:00119fb0       ?Event_FaceEnemy@idAI@@AAEXXZ 2011afb0 f   AI_events.obj
 0001:00119fc0       ?Event_FaceEntity@idAI@@AAEXPAVidEntity@@@Z 2011afc0 f   AI_events.obj
 0001:00119fd0       ?Event_BecomePassive@idAI@@AAEXH@Z 2011afd0 f   AI_events.obj
 0001:0011a030       ?Event_BecomeAggressive@idAI@@AAEXXZ 2011b030 f   AI_events.obj
 0001:0011a080       ?Event_EnableDamage@idAI@@AAEXXZ 2011b080 f   AI_events.obj
 0001:0011a090       ?Event_EnableClip@idAI@@AAEXXZ 2011b090 f   AI_events.obj
 0001:0011a0c0       ?Event_EnableGravity@idAI@@AAEXXZ 2011b0c0 f   AI_events.obj
 0001:0011a0d0       ?Event_EnableAFPush@idAI@@AAEXXZ 2011b0d0 f   AI_events.obj
 0001:0011a0e0       ?Event_EnablePain@idAI@@AAEXXZ 2011b0e0 f   AI_events.obj
 0001:0011a0f0       ?Event_DisableDamage@idAI@@AAEXXZ 2011b0f0 f   AI_events.obj
 0001:0011a100       ?Event_DisableClip@idAI@@AAEXXZ 2011b100 f   AI_events.obj
 0001:0011a120       ?Event_DisableGravity@idAI@@AAEXXZ 2011b120 f   AI_events.obj
 0001:0011a130       ?Event_DisableAFPush@idAI@@AAEXXZ 2011b130 f   AI_events.obj
 0001:0011a140       ?Event_DisablePain@idAI@@AAEXXZ 2011b140 f   AI_events.obj
 0001:0011a150       ?Event_EnableTarget@idAI@@AAEXXZ 2011b150 f   AI_events.obj
 0001:0011a160       ?Event_DisableTarget@idAI@@AAEXXZ 2011b160 f   AI_events.obj
 0001:0011a170       ?Event_TakeDamage@idAI@@AAEXM@Z 2011b170 f   AI_events.obj
 0001:0011a1a0       ?Event_SetUndying@idAI@@AAEXM@Z 2011b1a0 f   AI_events.obj
 0001:0011a1f0       ?Event_EnableAutoBlink@idAI@@AAEXXZ 2011b1f0 f   AI_events.obj
 0001:0011a200       ?Event_DisableAutoBlink@idAI@@AAEXXZ 2011b200 f   AI_events.obj
 0001:0011a210       ?Event_LockEnemyOrigin@idAI@@AAEXXZ 2011b210 f   AI_events.obj
 0001:0011a220       ?Event_StopThinking@idAI@@AAEXXZ 2011b220 f   AI_events.obj
 0001:0011a240       ?Event_JumpFrame@idAI@@AAEXXZ 2011b240 f   AI_events.obj
 0001:0011a250       ?Event_RealKill@idAI@@AAEXXZ 2011b250 f   AI_events.obj
 0001:0011a2a0       ?Event_Kill@idAI@@AAEXXZ   2011b2a0 f   AI_events.obj
 0001:0011a2b0       ?Event_RemoveUpdateSpawner@idAI@@AAEXXZ 2011b2b0 f   AI_events.obj
 0001:0011a2f0       ?Event_AllowHiddenMovement@idAI@@AAEXH@Z 2011b2f0 f   AI_events.obj
 0001:0011a320       ?Event_CanReachPosition@idAI@@AAEXABVidVec3@@@Z 2011b320 f   AI_events.obj
 0001:0011a3c0       ?Event_CanReachEntity@idAI@@AAEXPAVidEntity@@@Z 2011b3c0 f   AI_events.obj
 0001:0011a4e0       ?Event_CanReachEnemy@idAI@@AAEXXZ 2011b4e0 f   AI_events.obj
 0001:0011a630       ?Event_IsSpeaking@idAI@@AAEXXZ 2011b630 f   AI_events.obj
 0001:0011a670       ?Event_IsTethered@idAI@@AAEXXZ 2011b670 f   AI_events.obj
 0001:0011a6a0       ?Event_IsWithinTether@idAI@@AAEXXZ 2011b6a0 f   AI_events.obj
 0001:0011a6c0       ?Event_IsMoving@idAI@@AAEXXZ 2011b6c0 f   AI_events.obj
 0001:0011a6f0       ?Event_Speak@idAI@@AAEXPBD@Z 2011b6f0 f   AI_events.obj
 0001:0011a710       ?Event_SpeakRandom@idAI@@AAEXPBD@Z 2011b710 f   AI_events.obj
 0001:0011a730       ?Event_ScriptedMove@idAI@@AAEXPAVidEntity@@M_N@Z 2011b730 f   AI_events.obj
 0001:0011a750       ?Event_ScriptedFace@idAI@@AAEXPAVidEntity@@_N@Z 2011b750 f   AI_events.obj
 0001:0011a760       ?Event_ScriptedAnim@idAI@@AAEXPBDH_N1@Z 2011b760 f   AI_events.obj
 0001:0011a770       ?Event_ScriptedPlaybackMove@idAI@@AAEXPBDHH@Z 2011b770 f   AI_events.obj
 0001:0011a780       ?Event_ScriptedPlaybackAim@idAI@@AAEXPBDHH@Z 2011b780 f   AI_events.obj
 0001:0011a790       ?Event_ScriptedAction@idAI@@AAEXPAVidEntity@@_N@Z 2011b790 f   AI_events.obj
 0001:0011a7a0       ?Event_ScriptedDone@idAI@@AAEXXZ 2011b7a0 f   AI_events.obj
 0001:0011a7d0       ?Event_ScriptedStop@idAI@@AAEXXZ 2011b7d0 f   AI_events.obj
 0001:0011a7e0       ?Event_ScriptedJumpDown@idAI@@AAEXM@Z 2011b7e0 f   AI_events.obj
 0001:0011a830       ?Event_FindEnemy@idAI@@AAEXM@Z 2011b830 f   AI_events.obj
 0001:0011a860       ?Event_SetKey@idAI@@AAEXPBD0@Z 2011b860 f   AI_events.obj
 0001:0011a890       ?Register_idAI@@YAXXZ      2011b890 f   AI_events.obj
 0001:0011a8a0       ??0rvAIManager@@QAE@XZ     2011b8a0 f   AI_Manager.obj
 0001:0011a990       ?RunFrame@rvAIManager@@QAEXXZ 2011b990 f   AI_Manager.obj
 0001:0011ae50       ?Save@rvAIManager@@QBEXPAVidSaveGame@@@Z 2011be50 f   AI_Manager.obj
 0001:0011af60       ?Restore@rvAIManager@@QAEXPAVidRestoreGame@@@Z 2011bf60 f   AI_Manager.obj
 0001:0011b1c0       ?Clear@rvAIManager@@QAEXXZ 2011c1c0 f   AI_Manager.obj
 0001:0011b2c0       ?IsActive@rvAIManager@@QAE_NXZ 2011c2c0 f   AI_Manager.obj
 0001:0011b2d0       ?IsSimpleThink@rvAIManager@@QAE_NPAVidAI@@@Z 2011c2d0 f   AI_Manager.obj
 0001:0011b310       ?UnMarkAllReachBlocked@rvAIManager@@QAEXXZ 2011c310 f   AI_Manager.obj
 0001:0011b350       ?ReMarkAllReachBlocked@rvAIManager@@QAEXXZ 2011c350 f   AI_Manager.obj
 0001:0011b390       ?MarkReachBlocked@rvAIManager@@QAEXPAVidAAS@@PAVidReachability@@ABV?$idList@PAVidEntity@@@@@Z 2011c390 f   AI_Manager.obj
 0001:0011bc30       ?ValidateDestination@rvAIManager@@QBE_NPAVidAI@@ABVidVec3@@_NPAVidActor@@@Z 2011cc30 f   AI_Manager.obj
 0001:0011bf50       ?RegisterHelper@rvAIManager@@QAEXPAVrvAIHelper@@@Z 2011cf50 f   AI_Manager.obj
 0001:0011bf80       ?UnregisterHelper@rvAIManager@@QAEXPAVrvAIHelper@@@Z 2011cf80 f   AI_Manager.obj
 0001:0011bfa0       ?FindClosestHelper@rvAIManager@@QAEPAVrvAIHelper@@ABVidVec3@@@Z 2011cfa0 f   AI_Manager.obj
 0001:0011c0b0       ?AddTeammate@rvAIManager@@QAEXPAVidActor@@@Z 2011d0b0 f   AI_Manager.obj
 0001:0011c0e0       ?RemoveTeammate@rvAIManager@@QAEXPAVidActor@@@Z 2011d0e0 f   AI_Manager.obj
 0001:0011c100       ?GetAllyTeam@rvAIManager@@QAEPAVidActor@@W4aiTeam_t@@@Z 2011d100 f   AI_Manager.obj
 0001:0011c140       ?GetEnemyTeam@rvAIManager@@QAEPAVidActor@@W4aiTeam_t@@@Z 2011d140 f   AI_Manager.obj
 0001:0011c180       ?NearestTeammateToPoint@rvAIManager@@QAEPAVidActor@@PAV2@VidVec3@@_NM22@Z 2011d180 f   AI_Manager.obj
 0001:0011c2e0       ?NearestTeammateEnemy@rvAIManager@@QAEPAVidEntity@@PAVidActor@@M_N1PAPAV3@@Z 2011d2e0 f   AI_Manager.obj
 0001:0011c4d0       ?LocalTeamHasEnemies@rvAIManager@@QAE_NPAVidAI@@MM_N@Z 2011d4d0 f   AI_Manager.obj
 0001:0011c740       ?ActorIsBehindActor@rvAIManager@@QAE_NPAVidActor@@0@Z 2011d740 f   AI_Manager.obj
 0001:0011c870       ?ReactToPlayerAttack@rvAIManager@@QAEXPAVidPlayer@@ABVidVec3@@1@Z 2011d870 f   AI_Manager.obj
 0001:0011c9e0       ?UpdateHelpers@rvAIManager@@IAEXXZ 2011d9e0 f   AI_Manager.obj
 0001:0011ca60       ?DebugDraw@rvAIManager@@IAEXXZ 2011da60 f   AI_Manager.obj
 0001:0011caf0       ?DebugDrawHelpers@rvAIManager@@IAEXXZ 2011daf0 f   AI_Manager.obj
 0001:0011cb40       ??0aiBlocked_s@@QAE@XZ     2011db40 f i AI_Manager.obj
 0001:0011cbb0       ??1?$idList@UaiBlocked_s@@@@QAE@XZ 2011dbb0 f i AI_Manager.obj
 0001:0011cc10       ??1aiBlocked_s@@QAE@XZ     2011dc10 f i AI_Manager.obj
 0001:0011ccd0       ??1rvAIManager@@QAE@XZ     2011dcd0 f i AI_Manager.obj
 0001:0011cde0       ??4aiBlocked_s@@QAEAAU0@ABU0@@Z 2011dde0 f i AI_Manager.obj
 0001:0011cff0       ?RegisterClassA@rvAIMedic@@SAXXZ 2011dff0 f   AI_Medic.obj
 0001:0011d080       ?CreateInstance@rvAIMedic@@SAPAVidClass@@XZ 2011e080 f   AI_Medic.obj
 0001:0011d120       ?GetClassType@rvAIMedic@@SAAAVidTypeInfo@@XZ 2011e120 f   AI_Medic.obj
 0001:0011d130       ?GetType@rvAIMedic@@UBEPAVidTypeInfo@@XZ 2011e130 f   AI_Medic.obj
 0001:0011d140       ??0rvAIMedic@@QAE@XZ       2011e140 f   AI_Medic.obj
 0001:0011d1f0       ?InitSpawnArgsVariables@rvAIMedic@@QAEXXZ 2011e1f0 f   AI_Medic.obj
 0001:0011d340       ?Spawn@rvAIMedic@@QAEXXZ   2011e340 f   AI_Medic.obj
 0001:0011d440       ?Think@rvAIMedic@@UAEXXZ   2011e440 f   AI_Medic.obj
 0001:0011d4c0       ?Save@rvAIMedic@@QBEXPAVidSaveGame@@@Z 2011e4c0 f   AI_Medic.obj
 0001:0011d590       ?Restore@rvAIMedic@@QAEXPAVidRestoreGame@@@Z 2011e590 f   AI_Medic.obj
 0001:0011d660       ?Show@rvAIMedic@@UAEXXZ    2011e660 f   AI_Medic.obj
 0001:0011d6a0       ?TalkTo@rvAIMedic@@UAEXPAVidActor@@@Z 2011e6a0 f   AI_Medic.obj
 0001:0011d7a0       ?GetDebugInfo@rvAIMedic@@UAEXP6AXPBD00PAX@Z1@Z 2011e7a0 f   AI_Medic.obj
 0001:0011db50       ?IsTethered@rvAIMedic@@UBE_NXZ 2011eb50 f   AI_Medic.obj
 0001:0011dba0       ?OnStateThreadClear@rvAIMedic@@UAEXPBDH@Z 2011eba0 f   AI_Medic.obj
 0001:0011dc50       ?Pain@rvAIMedic@@UAE_NPAVidEntity@@0HABVidVec3@@H@Z 2011ec50 f   AI_Medic.obj
 0001:0011dcd0       ?OnStartMoving@rvAIMedic@@MAEXXZ 2011ecd0 f   AI_Medic.obj
 0001:0011dd80       ?SetHealValues@rvAIMedic@@AAEXPAVidPlayer@@@Z 2011ed80 f   AI_Medic.obj
 0001:0011ddd0       ?TakePatient@rvAIMedic@@AAEXPAVidPlayer@@@Z 2011edd0 f   AI_Medic.obj
 0001:0011e000       ?DropPatient@rvAIMedic@@AAEXXZ 2011f000 f   AI_Medic.obj
 0001:0011e130       ?CheckTakePatient@rvAIMedic@@AAE_NPAVidPlayer@@@Z 2011f130 f   AI_Medic.obj
 0001:0011e350       ?SituationAllowsPatient@rvAIMedic@@AAE_NXZ 2011f350 f   AI_Medic.obj
 0001:0011e5d0       ?AvailableToTakePatient@rvAIMedic@@AAE_NXZ 2011f5d0 f   AI_Medic.obj
 0001:0011e620       ?State_Medic@rvAIMedic@@AAE?AW4stateResult_t@@ABUstateParms_t@@@Z 2011f620 f   AI_Medic.obj
 0001:0011ef10       ?Event_EnableHeal@rvAIMedic@@AAEXXZ 2011ff10 f   AI_Medic.obj
 0001:0011ef20       ?Event_DisableHeal@rvAIMedic@@AAEXXZ 2011ff20 f   AI_Medic.obj
 0001:0011ef30       ?Event_EnableMovement@rvAIMedic@@AAEXXZ 2011ff30 f   AI_Medic.obj
 0001:0011ef40       ?Event_DisableMovement@rvAIMedic@@AAEXXZ 2011ff40 f   AI_Medic.obj
 0001:0011ef50       ?Register_rvAIMedic@@YAXXZ 2011ff50 f   AI_Medic.obj
 0001:0011ef60       ??1rvAITactical@@UAE@XZ    2011ff60 f i AI_Medic.obj
 0001:0011efc0       ??_GrvAIMedic@@UAEPAXI@Z   2011ffc0 f i AI_Medic.obj
 0001:0011efc0       ??_ErvAIMedic@@UAEPAXI@Z   2011ffc0 f i AI_Medic.obj
 0001:0011f050       ??0idMoveState@@QAE@XZ     20120050 f   AI_Move.obj
 0001:0011f260       ?Save@idMoveState@@QBEXPAVidSaveGame@@@Z 20120260 f   AI_Move.obj
 0001:0011f660       ?Restore@idMoveState@@QAEXPAVidRestoreGame@@@Z 20120660 f   AI_Move.obj
 0001:0011f9c0       ?Spawn@idMoveState@@QAEXAAVidDict@@@Z 201209c0 f   AI_Move.obj
 0001:0011fe60       ?AI_EntityMoved@@YAXPAVidEntity@@@Z 20120e60 f   AI_Move.obj
 0001:0011fe80       ?AI_MoveInitialize@@YAXXZ  20120e80 f   AI_Move.obj
 0001:0011fea0       ?SetAAS@idAI@@QAEXXZ       20120ea0 f   AI_Move.obj
 0001:00120000       ?AdjustFlyingAngles@idAI@@QAEXXZ 20121000 f   AI_Move.obj
 0001:00120240       ?AddFlyBob@idAI@@QAEXAAVidVec3@@@Z 20121240 f   AI_Move.obj
 0001:001203f0       ?AdjustFlyHeight@idAI@@QAEXAAVidVec3@@ABV2@@Z 201213f0 f   AI_Move.obj
 0001:001207f0       ?FlySeekGoal@idAI@@QAEXAAVidVec3@@0@Z 201217f0 f   AI_Move.obj
 0001:00120880       ?AdjustFlySpeed@idAI@@QAEXAAVidVec3@@@Z 20121880 f   AI_Move.obj
 0001:00120ab0       ?FlyTurn@idAI@@QAEXXZ      20121ab0 f   AI_Move.obj
 0001:00120be0       ?Move@idAI@@QAEXXZ         20121be0 f   AI_Move.obj
 0001:00120d10       ?DeadMove@idAI@@UAEXXZ     20121d10 f   AI_Move.obj
 0001:00120d90       ?AnimMove@idAI@@QAEXXZ     20121d90 f   AI_Move.obj
 0001:001215b0       ?SlideMove@idAI@@QAEXXZ    201225b0 f   AI_Move.obj
 0001:00121da0       ?PlaybackMove@idAI@@QAEXXZ 20122da0 f   AI_Move.obj
 0001:00122100       ?FlyMove@idAI@@QAEXXZ      20123100 f   AI_Move.obj
 0001:001228c0       ?StaticMove@idAI@@QAEXXZ   201238c0 f   AI_Move.obj
 0001:00122b60       ?RVMasterMove@idAI@@QAEXXZ 20123b60 f   AI_Move.obj
 0001:00123980       ?SetMoveType@idAI@@QAEXW4moveType_t@@@Z 20124980 f   AI_Move.obj
 0001:00123a30       ?CustomMove@idAI@@UAEXXZ   20124a30 f   AI_Move.obj
 0001:00123a40       ?KickObstacles@idAI@@QAEXABVidVec3@@MPAVidEntity@@@Z 20124a40 f   AI_Move.obj
 0001:00123f80       ?ApplyImpulse@idAI@@UAEXPAVidEntity@@HABVidVec3@@1_N@Z 20124f80 f   AI_Move.obj
 0001:00123fb0       ?GetAnimMoveDelta@idAI@@QAEXABVidMat3@@0AAVidVec3@@@Z 20124fb0 f   AI_Move.obj
 0001:00124260       ?CheckObstacleAvoidance@idAI@@QAEXABVidVec3@@AAV2@PAVidReachability@@@Z 20125260 f   AI_Move.obj
 0001:001246b0       ?GetMovePos@idAI@@QAE_NAAVidVec3@@PAPAVidReachability@@@Z 201256b0 f   AI_Move.obj
 0001:00124cf0       ?TravelDistance@idAI@@QBEMABVidVec3@@@Z 20125cf0 f   AI_Move.obj
 0001:00124d20       ?TravelDistance@idAI@@QBEMABVidVec3@@0@Z 20125d20 f   AI_Move.obj
 0001:001250a0       ?TravelDistance@idAI@@QBEMPAVidEntity@@@Z 201260a0 f   AI_Move.obj
 0001:001250e0       ?TravelDistance@idAI@@QBEMPAVidEntity@@0@Z 201260e0 f   AI_Move.obj
 0001:00125120       ?PointReachableAreaNum@idAI@@QBEHABVidVec3@@M@Z 20126120 f   AI_Move.obj
 0001:001251e0       ?PathToGoal@idAI@@QBE_NAAUaasPath_s@@HABVidVec3@@H1@Z 201261e0 f   AI_Move.obj
 0001:00125320       ?BlockedFailSafe@idAI@@QAEXXZ 20126320 f   AI_Move.obj
 0001:00125330       ?Turn@idAI@@QAEXXZ         20126330 f   AI_Move.obj
 0001:001257e0       ?TurnToward@idAI@@QAE_NM@Z 201267e0 f   AI_Move.obj
 0001:00125870       ?TurnToward@idAI@@QAE_NABVidVec3@@@Z 20126870 f   AI_Move.obj
 0001:00125a10       ?TurnTowardLeader@idAI@@QAE_N_N@Z 20126a10 f   AI_Move.obj
 0001:00126080       ?FacingIdeal@idAI@@QAE_NXZ 20127080 f   AI_Move.obj
 0001:00126160       ?DirectionalTurnToward@idAI@@QAE_NABVidVec3@@@Z 20127160 f   AI_Move.obj
 0001:00126580       ?FaceEnemy@idAI@@QAE_NXZ   20127580 f   AI_Move.obj
 0001:00126660       ?FaceEntity@idAI@@QAE_NPAVidEntity@@@Z 20127660 f   AI_Move.obj
 0001:00126730       ?SlideToPosition@idAI@@QAE_NABVidVec3@@M@Z 20127730 f   AI_Move.obj
 0001:001268d0       ?WanderAround@idAI@@QAE_NXZ 201278d0 f   AI_Move.obj
 0001:00126a20       ?StepDirection@idAI@@QAE_NM@Z 20127a20 f   AI_Move.obj
 0001:00126de0       ?NewWanderDir@idAI@@QAE_NABVidVec3@@@Z 20127de0 f   AI_Move.obj
 0001:00127220       ?TestAnimMove@idAI@@QAE_NHPAVidEntity@@PAVidVec3@@@Z 20128220 f   AI_Move.obj
 0001:00127540       ?UpdatePlayback@idAI@@QAEXAAVidVec3@@00AAVidMat3@@@Z 20128540 f   AI_Move.obj
 0001:00127730       ?ScriptedPlaybackMove@idAI@@QAEXPBDHH@Z 20128730 f   AI_Move.obj
 0001:001277d0       ?StartMove@idAI@@IAE_NW4aiMoveCommand_t@@ABVidVec3@@HPAVidEntity@@PAUaasFeature_s@@M@Z 201287d0 f   AI_Move.obj
 0001:00127930       ?StopMove@idAI@@IAEXW4moveStatus_t@@@Z 20128930 f   AI_Move.obj
 0001:00127a90       ?MoveTo@idAI@@IAE_NABVidVec3@@M@Z 20128a90 f   AI_Move.obj
 0001:00127b80       ?MoveToAttack@idAI@@IAE_NPAVidEntity@@H@Z 20128b80 f   AI_Move.obj
 0001:00127ec0       ?MoveToTether@idAI@@IAE_NPAVrvAITether@@@Z 20128ec0 f   AI_Move.obj
 0001:00127f80       ?MoveToEnemy@idAI@@MAE_NXZ 20128f80 f   AI_Move.obj
 0001:001282f0       ?MoveToEntity@idAI@@IAE_NPAVidEntity@@M@Z 201292f0 f   AI_Move.obj
 0001:00128570       ?MoveToCover@idAI@@IAE_NMMW4aiTactical_t@@@Z 20129570 f   AI_Move.obj
 0001:001286f0       ?MoveToHide@idAI@@IAE_NXZ  201296f0 f   AI_Move.obj
 0001:00128910       ?MoveOutOfRange@idAI@@IAE_NPAVidEntity@@MM@Z 20129910 f   AI_Move.obj
 0001:00128ac0       ?AnimTurn@idAI@@IAEXM_N@Z  20129ac0 f   AI_Move.obj
 0001:00128c30       ?ReachedPos@idAI@@IBE_NABVidVec3@@W4aiMoveCommand_t@@M@Z 20129c30 f   AI_Move.obj
 0001:00128fe0       ?Event_SaveMove@idAI@@AAEXXZ 20129fe0 f   AI_Move.obj
 0001:00129000       ?Event_RestoreMove@idAI@@AAEXXZ 2012a000 f   AI_Move.obj
 0001:00129220       ?ValidForBounds@@YA_NPBVidAASSettings@@ABVidBounds@@@Z 2012a220 f   AI_Move.obj
 0001:00129260       ?TestTeammateCollisions@@YAXPAVidAI@@@Z 2012a260 f   AI_Move.obj
 0001:001296f0       ?Seek@@YA?AVidVec3@@AAV1@ABV1@1M@Z 2012a6f0 f   AI_Move.obj
 0001:00129790       ?LineIntersection2D@@YA_NABVidVec3@@000AAV1@@Z 2012a790 f   AI_Move.obj
 0001:001298b0       ??0rvObstacle@@QAE@XZ      2012a8b0 f i AI_Move.obj
 0001:00129930       ??1rvObstacle@@QAE@XZ      2012a930 f i AI_Move.obj
 0001:00129a10       ??4idMoveState@@QAEAAV0@AAV0@@Z 2012aa10 f i AI_Move.obj
 0001:00129de0       ?AddMarkers@rvObstacle@@QAEXXZ 2012ade0 f i AI_Move.obj
 0001:0012a0a0       ?DistToLineSeg@idVec3@@QBEMABV1@0AAM@Z 2012b0a0 f i AI_Move.obj
 0001:0012a340       ?DrawDebugGraphics@rvObstacleFinder@@QAEXXZ 2012b340 f i AI_Move.obj
 0001:0012a3b0       ?DrawDebugGraphics@rvWindingBox@@QBE_NXZ 2012b3b0 f i AI_Move.obj
 0001:0012a480       ?DrawVisitTree@rvPathFinder@@QAEXXZ 2012b480 f i AI_Move.obj
 0001:0012a560       ?FindPath@rvPathFinder@@QAE_NPAVidAAS@@AAVidMoveState@@M_NPAVidEntity@@3@Z 2012b560 f i AI_Move.obj
 0001:0012a860       ?FromBounds@rvWindingBox@@QAEXABVidBounds@@@Z 2012b860 f i AI_Move.obj
 0001:0012a8b0       ?GetSeekPosition@rvPathFinder@@QAEABVidVec3@@PAVidReachability@@H@Z 2012b8b0 f i AI_Move.obj
 0001:0012a8e0       ?Initialize@rvObstacle@@QAEXPAVidEntity@@@Z 2012b8e0 f i AI_Move.obj
 0001:0012aaf0       ?Initialize@rvObstacleFinder@@QAEXXZ 2012baf0 f i AI_Move.obj
 0001:0012abf0       ?Initialize@rvPathFinder@@QAEXXZ 2012bbf0 f i AI_Move.obj
 0001:0012ac80       ?LineIntersection@rvWindingBox@@QBE_NABVidVec3@@0AAV2@AAH2@Z 2012bc80 f i AI_Move.obj
 0001:0012ad40       ?MarkEntityForUpdate@rvObstacleFinder@@QAEXPAVidEntity@@@Z 2012bd40 f i AI_Move.obj
 0001:0012af70       ?Open@rvPathFinder@@QAEXPAUvisitNode@1@@Z 2012bf70 f i AI_Move.obj
 0001:0012b000       ?PointInside@rvWindingBox@@QBE_NABVidVec3@@@Z 2012c000 f i AI_Move.obj
 0001:0012b0a0       ?PointInsideArea@rvObstacle@@QAE_NABVidVec3@@PAUaasArea_s@@@Z 2012c0a0 f i AI_Move.obj
 0001:0012b160       ?RayTrace@rvObstacleFinder@@QAE_NMPBUaasArea_s@@ABVidVec3@@1HPBVidEntity@@22@Z 2012c160 f i AI_Move.obj
 0001:0012b6d0       ?RecordContact@rvObstacleFinder@@QAEXMABVidVec3@@PAUrvObstacle@@0HH@Z 2012c6d0 f i AI_Move.obj
 0001:0012b7c0       ?RemoveMarkers@rvObstacle@@QAEXXZ 2012c7c0 f i AI_Move.obj
 0001:0012b890       ?SearchAreas_r@rvObstacle@@QAEXH@Z 2012c890 f i AI_Move.obj
 0001:0012bb60       ?Success@rvPathFinder@@QAE_NPAUvisitNode@1@@Z 2012cb60 f i AI_Move.obj
 0001:0012c160       ?TravelCost@rvPathFinder@@QAEMPAVidReachability@@HPAUvisitNode@1@@Z 2012d160 f i AI_Move.obj
 0001:0012c330       ?Update@rvObstacle@@QAE_NXZ 2012d330 f i AI_Move.obj
 0001:0012d0a0       ?UpdateObstacles@rvObstacleFinder@@QAEXXZ 2012e0a0 f i AI_Move.obj
 0001:0012d140       ?UpdateOpenList@rvPathFinder@@QAEXXZ 2012e140 f i AI_Move.obj
 0001:0012d1c0       ?Visit@rvPathFinder@@QAEXPAVidReachability@@HPAUvisitNode@1@@Z 2012e1c0 f i AI_Move.obj
 0001:0012d420       ?VisitArea@rvPathFinder@@QAEXHPAUvisitNode@1@@Z 2012e420 f i AI_Move.obj
 0001:0012d490       ?VisitReach@rvPathFinder@@QAEXPAVidReachability@@PAUvisitNode@1@@Z 2012e490 f i AI_Move.obj
 0001:0012d640       ?WasVisited@rvPathFinder@@QAEPAUvisitNode@1@H@Z 2012e640 f i AI_Move.obj
 0001:0012d6b0       ?WasVisited@rvPathFinder@@QAEPAUvisitNode@1@PAVidReachability@@@Z 2012e6b0 f i AI_Move.obj
 0001:0012d720       ?alloc@?$rvIndexPool@UrvObstacle@@$0DC@$0BAAA@@@QAEPAUrvObstacle@@H@Z 2012e720 f i AI_Move.obj
 0001:0012d760       ?clear@?$rvIndexPool@UrvObstacle@@$0DC@$0BAAA@@@QAEXXZ 2012e760 f i AI_Move.obj
 0001:0012d7b0       ?visitSort@rvPathFinder@@SAHPBX0@Z 2012e7b0 f i AI_Move.obj
 0001:0012d800       ?FindPathAroundObstacles@idAI@@SA_NPBVidPhysics@@PBVidAAS@@PBVidEntity@@ABVidVec3@@3AAUobstaclePath_s@@@Z 2012e800 f   AI_pathing.obj
 0001:0012df20       ?FreeObstacleAvoidanceNodes@idAI@@SAXXZ 2012ef20 f   AI_pathing.obj
 0001:0012df30       ?PredictPath@idAI@@SA_NPBVidEntity@@PBVidAAS@@ABVidVec3@@2HHHAAUpredictedPath_s@@0@Z 2012ef30 f   AI_pathing.obj
 0001:0012e9a0       ?TestTrajectory@idAI@@SA_NABVidVec3@@0MMMMPBVidClipModel@@HPBVidEntity@@2H@Z 2012f9a0 f   AI_pathing.obj
 0001:0012ee30       ?PredictTrajectory@idAI@@SA_NABVidVec3@@0M0PBVidClipModel@@HMPBVidEntity@@2HAAV2@@Z 2012fe30 f   AI_pathing.obj
 0001:0012f650       ?Init@pathNode_s@@QAEXXZ   20130650 f   AI_pathing.obj
 0001:0012f6b0       ?LineIntersectsPath@@YA_NABVidVec2@@0PBUpathNode_s@@@Z 201306b0 f   AI_pathing.obj
 0001:0012f7f0       ?PointInsideObstacle@@YAHPBUobstacle_s@@HABVidVec2@@_N@Z 201307f0 f   AI_pathing.obj
 0001:0012f880       ?GetPointOutsideObstacles@@YAXPBUobstacle_s@@HAAVidVec2@@PAH2@Z 20130880 f   AI_pathing.obj
 0001:0012fe00       ?GetFirstBlockingObstacle@@YA_NPBUobstacle_s@@HHABVidVec2@@1AAMAAH3@Z 20130e00 f   AI_pathing.obj
 0001:0012ffd0       ?GetObstacles@@YAHPBVidActor@@PBVidPhysics@@PBVidAAS@@PBVidEntity@@HABVidVec3@@4PAUobstacle_s@@HAAVidBounds@@@Z 20130fd0 f   AI_pathing.obj
 0001:001310c0       ?FreePathTree_r@@YAXPAUpathNode_s@@@Z 201320c0 f   AI_pathing.obj
 0001:00131100       ?DrawPathTree@@YAXPBUpathNode_s@@M@Z 20132100 f   AI_pathing.obj
 0001:001311a0       ?GetPathNodeDelta@@YA_NPAUpathNode_s@@PBUobstacle_s@@ABVidVec2@@_N@Z 201321a0 f   AI_pathing.obj
 0001:00131400       ?BuildPathTree@@YAPAUpathNode_s@@PBUobstacle_s@@HABVidBounds@@ABVidVec2@@2AAUobstaclePath_s@@@Z 20132400 f   AI_pathing.obj
 0001:001319e0       ?PrunePathTree@@YAXPAUpathNode_s@@ABVidVec2@@@Z 201329e0 f   AI_pathing.obj
 0001:00131ab0       ?OptimizePath@@YAHPBUpathNode_s@@0PBUobstacle_s@@HQAVidVec2@@@Z 20132ab0 f   AI_pathing.obj
 0001:00131d70       ?PathLength@@YAMQAVidVec2@@HABV1@@Z 20132d70 f   AI_pathing.obj
 0001:00131e50       ?FindOptimalPath@@YA_NPBVidActor@@PBUpathNode_s@@PBUobstacle_s@@HMABVidVec3@@AAV4@@Z 20132e50 f   AI_pathing.obj
 0001:001320c0       ?PathTrace@@YA_NPBVidEntity@@PBVidAAS@@ABVidVec3@@2HAAUpathTrace_s@@AAUpredictedPath_s@@0@Z 201330c0 f   AI_pathing.obj
 0001:00132630       ?HeightForTrajectory@@YAMABVidVec3@@MM@Z 20133630 f   AI_pathing.obj
 0001:00132670       ??0?$idQueueTemplate@UpathNode_s@@$0DA@@@QAE@XZ 20133670 f i AI_pathing.obj
 0001:00132680       ??1?$idBlockAlloc@UpathNode_s@@$0IA@$0BN@@@QAE@XZ 20133680 f i AI_pathing.obj
 0001:00132690       ??4idBox@@QAEAAV0@ABV0@@Z  20133690 f i AI_pathing.obj
 0001:00132700       ?Add@?$idQueueTemplate@UpathNode_s@@$0DA@@@QAEXPAUpathNode_s@@@Z 20133700 f i AI_pathing.obj
 0001:00132730       ?Alloc@?$idBlockAlloc@UpathNode_s@@$0IA@$0BN@@@QAEPAUpathNode_s@@XZ 20133730 f i AI_pathing.obj
 0001:001327c0       ?Get@?$idQueueTemplate@UpathNode_s@@$0DA@@@QAEPAUpathNode_s@@XZ 201337c0 f i AI_pathing.obj
 0001:001327e0       ?Shutdown@?$idBlockAlloc@UpathNode_s@@$0IA@$0BN@@@QAEXXZ 201337e0 f i AI_pathing.obj
 0001:00132850       ?UpdateRunStatus@idAI@@UAE_NXZ 20133850 f   AI_States.obj
 0001:00132bb0       ?UpdateTactical@idAI@@QAE_NH@Z 20133bb0 f   AI_States.obj
 0001:00132ef0       ?UpdateTactical_r@idAI@@QAE_NXZ 20133ef0 f   AI_States.obj
 0001:00133390       ?FilterTactical@idAI@@UAEHH@Z 20134390 f   AI_States.obj
 0001:00133770       ?WakeUpTargets@idAI@@QAEXXZ 20134770 f   AI_States.obj
 0001:00133870       ?CheckTactical@idAI@@UAE?AW4aiCTResult_t@@W4aiTactical_t@@@Z 20134870 f   AI_States.obj
 0001:00133e20       ?State_Wait_Activated@idAI@@IAE?AW4stateResult_t@@ABUstateParms_t@@@Z 20134e20 f   AI_States.obj
 0001:00133e40       ?State_Wait_ScriptedDone@idAI@@IAE?AW4stateResult_t@@ABUstateParms_t@@@Z 20134e40 f   AI_States.obj
 0001:00133e60       ?State_Wait_Action@idAI@@IAE?AW4stateResult_t@@ABUstateParms_t@@@Z 20134e60 f   AI_States.obj
 0001:00133ea0       ?State_Wait_ActionNoPain@idAI@@IAE?AW4stateResult_t@@ABUstateParms_t@@@Z 20134ea0 f   AI_States.obj
 0001:00133ec0       ?State_WakeUp@idAI@@IAE?AW4stateResult_t@@ABUstateParms_t@@@Z 20134ec0 f   AI_States.obj
 0001:00133ff0       ?State_TriggerAnim@idAI@@IAE?AW4stateResult_t@@ABUstateParms_t@@@Z 20134ff0 f   AI_States.obj
 0001:00134070       ?State_Wander@idAI@@IAE?AW4stateResult_t@@ABUstateParms_t@@@Z 20135070 f   AI_States.obj
 0001:001340e0       ?State_Killed@idAI@@IAE?AW4stateResult_t@@ABUstateParms_t@@@Z 201350e0 f   AI_States.obj
 0001:001341b0       ?State_Dead@idAI@@IAE?AW4stateResult_t@@ABUstateParms_t@@@Z 201351b0 f   AI_States.obj
 0001:00134330       ?State_LightningDeath@idAI@@IAE?AW4stateResult_t@@ABUstateParms_t@@@Z 20135330 f   AI_States.obj
 0001:00134470       ?State_Burn@idAI@@IAE?AW4stateResult_t@@ABUstateParms_t@@@Z 20135470 f   AI_States.obj
 0001:00134610       ?State_Remove@idAI@@IAE?AW4stateResult_t@@ABUstateParms_t@@@Z 20135610 f   AI_States.obj
 0001:00134630       ?State_Passive@idAI@@IAE?AW4stateResult_t@@ABUstateParms_t@@@Z 20135630 f   AI_States.obj
 0001:00134780       ?State_Combat@idAI@@IAE?AW4stateResult_t@@ABUstateParms_t@@@Z 20135780 f   AI_States.obj
 0001:00134870       ?State_CombatCover@idAI@@IAE?AW4stateResult_t@@ABUstateParms_t@@@Z 20135870 f   AI_States.obj
 0001:00134ab0       ?State_CombatMelee@idAI@@IAE?AW4stateResult_t@@ABUstateParms_t@@@Z 20135ab0 f   AI_States.obj
 0001:00134bf0       ?State_CombatRanged@idAI@@IAE?AW4stateResult_t@@ABUstateParms_t@@@Z 20135bf0 f   AI_States.obj
 0001:00134f80       ?State_CombatTurret@idAI@@IAE?AW4stateResult_t@@ABUstateParms_t@@@Z 20135f80 f   AI_States.obj
 0001:00135220       ?State_CombatHide@idAI@@MAE?AW4stateResult_t@@ABUstateParms_t@@@Z 20136220 f   AI_States.obj
 0001:00135290       ?State_MovePlayerPush@idAI@@IAE?AW4stateResult_t@@ABUstateParms_t@@@Z 20136290 f   AI_States.obj
 0001:00135340       ?State_MoveTether@idAI@@IAE?AW4stateResult_t@@ABUstateParms_t@@@Z 20136340 f   AI_States.obj
 0001:001355f0       ?State_MoveFollow@idAI@@IAE?AW4stateResult_t@@ABUstateParms_t@@@Z 201365f0 f   AI_States.obj
 0001:00135860       ?State_ScriptedMove@idAI@@IAE?AW4stateResult_t@@ABUstateParms_t@@@Z 20136860 f   AI_States.obj
 0001:00135880       ?State_ScriptedFace@idAI@@IAE?AW4stateResult_t@@ABUstateParms_t@@@Z 20136880 f   AI_States.obj
 0001:001358a0       ?State_ScriptedStop@idAI@@IAE?AW4stateResult_t@@ABUstateParms_t@@@Z 201368a0 f   AI_States.obj
 0001:00135900       ?State_ScriptedPlaybackMove@idAI@@IAE?AW4stateResult_t@@ABUstateParms_t@@@Z 20136900 f   AI_States.obj
 0001:00135920       ?State_ScriptedPlaybackAim@idAI@@IAE?AW4stateResult_t@@ABUstateParms_t@@@Z 20136920 f   AI_States.obj
 0001:00135940       ?State_ScriptedJumpDown@idAI@@IAE?AW4stateResult_t@@ABUstateParms_t@@@Z 20136940 f   AI_States.obj
 0001:00135b70       ?State_Torso_Idle@idAI@@IAE?AW4stateResult_t@@ABUstateParms_t@@@Z 20136b70 f   AI_States.obj
 0001:00135c30       ?State_Torso_Sight@idAI@@IAE?AW4stateResult_t@@ABUstateParms_t@@@Z 20136c30 f   AI_States.obj
 0001:00135e10       ?State_Torso_CustomCycle@idAI@@IAE?AW4stateResult_t@@ABUstateParms_t@@@Z 20136e10 f   AI_States.obj
 0001:00135e20       ?State_Torso_Action@idAI@@IAE?AW4stateResult_t@@ABUstateParms_t@@@Z 20136e20 f   AI_States.obj
 0001:00135e80       ?State_Torso_FinishAction@idAI@@IAE?AW4stateResult_t@@ABUstateParms_t@@@Z 20136e80 f   AI_States.obj
 0001:00135ed0       ?State_Torso_Pain@idAI@@IAE?AW4stateResult_t@@ABUstateParms_t@@@Z 20136ed0 f   AI_States.obj
 0001:001360f0       ?State_Torso_ScriptedAnim@idAI@@IAE?AW4stateResult_t@@ABUstateParms_t@@@Z 201370f0 f   AI_States.obj
 0001:00136130       ?State_Torso_PassiveIdle@idAI@@IAE?AW4stateResult_t@@ABUstateParms_t@@@Z 20137130 f   AI_States.obj
 0001:001365c0       ?State_Torso_PassiveFidget@idAI@@IAE?AW4stateResult_t@@ABUstateParms_t@@@Z 201375c0 f   AI_States.obj
 0001:001366f0       ?State_Legs_Idle@idAI@@IAE?AW4stateResult_t@@ABUstateParms_t@@@Z 201376f0 f   AI_States.obj
 0001:001367d0       ?State_Legs_TurnLeft@idAI@@IAE?AW4stateResult_t@@ABUstateParms_t@@@Z 201377d0 f   AI_States.obj
 0001:00136820       ?State_Legs_TurnRight@idAI@@IAE?AW4stateResult_t@@ABUstateParms_t@@@Z 20137820 f   AI_States.obj
 0001:00136870       ?State_Legs_Move@idAI@@IAE?AW4stateResult_t@@ABUstateParms_t@@@Z 20137870 f   AI_States.obj
 0001:00136a70       ?State_Legs_MoveThink@idAI@@IAE?AW4stateResult_t@@ABUstateParms_t@@@Z 20137a70 f   AI_States.obj
 0001:00136b10       ?State_Legs_ChangeDirection@idAI@@IAE?AW4stateResult_t@@ABUstateParms_t@@@Z 20137b10 f   AI_States.obj
 0001:00136b50       ?State_Head_Idle@idAI@@IAE?AW4stateResult_t@@ABUstateParms_t@@@Z 20137b50 f   AI_States.obj
 0001:00136b58       ??_9idAI@@$BCJE@AE         20137b58 f i AI_States.obj
 0001:00136b58       ??_9rvMonsterTeleportDropper@@$BCJE@AE 20137b58 f i Monster_TeleportDropper.obj
 0001:00136b60       ?RegisterClassA@rvAITactical@@SAXXZ 20137b60 f   AI_Tactical.obj
 0001:00136bf0       ?CreateInstance@rvAITactical@@SAPAVidClass@@XZ 20137bf0 f   AI_Tactical.obj
 0001:00136c90       ?GetClassType@rvAITactical@@SAAAVidTypeInfo@@XZ 20137c90 f   AI_Tactical.obj
 0001:00136ca0       ?GetType@rvAITactical@@UBEPAVidTypeInfo@@XZ 20137ca0 f   AI_Tactical.obj
 0001:00136cb0       ??0rvAITactical@@QAE@XZ    20137cb0 f   AI_Tactical.obj
 0001:00136d30       ?InitSpawnArgsVariables@rvAITactical@@QAEXXZ 20137d30 f   AI_Tactical.obj
 0001:00136e50       ?Spawn@rvAITactical@@QAEXXZ 20137e50 f   AI_Tactical.obj
 0001:00136f70       ?Think@rvAITactical@@UAEXXZ 20137f70 f   AI_Tactical.obj
 0001:001372f0       ?Save@rvAITactical@@QBEXPAVidSaveGame@@@Z 201382f0 f   AI_Tactical.obj
 0001:001373a0       ?Restore@rvAITactical@@QAEXPAVidRestoreGame@@@Z 201383a0 f   AI_Tactical.obj
 0001:00137470       ?CheckActions@rvAITactical@@UAE_NXZ 20138470 f   AI_Tactical.obj
 0001:00137780       ?GetDebugInfo@rvAITactical@@UAEXP6AXPBD00PAX@Z1@Z 20138780 f   AI_Tactical.obj
 0001:001378a0       ?CanTurn@rvAITactical@@UBE_NXZ 201388a0 f   AI_Tactical.obj
 0001:001378f0       ?CanMove@rvAITactical@@UBE_NXZ 201388f0 f   AI_Tactical.obj
 0001:00137930       ?IsCrouching@rvAITactical@@UBE_NXZ 20138930 f   AI_Tactical.obj
 0001:00137960       ?GetIdleAnimName@rvAITactical@@MAEPBDXZ 20138960 f   AI_Tactical.obj
 0001:00137970       ?OnStopMoving@rvAITactical@@MAEXW4aiMoveCommand_t@@@Z 20138970 f   AI_Tactical.obj
 0001:00137ae0       ?OnPostureChange@rvAITactical@@MAEXXZ 20138ae0 f   AI_Tactical.obj
 0001:00137af0       ?OnSetKey@rvAITactical@@MAEXPBD0@Z 20138af0 f   AI_Tactical.obj
 0001:00137b00       ?CheckRelaxed@rvAITactical@@IBE_NXZ 20138b00 f   AI_Tactical.obj
 0001:00137b60       ?InitPostureInfo@rvAITactical@@IAEXXZ 20138b60 f   AI_Tactical.obj
 0001:00137c10       ?UpdatePosture@rvAITactical@@IAE_NXZ 20138c10 f   AI_Tactical.obj
 0001:001380e0       ?CalculateShots@rvAITactical@@IAEXPBD@Z 201390e0 f   AI_Tactical.obj
 0001:001381a0       ?UseAmmo@rvAITactical@@IAEXH@Z 201391a0 f   AI_Tactical.obj
 0001:001381e0       ?UpdateAnimPrefix@rvAITactical@@IAEXXZ 201391e0 f   AI_Tactical.obj
 0001:00138210       ?CheckAction_Reload@rvAITactical@@AAE_NPAVrvAIAction@@H@Z 20139210 f   AI_Tactical.obj
 0001:00138220       ?State_Torso_SetPosture@rvAITactical@@AAE?AW4stateResult_t@@ABUstateParms_t@@@Z 20139220 f   AI_Tactical.obj
 0001:00138450       ?State_Torso_RangedAttack@rvAITactical@@AAE?AW4stateResult_t@@ABUstateParms_t@@@Z 20139450 f   AI_Tactical.obj
 0001:00138620       ?State_Torso_MovingRangedAttack@rvAITactical@@AAE?AW4stateResult_t@@ABUstateParms_t@@@Z 20139620 f   AI_Tactical.obj
 0001:001386f0       ?State_Torso_Reload@rvAITactical@@AAE?AW4stateResult_t@@ABUstateParms_t@@@Z 201396f0 f   AI_Tactical.obj
 0001:00138790       ?State_Torso_Cover_LeanLeftAttack@rvAITactical@@AAE?AW4stateResult_t@@ABUstateParms_t@@@Z 20139790 f   AI_Tactical.obj
 0001:001387c0       ?State_Torso_Cover_LeanRightAttack@rvAITactical@@AAE?AW4stateResult_t@@ABUstateParms_t@@@Z 201397c0 f   AI_Tactical.obj
 0001:001387f0       ?State_Torso_Cover_LeanAttack@rvAITactical@@AAE?AW4stateResult_t@@ABUstateParms_t@@@Z 201397f0 f   AI_Tactical.obj
 0001:00138950       ?State_Torso_Cover_Peek@rvAITactical@@AAE?AW4stateResult_t@@ABUstateParms_t@@@Z 20139950 f   AI_Tactical.obj
 0001:001389c0       ?State_Frame_Peek@rvAITactical@@AAE?AW4stateResult_t@@ABUstateParms_t@@@Z 201399c0 f   AI_Tactical.obj
 0001:001389d0       ?Event_ForcePosture@rvAITactical@@AAEXH@Z 201399d0 f   AI_Tactical.obj
 0001:001389e0       ?Event_PostSpawn@rvAITactical@@EAEXXZ 201399e0 f   AI_Tactical.obj
 0001:00138aa0       ?Register_rvAITactical@@YAXXZ 20139aa0 f   AI_Tactical.obj
 0001:00138aa5       ??_9idAI@@$BCHM@AE         20139aa5 f i AI_events.obj
 0001:00138aa5       ??_9rvAITactical@@$BCHM@AE 20139aa5 f i AI_Tactical.obj
 0001:00138ab0       ??_GrvAITactical@@UAEPAXI@Z 20139ab0 f i AI_Tactical.obj
 0001:00138ab0       ??_ErvAITactical@@UAEPAXI@Z 20139ab0 f i AI_Tactical.obj
 0001:00138b20       ?RegisterClassA@rvAIHelper@@SAXXZ 20139b20 f   AI_Util.obj
 0001:00138bb0       ?CreateInstance@rvAIHelper@@SAPAVidClass@@XZ 20139bb0 f   AI_Util.obj
 0001:00138c50       ?GetClassType@rvAIHelper@@SAAAVidTypeInfo@@XZ 20139c50 f   AI_Util.obj
 0001:00138c60       ?GetType@rvAIHelper@@UBEPAVidTypeInfo@@XZ 20139c60 f   AI_Util.obj
 0001:00138c70       ??0rvAIHelper@@QAE@XZ      20139c70 f   AI_Util.obj
 0001:00138ca0       ?Spawn@rvAIHelper@@QAEXXZ  20139ca0 f   AI_Util.obj
 0001:00138cf0       ?IsCombat@rvAIHelper@@UBE_NXZ 20139cf0 f   AI_Util.obj
 0001:00138d00       ?ValidateDestination@rvAIHelper@@UBE_NPBVidAI@@ABVidVec3@@@Z 20139d00 f   AI_Util.obj
 0001:00138d10       ?GetDirection@rvAIHelper@@QBE?AVidVec3@@PBVidAI@@@Z 20139d10 f   AI_Util.obj
 0001:00138d80       ?OnActivate@rvAIHelper@@MAEX_N@Z 20139d80 f   AI_Util.obj
 0001:00138da0       ?Event_Activate@rvAIHelper@@AAEXPAVidEntity@@@Z 20139da0 f   AI_Util.obj
 0001:00138de0       ?RegisterClassA@rvAITrigger@@SAXXZ 20139de0 f   AI_Util.obj
 0001:00138e70       ?CreateInstance@rvAITrigger@@SAPAVidClass@@XZ 20139e70 f   AI_Util.obj
 0001:00138f10       ?GetClassType@rvAITrigger@@SAAAVidTypeInfo@@XZ 20139f10 f   AI_Util.obj
 0001:00138f20       ?GetType@rvAITrigger@@UBEPAVidTypeInfo@@XZ 20139f20 f   AI_Util.obj
 0001:00138f30       ??0rvAITrigger@@QAE@XZ     20139f30 f   AI_Util.obj
 0001:00138fc0       ?Spawn@rvAITrigger@@QAEXXZ 20139fc0 f   AI_Util.obj
 0001:00139180       ?Save@rvAITrigger@@QBEXPAVidSaveGame@@@Z 2013a180 f   AI_Util.obj
 0001:00139250       ?Restore@rvAITrigger@@QAEXPAVidRestoreGame@@@Z 2013a250 f   AI_Util.obj
 0001:001396a0       ?Think@rvAITrigger@@UAEXXZ 2013a6a0 f   AI_Util.obj
 0001:001398e0       ?FindTargets@rvAITrigger@@UAEXXZ 2013a8e0 f   AI_Util.obj
 0001:0013a0c0       ?Event_Activate@rvAITrigger@@AAEXPAVidEntity@@@Z 2013b0c0 f   AI_Util.obj
 0001:0013a460       ?Event_AppendFromSpawner@rvAITrigger@@AAEXPAVrvSpawner@@PAVidEntity@@@Z 2013b460 f   AI_Util.obj
 0001:0013a7d0       ?RegisterClassA@rvAITether@@SAXXZ 2013b7d0 f   AI_Util.obj
 0001:0013a860       ?CreateInstance@rvAITether@@SAPAVidClass@@XZ 2013b860 f   AI_Util.obj
 0001:0013a900       ?GetClassType@rvAITether@@SAAAVidTypeInfo@@XZ 2013b900 f   AI_Util.obj
 0001:0013a910       ?GetType@rvAITether@@UBEPAVidTypeInfo@@XZ 2013b910 f   AI_Util.obj
 0001:0013a920       ??0rvAITether@@QAE@XZ      2013b920 f   AI_Util.obj
 0001:0013a990       ?Spawn@rvAITether@@QAEXXZ  2013b990 f   AI_Util.obj
 0001:0013a9b0       ?Save@rvAITether@@QBEXPAVidSaveGame@@@Z 2013b9b0 f   AI_Util.obj
 0001:0013a9d0       ?Restore@rvAITether@@QAEXPAVidRestoreGame@@@Z 2013b9d0 f   AI_Util.obj
 0001:0013aa00       ?InitNonPersistentSpawnArgs@rvAITether@@QAEXXZ 2013ba00 f   AI_Util.obj
 0001:0013abc0       ?ValidateAAS@rvAITether@@UAE_NPAVidAI@@@Z 2013bbc0 f   AI_Util.obj
 0001:0013abe0       ?ValidateDestination@rvAITether@@UAE_NPAVidAI@@ABVidVec3@@@Z 2013bbe0 f   AI_Util.obj
 0001:0013acc0       ?ValidateBounds@rvAITether@@UAE_NABVidBounds@@@Z 2013bcc0 f   AI_Util.obj
 0001:0013acd0       ?FindGoal@rvAITether@@UAE_NPAVidAI@@AAUaasGoal_s@@@Z 2013bcd0 f   AI_Util.obj
 0001:0013add0       ?DebugDraw@rvAITether@@UAEXXZ 2013bdd0 f   AI_Util.obj
 0001:0013b080       ?Event_Activate@rvAITether@@AAEXPAVidEntity@@@Z 2013c080 f   AI_Util.obj
 0001:0013b320       ?Event_TetherSetupLocation@rvAITether@@AAEXXZ 2013c320 f   AI_Util.obj
 0001:0013b500       ?Event_TetherGetLocation@rvAITether@@AAEXXZ 2013c500 f   AI_Util.obj
 0001:0013b5f0       ?RegisterClassA@rvAITetherBehind@@SAXXZ 2013c5f0 f   AI_Util.obj
 0001:0013b680       ?CreateInstance@rvAITetherBehind@@SAPAVidClass@@XZ 2013c680 f   AI_Util.obj
 0001:0013b730       ?GetClassType@rvAITetherBehind@@SAAAVidTypeInfo@@XZ 2013c730 f   AI_Util.obj
 0001:0013b740       ?GetType@rvAITetherBehind@@UBEPAVidTypeInfo@@XZ 2013c740 f   AI_Util.obj
 0001:0013b750       ?Spawn@rvAITetherBehind@@QAEXXZ 2013c750 f   AI_Util.obj
 0001:0013b760       ?Restore@rvAITetherBehind@@QAEXPAVidRestoreGame@@@Z 2013c760 f   AI_Util.obj
 0001:0013b770       ?InitNonPersistentSpawnArgs@rvAITetherBehind@@QAEXXZ 2013c770 f   AI_Util.obj
 0001:0013b7c0       ?ValidateDestination@rvAITetherBehind@@UAE_NPAVidAI@@ABVidVec3@@@Z 2013c7c0 f   AI_Util.obj
 0001:0013ba10       ?ValidateBounds@rvAITetherBehind@@UAE_NABVidBounds@@@Z 2013ca10 f   AI_Util.obj
 0001:0013bae0       ?DebugDraw@rvAITetherBehind@@UAEXXZ 2013cae0 f   AI_Util.obj
 0001:0013bd60       ?RegisterClassA@rvAITetherRadius@@SAXXZ 2013cd60 f   AI_Util.obj
 0001:0013bdf0       ?CreateInstance@rvAITetherRadius@@SAPAVidClass@@XZ 2013cdf0 f   AI_Util.obj
 0001:0013bea0       ?GetClassType@rvAITetherRadius@@SAAAVidTypeInfo@@XZ 2013cea0 f   AI_Util.obj
 0001:0013beb0       ?GetType@rvAITetherRadius@@UBEPAVidTypeInfo@@XZ 2013ceb0 f   AI_Util.obj
 0001:0013bec0       ?Spawn@rvAITetherRadius@@QAEXXZ 2013cec0 f   AI_Util.obj
 0001:0013bed0       ?Restore@rvAITetherRadius@@QAEXPAVidRestoreGame@@@Z 2013ced0 f   AI_Util.obj
 0001:0013bee0       ?InitNonPersistentSpawnArgs@rvAITetherRadius@@QAEXXZ 2013cee0 f   AI_Util.obj
 0001:0013bf50       ?ValidateDestination@rvAITetherRadius@@UAE_NPAVidAI@@ABVidVec3@@@Z 2013cf50 f   AI_Util.obj
 0001:0013bff0       ?ValidateBounds@rvAITetherRadius@@UAE_NABVidBounds@@@Z 2013cff0 f   AI_Util.obj
 0001:0013c050       ?DebugDraw@rvAITetherRadius@@UAEXXZ 2013d050 f   AI_Util.obj
 0001:0013c0c0       ?RegisterClassA@rvAITetherClear@@SAXXZ 2013d0c0 f   AI_Util.obj
 0001:0013c150       ?CreateInstance@rvAITetherClear@@SAPAVidClass@@XZ 2013d150 f   AI_Util.obj
 0001:0013c200       ?GetClassType@rvAITetherClear@@SAAAVidTypeInfo@@XZ 2013d200 f   AI_Util.obj
 0001:0013c210       ?GetType@rvAITetherClear@@UBEPAVidTypeInfo@@XZ 2013d210 f   AI_Util.obj
 0001:0013c220       ?RegisterClassA@rvAIBecomePassive@@SAXXZ 2013d220 f   AI_Util.obj
 0001:0013c2b0       ?CreateInstance@rvAIBecomePassive@@SAPAVidClass@@XZ 2013d2b0 f   AI_Util.obj
 0001:0013c360       ?GetClassType@rvAIBecomePassive@@SAAAVidTypeInfo@@XZ 2013d360 f   AI_Util.obj
 0001:0013c370       ?GetType@rvAIBecomePassive@@UBEPAVidTypeInfo@@XZ 2013d370 f   AI_Util.obj
 0001:0013c380       ?Event_Activate@rvAIBecomePassive@@AAEXPAVidEntity@@@Z 2013d380 f   AI_Util.obj
 0001:0013c4b0       ?RegisterClassA@rvAIBecomeAggressive@@SAXXZ 2013d4b0 f   AI_Util.obj
 0001:0013c540       ?CreateInstance@rvAIBecomeAggressive@@SAPAVidClass@@XZ 2013d540 f   AI_Util.obj
 0001:0013c5f0       ?GetClassType@rvAIBecomeAggressive@@SAAAVidTypeInfo@@XZ 2013d5f0 f   AI_Util.obj
 0001:0013c600       ?GetType@rvAIBecomeAggressive@@UBEPAVidTypeInfo@@XZ 2013d600 f   AI_Util.obj
 0001:0013c610       ?Event_Activate@rvAIBecomeAggressive@@AAEXPAVidEntity@@@Z 2013d610 f   AI_Util.obj
 0001:0013c6f0       ?Register_rvAIHelper@@YAXXZ 2013d6f0 f   AI_Util.obj
 0001:0013c700       ?RegisterClassA@rvAICombatHelper@@SAXXZ 2013d700 f   AI_Util.obj
 0001:0013c790       ?CreateInstance@rvAICombatHelper@@SAPAVidClass@@XZ 2013d790 f   AI_Util.obj
 0001:0013c830       ?GetClassType@rvAICombatHelper@@SAAAVidTypeInfo@@XZ 2013d830 f   AI_Util.obj
 0001:0013c840       ?GetType@rvAICombatHelper@@UBEPAVidTypeInfo@@XZ 2013d840 f   AI_Util.obj
 0001:0013c850       ??0rvAICombatHelper@@QAE@XZ 2013d850 f   AI_Util.obj
 0001:0013c870       ?Spawn@rvAICombatHelper@@QAEXXZ 2013d870 f   AI_Util.obj
 0001:0013c880       ?IsCombat@rvAICombatHelper@@UBE_NXZ 2013d880 f   AI_Util.obj
 0001:0013c890       ?ValidateDestination@rvAICombatHelper@@UBE_NPBVidAI@@ABVidVec3@@@Z 2013d890 f   AI_Util.obj
 0001:0013caa0       ?OnActivate@rvAICombatHelper@@MAEX_N@Z 2013daa0 f   AI_Util.obj
 0001:0013cb30       ?Register_rvAICombatHelper@@YAXXZ 2013db30 f   AI_Util.obj
 0001:0013cb40       ?RegisterClassA@rvAIAvoid@@SAXXZ 2013db40 f   AI_Util.obj
 0001:0013cbd0       ?CreateInstance@rvAIAvoid@@SAPAVidClass@@XZ 2013dbd0 f   AI_Util.obj
 0001:0013cc70       ?GetClassType@rvAIAvoid@@SAAAVidTypeInfo@@XZ 2013dc70 f   AI_Util.obj
 0001:0013cc80       ?GetType@rvAIAvoid@@UBEPAVidTypeInfo@@XZ 2013dc80 f   AI_Util.obj
 0001:0013cc90       ??0rvAIAvoid@@QAE@XZ       2013dc90 f   AI_Util.obj
 0001:0013ccb0       ?Spawn@rvAIAvoid@@QAEXXZ   2013dcb0 f   AI_Util.obj
 0001:0013cfd0       ?Register_rvAIAvoid@@YAXXZ 2013dfd0 f   AI_Util.obj
 0001:0013cfe0       ?Register_rvAITrigger@@YAXXZ 2013dfe0 f   AI_Util.obj
 0001:0013cff0       ?Register_rvAITether@@YAXXZ 2013dff0 f   AI_Util.obj
 0001:0013d000       ?Register_rvAITetherBehind@@YAXXZ 2013e000 f   AI_Util.obj
 0001:0013d010       ?Register_rvAITetherRadius@@YAXXZ 2013e010 f   AI_Util.obj
 0001:0013d020       ?Register_rvAITetherClear@@YAXXZ 2013e020 f   AI_Util.obj
 0001:0013d030       ?Register_rvAIBecomePassive@@YAXXZ 2013e030 f   AI_Util.obj
 0001:0013d040       ?Register_rvAIBecomeAggressive@@YAXXZ 2013e040 f   AI_Util.obj
 0001:0013d050       ??1rvAITether@@UAE@XZ      2013e050 f i AI_Util.obj
 0001:0013d0f0       ??1rvAITrigger@@UAE@XZ     2013e0f0 f i AI_Util.obj
 0001:0013d1e0       ??_ErvAICombatHelper@@UAEPAXI@Z 2013e1e0 f i AI_Util.obj
 0001:0013d1e0       ??_GrvAIHelper@@UAEPAXI@Z  2013e1e0 f i AI_Util.obj
 0001:0013d1e0       ??_ErvAIHelper@@UAEPAXI@Z  2013e1e0 f i AI_Util.obj
 0001:0013d1e0       ??_GrvAICombatHelper@@UAEPAXI@Z 2013e1e0 f i AI_Util.obj
 0001:0013d210       ??_ErvAITether@@UAEPAXI@Z  2013e210 f i AI_Util.obj
 0001:0013d210       ??_ErvAITetherBehind@@UAEPAXI@Z 2013e210 f i AI_Util.obj
 0001:0013d210       ??_ErvAITetherClear@@UAEPAXI@Z 2013e210 f i AI_Util.obj
 0001:0013d210       ??_GrvAITetherBehind@@UAEPAXI@Z 2013e210 f i AI_Util.obj
 0001:0013d210       ??_GrvAITetherClear@@UAEPAXI@Z 2013e210 f i AI_Util.obj
 0001:0013d210       ??_GrvAITether@@UAEPAXI@Z  2013e210 f i AI_Util.obj
 0001:0013d210       ??_GrvAITetherRadius@@UAEPAXI@Z 2013e210 f i AI_Util.obj
 0001:0013d210       ??_ErvAITetherRadius@@UAEPAXI@Z 2013e210 f i AI_Util.obj
 0001:0013d240       ??_ErvAITrigger@@UAEPAXI@Z 2013e240 f i AI_Util.obj
 0001:0013d240       ??_GrvAITrigger@@UAEPAXI@Z 2013e240 f i AI_Util.obj
 0001:0013d270       ?GetOriginReachedRange@rvAITether@@UAEMXZ 2013e270 f i AI_Util.obj
 0001:0013d280       ?RegisterClassA@rvMonsterBerserker@@SAXXZ 2013e280 f   Monster_Berserker.obj
 0001:0013d310       ?CreateInstance@rvMonsterBerserker@@SAPAVidClass@@XZ 2013e310 f   Monster_Berserker.obj
 0001:0013d3b0       ?GetClassType@rvMonsterBerserker@@SAAAVidTypeInfo@@XZ 2013e3b0 f   Monster_Berserker.obj
 0001:0013d3c0       ?GetType@rvMonsterBerserker@@UBEPAVidTypeInfo@@XZ 2013e3c0 f   Monster_Berserker.obj
 0001:0013d3d0       ??0rvMonsterBerserker@@QAE@XZ 2013e3d0 f   Monster_Berserker.obj
 0001:0013d440       ?Spawn@rvMonsterBerserker@@QAEXXZ 2013e440 f   Monster_Berserker.obj
 0001:0013d510       ?Save@rvMonsterBerserker@@QBEXPAVidSaveGame@@@Z 2013e510 f   Monster_Berserker.obj
 0001:0013d560       ?Restore@rvMonsterBerserker@@QAEXPAVidRestoreGame@@@Z 2013e560 f   Monster_Berserker.obj
 0001:0013d5b0       ?GetDebugInfo@rvMonsterBerserker@@UAEXP6AXPBD00PAX@Z1@Z 2013e5b0 f   Monster_Berserker.obj
 0001:0013d610       ?Pain@rvMonsterBerserker@@UAE_NPAVidEntity@@0HABVidVec3@@H@Z 2013e610 f   Monster_Berserker.obj
 0001:0013d650       ?CheckPainActions@rvMonsterBerserker@@MAE_NXZ 2013e650 f   Monster_Berserker.obj
 0001:0013d6e0       ?CheckActions@rvMonsterBerserker@@MAE_NXZ 2013e6e0 f   Monster_Berserker.obj
 0001:0013d840       ?FilterTactical@rvMonsterBerserker@@MAEHH@Z 2013e840 f   Monster_Berserker.obj
 0001:0013d8a0       ?OnTacticalChange@rvMonsterBerserker@@MAEXW4aiTactical_t@@@Z 2013e8a0 f   Monster_Berserker.obj
 0001:0013d8d0       ?Berz_CanHitEnemyFromAnim@rvMonsterBerserker@@AAE_NH@Z 2013e8d0 f   Monster_Berserker.obj
 0001:0013dc00       ?CheckAction_RangedAttack@rvMonsterBerserker@@EAE_NPAVrvAIAction@@H@Z 2013ec00 f   Monster_Berserker.obj
 0001:0013dd90       ?CheckAction_ChargeAttack@rvMonsterBerserker@@AAE_NPAVrvAIAction@@H@Z 2013ed90 f   Monster_Berserker.obj
 0001:0013dfd0       ?State_Killed@rvMonsterBerserker@@AAE?AW4stateResult_t@@ABUstateParms_t@@@Z 2013efd0 f   Monster_Berserker.obj
 0001:0013e010       ?State_Torso_Pain@rvMonsterBerserker@@AAE?AW4stateResult_t@@ABUstateParms_t@@@Z 2013f010 f   Monster_Berserker.obj
 0001:0013e040       ?State_Torso_ChargeAttack@rvMonsterBerserker@@AAE?AW4stateResult_t@@ABUstateParms_t@@@Z 2013f040 f   Monster_Berserker.obj
 0001:0013e0f0       ?Frame_ChargeGroundImpact@rvMonsterBerserker@@AAE?AW4stateResult_t@@ABUstateParms_t@@@Z 2013f0f0 f   Monster_Berserker.obj
 0001:0013e1d0       ?Frame_DoBlastAttack@rvMonsterBerserker@@AAE?AW4stateResult_t@@ABUstateParms_t@@@Z 2013f1d0 f   Monster_Berserker.obj
 0001:0013e2d0       ?Register_rvMonsterBerserker@@YAXXZ 2013f2d0 f   Monster_Berserker.obj
 0001:0013e2e0       ??_ErvMonsterBerserker@@UAEPAXI@Z 2013f2e0 f i Monster_Berserker.obj
 0001:0013e2e0       ??_GrvMonsterBerserker@@UAEPAXI@Z 2013f2e0 f i Monster_Berserker.obj
 0001:0013e350       ?RegisterClassA@rvMonsterBossBuddy@@SAXXZ 2013f350 f   Monster_BossBuddy.obj
 0001:0013e3e0       ?CreateInstance@rvMonsterBossBuddy@@SAPAVidClass@@XZ 2013f3e0 f   Monster_BossBuddy.obj
 0001:0013e480       ?GetClassType@rvMonsterBossBuddy@@SAAAVidTypeInfo@@XZ 2013f480 f   Monster_BossBuddy.obj
 0001:0013e490       ?GetType@rvMonsterBossBuddy@@UBEPAVidTypeInfo@@XZ 2013f490 f   Monster_BossBuddy.obj
 0001:0013e4a0       ??0rvMonsterBossBuddy@@QAE@XZ 2013f4a0 f   Monster_BossBuddy.obj
 0001:0013e590       ?Spawn@rvMonsterBossBuddy@@QAEXXZ 2013f590 f   Monster_BossBuddy.obj
 0001:0013e680       ?InitSpawnArgsVariables@rvMonsterBossBuddy@@QAEXXZ 2013f680 f   Monster_BossBuddy.obj
 0001:0013e6e0       ?Save@rvMonsterBossBuddy@@QBEXPAVidSaveGame@@@Z 2013f6e0 f   Monster_BossBuddy.obj
 0001:0013e7c0       ?Restore@rvMonsterBossBuddy@@QAEXPAVidRestoreGame@@@Z 2013f7c0 f   Monster_BossBuddy.obj
 0001:0013e8a0       ?CanTurn@rvMonsterBossBuddy@@UBE_NXZ 2013f8a0 f   Monster_BossBuddy.obj
 0001:0013e8d0       ?Think@rvMonsterBossBuddy@@UAEXXZ 2013f8d0 f   Monster_BossBuddy.obj
 0001:0013e9d0       ?Pain@rvMonsterBossBuddy@@UAE_NPAVidEntity@@0HABVidVec3@@H@Z 2013f9d0 f   Monster_BossBuddy.obj
 0001:0013eae0       ?Damage@rvMonsterBossBuddy@@UAEXPAVidEntity@@0ABVidVec3@@PBDMH@Z 2013fae0 f   Monster_BossBuddy.obj
 0001:0013ec00       ?OnWakeUp@rvMonsterBossBuddy@@UAEXXZ 2013fc00 f   Monster_BossBuddy.obj
 0001:0013ec60       ?GetDebugInfo@rvMonsterBossBuddy@@UAEXP6AXPBD00PAX@Z1@Z 2013fc60 f   Monster_BossBuddy.obj
 0001:0013ecf0       ?CheckActions@rvMonsterBossBuddy@@MAE_NXZ 2013fcf0 f   Monster_BossBuddy.obj
 0001:0013ed90       ?AdjustShieldState@rvMonsterBossBuddy@@IAEX_N@Z 2013fd90 f   Monster_BossBuddy.obj
 0001:0013ee20       ?ReduceShields@rvMonsterBossBuddy@@IAEXH@Z 2013fe20 f   Monster_BossBuddy.obj
 0001:0013eed0       ?State_Torso_RocketAttack@rvMonsterBossBuddy@@AAE?AW4stateResult_t@@ABUstateParms_t@@@Z 2013fed0 f   Monster_BossBuddy.obj
 0001:0013f150       ?State_Torso_SlashAttack@rvMonsterBossBuddy@@AAE?AW4stateResult_t@@ABUstateParms_t@@@Z 20140150 f   Monster_BossBuddy.obj
 0001:0013f1f0       ?State_Torso_TurnRight90@rvMonsterBossBuddy@@AAE?AW4stateResult_t@@ABUstateParms_t@@@Z 201401f0 f   Monster_BossBuddy.obj
 0001:0013f290       ?State_Torso_TurnLeft90@rvMonsterBossBuddy@@AAE?AW4stateResult_t@@ABUstateParms_t@@@Z 20140290 f   Monster_BossBuddy.obj
 0001:0013f330       ?Event_RechargeShields@rvMonsterBossBuddy@@AAEXM@Z 20140330 f   Monster_BossBuddy.obj
 0001:0013f3a0       ?Register_rvMonsterBossBuddy@@YAXXZ 201403a0 f   Monster_BossBuddy.obj
 0001:0013f3b0       ??1rvMonsterBossBuddy@@UAE@XZ 201403b0 f i Monster_BossBuddy.obj
 0001:0013f470       ??_GrvMonsterBossBuddy@@UAEPAXI@Z 20140470 f i Monster_BossBuddy.obj
 0001:0013f470       ??_ErvMonsterBossBuddy@@UAEPAXI@Z 20140470 f i Monster_BossBuddy.obj
 0001:0013f4a0       ?RegisterClassA@rvMonsterBossMakron@@SAXXZ 201404a0 f   Monster_BossMakron.obj
 0001:0013f530       ?CreateInstance@rvMonsterBossMakron@@SAPAVidClass@@XZ 20140530 f   Monster_BossMakron.obj
 0001:0013f5d0       ?GetClassType@rvMonsterBossMakron@@SAAAVidTypeInfo@@XZ 201405d0 f   Monster_BossMakron.obj
 0001:0013f5e0       ?GetType@rvMonsterBossMakron@@UBEPAVidTypeInfo@@XZ 201405e0 f   Monster_BossMakron.obj
 0001:0013f5f0       ??0rvMonsterBossMakron@@QAE@XZ 201405f0 f   Monster_BossMakron.obj
 0001:0013f760       ?Spawn@rvMonsterBossMakron@@QAEXXZ 20140760 f   Monster_BossMakron.obj
 0001:0013f9e0       ?InitSpawnArgsVariables@rvMonsterBossMakron@@QAEXXZ 201409e0 f   Monster_BossMakron.obj
 0001:0013fb10       ?CanTurn@rvMonsterBossMakron@@UBE_NXZ 20140b10 f   Monster_BossMakron.obj
 0001:0013fb90       ?Save@rvMonsterBossMakron@@QBEXPAVidSaveGame@@@Z 20140b90 f   Monster_BossMakron.obj
 0001:0013fe40       ?Restore@rvMonsterBossMakron@@QAEXPAVidRestoreGame@@@Z 20140e40 f   Monster_BossMakron.obj
 0001:001400e0       ?BuildActionArray@rvMonsterBossMakron@@QAEXXZ 201410e0 f   Monster_BossMakron.obj
 0001:00140170       ?CheckActions@rvMonsterBossMakron@@MAE_NXZ 20141170 f   Monster_BossMakron.obj
 0001:001402d0       ?CheckTurnActions@rvMonsterBossMakron@@IAE_NXZ 201412d0 f   Monster_BossMakron.obj
 0001:001403e0       ?Killed@rvMonsterBossMakron@@MAEXPAVidEntity@@0HABVidVec3@@H@Z 201413e0 f   Monster_BossMakron.obj
 0001:00140520       ?Damage@rvMonsterBossMakron@@MAEXPAVidEntity@@0ABVidVec3@@PBDMH@Z 20141520 f   Monster_BossMakron.obj
 0001:00140550       ?PerformAction@rvMonsterBossMakron@@IAEXPBDH_N@Z 20141550 f   Monster_BossMakron.obj
 0001:001405d0       ?PerformAction@rvMonsterBossMakron@@IAE_NPAVrvAIAction@@P8idAI@@AE_N0H@ZPAVrvAIActionTimer@@@Z 201415d0 f   Monster_BossMakron.obj
 0001:001405e0       ?PerformPatternedAction@rvMonsterBossMakron@@IAEXXZ 201415e0 f   Monster_BossMakron.obj
 0001:00140710       ?OnStopAction@rvMonsterBossMakron@@MAEXXZ 20141710 f   Monster_BossMakron.obj
 0001:00140720       ?StopAllEffects@rvMonsterBossMakron@@IAEXXZ 20141720 f   Monster_BossMakron.obj
 0001:001407a0       ?BeginSeparation@rvMonsterBossMakron@@IAEXXZ 201417a0 f   Monster_BossMakron.obj
 0001:00140a30       ?CompleteSeparation@rvMonsterBossMakron@@IAEXXZ 20141a30 f   Monster_BossMakron.obj
 0001:00140ae0       ?MaintainBoltSweep@rvMonsterBossMakron@@IAEXXZ 20141ae0 f   Monster_BossMakron.obj
 0001:00140f80       ?InitBoltSweep@rvMonsterBossMakron@@IAEXVidVec3@@@Z 20141f80 f   Monster_BossMakron.obj
 0001:00141360       ?LightningSweep@rvMonsterBossMakron@@IAEXVidVec3@@AAV?$rvClientEntityPtr@VrvClientEffect@@@@1@Z 20142360 f   Monster_BossMakron.obj
 0001:001419d0       ?StopAllBoltEffects@rvMonsterBossMakron@@IAEXXZ 201429d0 f   Monster_BossMakron.obj
 0001:00141be0       ?State_Torso_DMGAttack@rvMonsterBossMakron@@IAE?AW4stateResult_t@@ABUstateParms_t@@@Z 20142be0 f   Monster_BossMakron.obj
 0001:00141c40       ?State_Torso_GrenadeAttack@rvMonsterBossMakron@@IAE?AW4stateResult_t@@ABUstateParms_t@@@Z 20142c40 f   Monster_BossMakron.obj
 0001:00141cd0       ?State_Torso_MeleeAttack@rvMonsterBossMakron@@IAE?AW4stateResult_t@@ABUstateParms_t@@@Z 20142cd0 f   Monster_BossMakron.obj
 0001:00141d30       ?State_Torso_CannonAttack@rvMonsterBossMakron@@IAE?AW4stateResult_t@@ABUstateParms_t@@@Z 20142d30 f   Monster_BossMakron.obj
 0001:00141f50       ?State_Torso_CannonSweepAttack@rvMonsterBossMakron@@IAE?AW4stateResult_t@@ABUstateParms_t@@@Z 20142f50 f   Monster_BossMakron.obj
 0001:00141fb0       ?State_Torso_Lightning1Attack@rvMonsterBossMakron@@IAE?AW4stateResult_t@@ABUstateParms_t@@@Z 20142fb0 f   Monster_BossMakron.obj
 0001:00142150       ?State_Torso_Lightning2Attack@rvMonsterBossMakron@@IAE?AW4stateResult_t@@ABUstateParms_t@@@Z 20143150 f   Monster_BossMakron.obj
 0001:001422e0       ?State_Torso_StompAttack@rvMonsterBossMakron@@IAE?AW4stateResult_t@@ABUstateParms_t@@@Z 201432e0 f   Monster_BossMakron.obj
 0001:00142360       ?State_Torso_Recharge@rvMonsterBossMakron@@IAE?AW4stateResult_t@@ABUstateParms_t@@@Z 20143360 f   Monster_BossMakron.obj
 0001:00142380       ?State_Torso_Charge@rvMonsterBossMakron@@IAE?AW4stateResult_t@@ABUstateParms_t@@@Z 20143380 f   Monster_BossMakron.obj
 0001:001423e0       ?State_Torso_KillPlayer@rvMonsterBossMakron@@IAE?AW4stateResult_t@@ABUstateParms_t@@@Z 201433e0 f   Monster_BossMakron.obj
 0001:00142500       ?State_Torso_Teleport@rvMonsterBossMakron@@IAE?AW4stateResult_t@@ABUstateParms_t@@@Z 20143500 f   Monster_BossMakron.obj
 0001:00142590       ?State_Killed@rvMonsterBossMakron@@IAE?AW4stateResult_t@@ABUstateParms_t@@@Z 20143590 f   Monster_BossMakron.obj
 0001:001426c0       ?State_Torso_TurnRight90@rvMonsterBossMakron@@IAE?AW4stateResult_t@@ABUstateParms_t@@@Z 201436c0 f   Monster_BossMakron.obj
 0001:00142760       ?State_Torso_TurnLeft90@rvMonsterBossMakron@@IAE?AW4stateResult_t@@ABUstateParms_t@@@Z 20143760 f   Monster_BossMakron.obj
 0001:00142800       ?State_Torso_RotateToAngle@rvMonsterBossMakron@@IAE?AW4stateResult_t@@ABUstateParms_t@@@Z 20143800 f   Monster_BossMakron.obj
 0001:00142a10       ?State_ScriptedFace@rvMonsterBossMakron@@IAE?AW4stateResult_t@@ABUstateParms_t@@@Z 20143a10 f   Monster_BossMakron.obj
 0001:00142a70       ?State_Torso_FirstDeath@rvMonsterBossMakron@@IAE?AW4stateResult_t@@ABUstateParms_t@@@Z 20143a70 f   Monster_BossMakron.obj
 0001:00142ad0       ?State_Torso_Resurrection@rvMonsterBossMakron@@IAE?AW4stateResult_t@@ABUstateParms_t@@@Z 20143ad0 f   Monster_BossMakron.obj
 0001:00142bf0       ?Frame_BeginLightningSweep2@rvMonsterBossMakron@@IAE?AW4stateResult_t@@ABUstateParms_t@@@Z 20143bf0 f   Monster_BossMakron.obj
 0001:00142c20       ?Frame_EndLightningSweep2@rvMonsterBossMakron@@IAE?AW4stateResult_t@@ABUstateParms_t@@@Z 20143c20 f   Monster_BossMakron.obj
 0001:00142c30       ?Frame_StompAttack@rvMonsterBossMakron@@IAE?AW4stateResult_t@@ABUstateParms_t@@@Z 20143c30 f   Monster_BossMakron.obj
 0001:00142d20       ?Frame_Teleport@rvMonsterBossMakron@@IAE?AW4stateResult_t@@ABUstateParms_t@@@Z 20143d20 f   Monster_BossMakron.obj
 0001:00142d50       ?Event_AllowMoreSpawns@rvMonsterBossMakron@@IAEXXZ 20143d50 f   Monster_BossMakron.obj
 0001:00142d60       ?Event_SetNextAction@rvMonsterBossMakron@@IAEXPBD@Z 20143d60 f   Monster_BossMakron.obj
 0001:00142fe0       ?Event_EnablePatternMode@rvMonsterBossMakron@@IAEXXZ 20143fe0 f   Monster_BossMakron.obj
 0001:00143000       ?Event_DisablePatternMode@rvMonsterBossMakron@@IAEXXZ 20144000 f   Monster_BossMakron.obj
 0001:00143010       ?Event_StompAttack@rvMonsterBossMakron@@IAEXAAVidVec3@@@Z 20144010 f   Monster_BossMakron.obj
 0001:00143370       ?Event_Separate@rvMonsterBossMakron@@IAEXXZ 20144370 f   Monster_BossMakron.obj
 0001:001433a0       ?Event_FlyingRotate@rvMonsterBossMakron@@IAEXAAVidVec3@@@Z 201443a0 f   Monster_BossMakron.obj
 0001:001433e0       ?Event_ToggleCornerState@rvMonsterBossMakron@@IAEXM@Z 201443e0 f   Monster_BossMakron.obj
 0001:00143410       ?Register_rvMonsterBossMakron@@YAXXZ 20144410 f   Monster_BossMakron.obj
 0001:00143420       ??1rvMonsterBossMakron@@UAE@XZ 20144420 f i Monster_BossMakron.obj
 0001:00143540       ??_ErvMonsterBossMakron@@UAEPAXI@Z 20144540 f i Monster_BossMakron.obj
 0001:00143540       ??_GrvMonsterBossMakron@@UAEPAXI@Z 20144540 f i Monster_BossMakron.obj
 0001:00143570       ?RegisterClassA@rvMonsterConvoyGround@@SAXXZ 20144570 f   Monster_ConvoyGround.obj
 0001:00143600       ?CreateInstance@rvMonsterConvoyGround@@SAPAVidClass@@XZ 20144600 f   Monster_ConvoyGround.obj
 0001:001436a0       ?GetClassType@rvMonsterConvoyGround@@SAAAVidTypeInfo@@XZ 201446a0 f   Monster_ConvoyGround.obj
 0001:001436b0       ?GetType@rvMonsterConvoyGround@@UBEPAVidTypeInfo@@XZ 201446b0 f   Monster_ConvoyGround.obj
 0001:001436c0       ??0rvMonsterConvoyGround@@QAE@XZ 201446c0 f   Monster_ConvoyGround.obj
 0001:00143730       ?Spawn@rvMonsterConvoyGround@@QAEXXZ 20144730 f   Monster_ConvoyGround.obj
 0001:00143770       ?InitSpawnArgsVariables@rvMonsterConvoyGround@@QAEXXZ 20144770 f   Monster_ConvoyGround.obj
 0001:00143880       ?Save@rvMonsterConvoyGround@@QBEXPAVidSaveGame@@@Z 20144880 f   Monster_ConvoyGround.obj
 0001:00143910       ?Restore@rvMonsterConvoyGround@@QAEXPAVidRestoreGame@@@Z 20144910 f   Monster_ConvoyGround.obj
 0001:001439a0       ?Postthink@rvMonsterConvoyGround@@UAEXXZ 201449a0 f   Monster_ConvoyGround.obj
 0001:001439b0       ?Pain@rvMonsterConvoyGround@@UAE_NPAVidEntity@@0HABVidVec3@@H@Z 201449b0 f   Monster_ConvoyGround.obj
 0001:001439e0       ?CheckPainActions@rvMonsterConvoyGround@@UAE_NXZ 201449e0 f   Monster_ConvoyGround.obj
 0001:00143a00       ?CanTurn@rvMonsterConvoyGround@@UBE_NXZ 20144a00 f   Monster_ConvoyGround.obj
 0001:00143a40       ?CanMove@rvMonsterConvoyGround@@UBE_NXZ 20144a40 f   Monster_ConvoyGround.obj
 0001:00143a80       ?Damage@rvMonsterConvoyGround@@UAEXPAVidEntity@@0ABVidVec3@@PBDMH@Z 20144a80 f   Monster_ConvoyGround.obj
 0001:00143b00       ?AdjustHealthByDamage@rvMonsterConvoyGround@@UAEXH@Z 20144b00 f   Monster_ConvoyGround.obj
 0001:00143b80       ?GetDebugInfo@rvMonsterConvoyGround@@UAEXP6AXPBD00PAX@Z1@Z 20144b80 f   Monster_ConvoyGround.obj
 0001:00143c10       ?CheckActions@rvMonsterConvoyGround@@MAE_NXZ 20144c10 f   Monster_ConvoyGround.obj
 0001:00143d00       ?FilterTactical@rvMonsterConvoyGround@@MAEHH@Z 20144d00 f   Monster_ConvoyGround.obj
 0001:00143d10       ?GetIdleAnimName@rvMonsterConvoyGround@@MAEPBDXZ 20144d10 f   Monster_ConvoyGround.obj
 0001:00143d30       ?OnDeath@rvMonsterConvoyGround@@MAEXXZ 20144d30 f   Monster_ConvoyGround.obj
 0001:00143f30       ?State_Fall@rvMonsterConvoyGround@@AAE?AW4stateResult_t@@ABUstateParms_t@@@Z 20144f30 f   Monster_ConvoyGround.obj
 0001:001441f0       ?State_Legs_Move@rvMonsterConvoyGround@@AAE?AW4stateResult_t@@ABUstateParms_t@@@Z 201451f0 f   Monster_ConvoyGround.obj
 0001:001445a0       ?State_Torso_BlasterAttack@rvMonsterConvoyGround@@AAE?AW4stateResult_t@@ABUstateParms_t@@@Z 201455a0 f   Monster_ConvoyGround.obj
 0001:001446b0       ?State_Torso_Open@rvMonsterConvoyGround@@AAE?AW4stateResult_t@@ABUstateParms_t@@@Z 201456b0 f   Monster_ConvoyGround.obj
 0001:00144720       ?State_Torso_Close@rvMonsterConvoyGround@@AAE?AW4stateResult_t@@ABUstateParms_t@@@Z 20145720 f   Monster_ConvoyGround.obj
 0001:001447d0       ?State_Torso_Pain@rvMonsterConvoyGround@@AAE?AW4stateResult_t@@ABUstateParms_t@@@Z 201457d0 f   Monster_ConvoyGround.obj
 0001:001448f0       ?Register_rvMonsterConvoyGround@@YAXXZ 201458f0 f   Monster_ConvoyGround.obj
 0001:00144900       ??_ErvMonsterConvoyGround@@UAEPAXI@Z 20145900 f i Monster_ConvoyGround.obj
 0001:00144900       ??_GrvMonsterConvoyGround@@UAEPAXI@Z 20145900 f i Monster_ConvoyGround.obj
 0001:00144970       ?RegisterClassA@rvMonsterConvoyHover@@SAXXZ 20145970 f   Monster_ConvoyHover.obj
 0001:00144a00       ?CreateInstance@rvMonsterConvoyHover@@SAPAVidClass@@XZ 20145a00 f   Monster_ConvoyHover.obj
 0001:00144aa0       ?GetClassType@rvMonsterConvoyHover@@SAAAVidTypeInfo@@XZ 20145aa0 f   Monster_ConvoyHover.obj
 0001:00144ab0       ?GetType@rvMonsterConvoyHover@@UBEPAVidTypeInfo@@XZ 20145ab0 f   Monster_ConvoyHover.obj
 0001:00144ac0       ??0rvMonsterConvoyHover@@QAE@XZ 20145ac0 f   Monster_ConvoyHover.obj
 0001:00144b10       ??1rvMonsterConvoyHover@@UAE@XZ 20145b10 f   Monster_ConvoyHover.obj
 0001:00144b70       ?Save@rvMonsterConvoyHover@@QBEXPAVidSaveGame@@@Z 20145b70 f   Monster_ConvoyHover.obj
 0001:00144c20       ?Restore@rvMonsterConvoyHover@@QAEXPAVidRestoreGame@@@Z 20145c20 f   Monster_ConvoyHover.obj
 0001:00144d70       ?InitSpawnArgsVariables@rvMonsterConvoyHover@@QAEXXZ 20145d70 f   Monster_ConvoyHover.obj
 0001:00145070       ?Spawn@rvMonsterConvoyHover@@QAEXXZ 20146070 f   Monster_ConvoyHover.obj
 0001:00145450       ?Think@rvMonsterConvoyHover@@UAEXXZ 20146450 f   Monster_ConvoyHover.obj
 0001:00145c90       ?Think_Random@rvMonsterConvoyHover@@AAEXXZ 20146c90 f   Monster_ConvoyHover.obj
 0001:00146280       ?Think_Pathing@rvMonsterConvoyHover@@AAEXXZ 20147280 f   Monster_ConvoyHover.obj
 0001:00146290       ?AttackBlaster@rvMonsterConvoyHover@@AAEXXZ 20147290 f   Monster_ConvoyHover.obj
 0001:001464d0       ?AttackBeam@rvMonsterConvoyHover@@AAEXXZ 201474d0 f   Monster_ConvoyHover.obj
 0001:00146710       ?CalcDampening@rvMonsterConvoyHover@@AAEXABVidAngles@@AAV2@@Z 20147710 f   Monster_ConvoyHover.obj
 0001:00146a10       ?State_Idle@rvMonsterConvoyHover@@AAE?AW4stateResult_t@@ABUstateParms_t@@@Z 20147a10 f   Monster_ConvoyHover.obj
 0001:00146b00       ?State_BlasterAttack@rvMonsterConvoyHover@@AAE?AW4stateResult_t@@ABUstateParms_t@@@Z 20147b00 f   Monster_ConvoyHover.obj
 0001:00146b90       ?State_BeamAttack@rvMonsterConvoyHover@@AAE?AW4stateResult_t@@ABUstateParms_t@@@Z 20147b90 f   Monster_ConvoyHover.obj
 0001:00146c20       ?OnDeath@rvMonsterConvoyHover@@EAEXXZ 20147c20 f   Monster_ConvoyHover.obj
 0001:00146d90       ?Register_rvMonsterConvoyHover@@YAXXZ 20147d90 f   Monster_ConvoyHover.obj
 0001:00146da0       ??$SpawnSafeEntityDef@VidProjectile@@@idGameLocal@@QAEPAVidProjectile@@PBDPBVidDict@@@Z 20147da0 f i Monster_ConvoyHover.obj
 0001:00146e00       ??_GrvMonsterConvoyHover@@UAEPAXI@Z 20147e00 f i Monster_ConvoyHover.obj
 0001:00146e00       ??_ErvMonsterConvoyHover@@UAEPAXI@Z 20147e00 f i Monster_ConvoyHover.obj
 0001:00146e30       ?IsDriving@rvVehicleAI@@QAE_NXZ 20147e30 f i Monster_ConvoyHover.obj
 0001:00146ea0       ?Present@rvVehicleDriver@@UAEXXZ 20147ea0 f i VehicleDriver.obj
 0001:00146ea0       ?DebugDraw@idPhysics@@UAEXXZ 20147ea0 f i SplineMover.obj
 0001:00146ea0       ?RunPostPhysics@rvVehicle@@MAEXXZ 20147ea0 f i Monster_ConvoyHover.obj
 0001:00146ea0       ?PreSave@rvWeapon@@UAEXXZ  20147ea0 f i Weapon.obj
 0001:00146ea0       ?RunPhysics@rvVehiclePart@@UAEXXZ 20147ea0 f i VehicleParts.obj
 0001:00146ea0       ??1element_s@?$idBlockAlloc@UentityState_s@@$0BAA@$0BL@@@QAE@XZ 20147ea0 f i Game_local.obj
 0001:00146ea0       ?RunPrePhysics@rvVehiclePart@@UAEXXZ 20147ea0 f i VehicleParts.obj
 0001:00146ea0       ?CleanupWeapon@rvWeapon@@UAEXXZ 20147ea0 f i Weapon.obj
 0001:00146ea0       ?ClientUnstale@rvClientPhysics@@UAEXXZ 20147ea0 f i ClientEntity.obj
 0001:00146ea0       ?RepeaterEndSnapshots@idGameLocal@@UAEXXZ 20147ea0 f i Game_local.obj
 0001:00146ea0       ??3@YAXPAX0@Z              20147ea0 f i StatManager.obj
 0001:00146ea0       ?ClientUnstale@rvWeapon@@UAEXXZ 20147ea0 f i Weapon.obj
 0001:00146ea0       ?Event_PostRestore@idClass@@QAEXXZ 20147ea0 f i Class.obj
 0001:00146ea0       ?Stop@idCamera@@UAEXXZ     20147ea0 f i Camera.obj
 0001:00146ea0       ?RunPrePhysics@rvVehicle@@MAEXXZ 20147ea0 f i Monster_ConvoyHover.obj
 0001:00146ea0       ?RunPostPhysics@rvVehiclePart@@UAEXXZ 20147ea0 f i VehicleParts.obj
 0001:00146ea0       ?PostSave@rvWeapon@@UAEXXZ 20147ea0 f i Weapon.obj
 0001:00146ea0       ?OnDeath@rvVehicle@@EAEXXZ 20147ea0 f i Vehicle.obj
 0001:00146ea0       ?SpectatorCycle@rvWeapon@@UAEXXZ 20147ea0 f i Weapon.obj
 0001:00146eb0       ?SetInput@rvVehicle@@UAEXHABVusercmd_t@@ABVidAngles@@@Z 20147eb0 f i Monster_ConvoyHover.obj
 0001:00146ee0       ?RepeaterProcessReliableMessage@idGameLocal@@UAEXHABVidBitMsg@@@Z 20147ee0 f i Game_local.obj
 0001:00146ee0       ?UpdateHUD@rvVehicle@@UAEXPAVidActor@@PAVidUserInterface@@@Z 20147ee0 f i Monster_ConvoyHover.obj
 0001:00146ee0       ?PushOntoStack@idTypeDef@@UAEXPAVidThread@@PBD@Z 20147ee0 f i Script_Compiler.obj
 0001:00146ef0       ?RegisterClassA@rvMonsterFailedTransfer@@SAXXZ 20147ef0 f   Monster_FailedTransfer.obj
 0001:00146f80       ?CreateInstance@rvMonsterFailedTransfer@@SAPAVidClass@@XZ 20147f80 f   Monster_FailedTransfer.obj
 0001:00147020       ?GetClassType@rvMonsterFailedTransfer@@SAAAVidTypeInfo@@XZ 20148020 f   Monster_FailedTransfer.obj
 0001:00147030       ?GetType@rvMonsterFailedTransfer@@UBEPAVidTypeInfo@@XZ 20148030 f   Monster_FailedTransfer.obj
 0001:00147040       ??0rvMonsterFailedTransfer@@QAE@XZ 20148040 f   Monster_FailedTransfer.obj
 0001:00147060       ?Spawn@rvMonsterFailedTransfer@@QAEXXZ 20148060 f   Monster_FailedTransfer.obj
 0001:00147090       ?Killed@rvMonsterFailedTransfer@@UAEXPAVidEntity@@0HABVidVec3@@H@Z 20148090 f   Monster_FailedTransfer.obj
 0001:001470f0       ?Save@rvMonsterFailedTransfer@@QBEXPAVidSaveGame@@@Z 201480f0 f   Monster_FailedTransfer.obj
 0001:00147110       ?Restore@rvMonsterFailedTransfer@@QAEXPAVidRestoreGame@@@Z 20148110 f   Monster_FailedTransfer.obj
 0001:00147130       ?OnDeath@rvMonsterFailedTransfer@@MAEXXZ 20148130 f   Monster_FailedTransfer.obj
 0001:001474e0       ?Register_rvMonsterFailedTransfer@@YAXXZ 201484e0 f   Monster_FailedTransfer.obj
 0001:00147510       ?RegisterClassA@rvMonsterFatty@@SAXXZ 20148510 f   Monster_Fatty.obj
 0001:001475a0       ?CreateInstance@rvMonsterFatty@@SAPAVidClass@@XZ 201485a0 f   Monster_Fatty.obj
 0001:00147670       ?GetClassType@rvMonsterFatty@@SAAAVidTypeInfo@@XZ 20148670 f   Monster_Fatty.obj
 0001:00147680       ?GetType@rvMonsterFatty@@UBEPAVidTypeInfo@@XZ 20148680 f   Monster_Fatty.obj
 0001:00147690       ??1rvMonsterFatty@@UAE@XZ  20148690 f   Monster_Fatty.obj
 0001:001476f0       ?InitSpawnArgsVariables@rvMonsterFatty@@QAEXXZ 201486f0 f   Monster_Fatty.obj
 0001:00147800       ?Spawn@rvMonsterFatty@@QAEXXZ 20148800 f   Monster_Fatty.obj
 0001:00147850       ?Save@rvMonsterFatty@@QBEXPAVidSaveGame@@@Z 20148850 f   Monster_Fatty.obj
 0001:001478a0       ?Restore@rvMonsterFatty@@QAEXPAVidRestoreGame@@@Z 201488a0 f   Monster_Fatty.obj
 0001:001478f0       ?UpdateAnimationControllers@rvMonsterFatty@@UAE_NXZ 201488f0 f   Monster_Fatty.obj
 0001:00147c80       ?AddDamageEffect@rvMonsterFatty@@UAEXABUtrace_t@@ABVidVec3@@PBDPAVidEntity@@@Z 20148c80 f   Monster_Fatty.obj
 0001:00147c90       ?CheckActions@rvMonsterFatty@@MAE_NXZ 20148c90 f   Monster_Fatty.obj
 0001:00147cc0       ?PlayAttackAnim@rvMonsterFatty@@IAEXABVidVec3@@H@Z 20148cc0 f   Monster_Fatty.obj
 0001:00147f20       ?ResetAllChains@rvMonsterFatty@@IAEXXZ 20148f20 f   Monster_Fatty.obj
 0001:00147f50       ?ChainIn@rvMonsterFatty@@IAEXH@Z 20148f50 f   Monster_Fatty.obj
 0001:00147fd0       ?ChainOut@rvMonsterFatty@@IAEXH@Z 20148fd0 f   Monster_Fatty.obj
 0001:00148140       ?CheckAction_WhipAttack@rvMonsterFatty@@AAE_NPAVrvAIAction@@H@Z 20149140 f   Monster_Fatty.obj
 0001:00148170       ?Frame_LeftChainOut@rvMonsterFatty@@AAE?AW4stateResult_t@@ABUstateParms_t@@@Z 20149170 f   Monster_Fatty.obj
 0001:00148180       ?Frame_LeftChainIn@rvMonsterFatty@@AAE?AW4stateResult_t@@ABUstateParms_t@@@Z 20149180 f   Monster_Fatty.obj
 0001:00148190       ?Frame_RightChainOut@rvMonsterFatty@@AAE?AW4stateResult_t@@ABUstateParms_t@@@Z 20149190 f   Monster_Fatty.obj
 0001:001481a0       ?Frame_RightChainIn@rvMonsterFatty@@AAE?AW4stateResult_t@@ABUstateParms_t@@@Z 201491a0 f   Monster_Fatty.obj
 0001:001481b0       ?State_Torso_WhipAttack@rvMonsterFatty@@AAE?AW4stateResult_t@@ABUstateParms_t@@@Z 201491b0 f   Monster_Fatty.obj
 0001:00148270       ?Register_rvMonsterFatty@@YAXXZ 20149270 f   Monster_Fatty.obj
 0001:00148280       ??_ErvMonsterFatty@@UAEPAXI@Z 20149280 f i Monster_Fatty.obj
 0001:00148280       ??_GrvMonsterFatty@@UAEPAXI@Z 20149280 f i Monster_Fatty.obj
 0001:001482b0       ?CanPlayImpactEffect@rvMonsterFatty@@UAE_NPAVidEntity@@0@Z 201492b0 f i Monster_Fatty.obj
 0001:001482b0       ?RepeaterApplySnapshot@idGameLocal@@UAE_NHH@Z 201492b0 f i Game_local.obj
 0001:001482b0       ?GetPhysicsToVisualTransform@rvVehicle@@UAE_NAAVidVec3@@AAVidMat3@@@Z 201492b0 f i Monster_ConvoyHover.obj
 0001:001482c0       ?RegisterClassA@rvMonsterGladiator@@SAXXZ 201492c0 f   Monster_Gladiator.obj
 0001:00148350       ?CreateInstance@rvMonsterGladiator@@SAPAVidClass@@XZ 20149350 f   Monster_Gladiator.obj
 0001:001483f0       ?GetClassType@rvMonsterGladiator@@SAAAVidTypeInfo@@XZ 201493f0 f   Monster_Gladiator.obj
 0001:00148400       ?GetType@rvMonsterGladiator@@UBEPAVidTypeInfo@@XZ 20149400 f   Monster_Gladiator.obj
 0001:00148410       ??0rvMonsterGladiator@@QAE@XZ 20149410 f   Monster_Gladiator.obj
 0001:00148480       ?InitSpawnArgsVariables@rvMonsterGladiator@@QAEXXZ 20149480 f   Monster_Gladiator.obj
 0001:00148540       ?Spawn@rvMonsterGladiator@@QAEXXZ 20149540 f   Monster_Gladiator.obj
 0001:00148610       ?Save@rvMonsterGladiator@@QBEXPAVidSaveGame@@@Z 20149610 f   Monster_Gladiator.obj
 0001:001486e0       ?Restore@rvMonsterGladiator@@QAEXPAVidRestoreGame@@@Z 201496e0 f   Monster_Gladiator.obj
 0001:001487c0       ?CanTurn@rvMonsterGladiator@@UBE_NXZ 201497c0 f   Monster_Gladiator.obj
 0001:00148810       ?GetDebugInfo@rvMonsterGladiator@@UAEXP6AXPBD00PAX@Z1@Z 20149810 f   Monster_Gladiator.obj
 0001:00148850       ?Damage@rvMonsterGladiator@@UAEXPAVidEntity@@0ABVidVec3@@PBDMH@Z 20149850 f   Monster_Gladiator.obj
 0001:00148b00       ?AddDamageEffect@rvMonsterGladiator@@UAEXABUtrace_t@@ABVidVec3@@PBDPAVidEntity@@@Z 20149b00 f   Monster_Gladiator.obj
 0001:00148b80       ?UpdateRunStatus@rvMonsterGladiator@@UAE_NXZ 20149b80 f   Monster_Gladiator.obj
 0001:00148bd0       ?FilterTactical@rvMonsterGladiator@@UAEHH@Z 20149bd0 f   Monster_Gladiator.obj
 0001:00148c50       ?GetDamageForLocation@rvMonsterGladiator@@UAEHHH@Z 20149c50 f   Monster_Gladiator.obj
 0001:00148cb0       ?CheckActions@rvMonsterGladiator@@MAE_NXZ 20149cb0 f   Monster_Gladiator.obj
 0001:001490b0       ?ShowShield@rvMonsterGladiator@@IAEXXZ 2014a0b0 f   Monster_Gladiator.obj
 0001:00149640       ?HideShield@rvMonsterGladiator@@IAEXH@Z 2014a640 f   Monster_Gladiator.obj
 0001:00149760       ?DestroyRailgun@rvMonsterGladiator@@IAEXXZ 2014a760 f   Monster_Gladiator.obj
 0001:001499c0       ?State_Killed@rvMonsterGladiator@@AAE?AW4stateResult_t@@ABUstateParms_t@@@Z 2014a9c0 f   Monster_Gladiator.obj
 0001:001499e0       ?State_Torso_BlasterAttack@rvMonsterGladiator@@AAE?AW4stateResult_t@@ABUstateParms_t@@@Z 2014a9e0 f   Monster_Gladiator.obj
 0001:00149bf0       ?State_Torso_RailgunAttack@rvMonsterGladiator@@AAE?AW4stateResult_t@@ABUstateParms_t@@@Z 2014abf0 f   Monster_Gladiator.obj
 0001:00149cd0       ?State_Torso_ShieldStart@rvMonsterGladiator@@AAE?AW4stateResult_t@@ABUstateParms_t@@@Z 2014acd0 f   Monster_Gladiator.obj
 0001:00149dc0       ?State_Torso_ShieldEnd@rvMonsterGladiator@@AAE?AW4stateResult_t@@ABUstateParms_t@@@Z 2014adc0 f   Monster_Gladiator.obj
 0001:00149f20       ?State_Torso_TurnRight90@rvMonsterGladiator@@AAE?AW4stateResult_t@@ABUstateParms_t@@@Z 2014af20 f   Monster_Gladiator.obj
 0001:0014a010       ?State_Torso_TurnLeft90@rvMonsterGladiator@@AAE?AW4stateResult_t@@ABUstateParms_t@@@Z 2014b010 f   Monster_Gladiator.obj
 0001:0014a100       ?State_Torso_ShieldFire@rvMonsterGladiator@@AAE?AW4stateResult_t@@ABUstateParms_t@@@Z 2014b100 f   Monster_Gladiator.obj
 0001:0014a2e0       ?Register_rvMonsterGladiator@@YAXXZ 2014b2e0 f   Monster_Gladiator.obj
 0001:0014a2f0       ??_ErvMonsterGladiator@@UAEPAXI@Z 2014b2f0 f i Monster_Gladiator.obj
 0001:0014a2f0       ??_GrvMonsterGladiator@@UAEPAXI@Z 2014b2f0 f i Monster_Gladiator.obj
 0001:0014a360       ?RegisterClassA@rvMonsterGrunt@@SAXXZ 2014b360 f   Monster_Grunt.obj
 0001:0014a3f0       ?CreateInstance@rvMonsterGrunt@@SAPAVidClass@@XZ 2014b3f0 f   Monster_Grunt.obj
 0001:0014a490       ?GetClassType@rvMonsterGrunt@@SAAAVidTypeInfo@@XZ 2014b490 f   Monster_Grunt.obj
 0001:0014a4a0       ?GetType@rvMonsterGrunt@@UBEPAVidTypeInfo@@XZ 2014b4a0 f   Monster_Grunt.obj
 0001:0014a4b0       ??0rvMonsterGrunt@@QAE@XZ  2014b4b0 f   Monster_Grunt.obj
 0001:0014a520       ?Spawn@rvMonsterGrunt@@QAEXXZ 2014b520 f   Monster_Grunt.obj
 0001:0014a5d0       ?Save@rvMonsterGrunt@@QBEXPAVidSaveGame@@@Z 2014b5d0 f   Monster_Grunt.obj
 0001:0014a620       ?Restore@rvMonsterGrunt@@QAEXPAVidRestoreGame@@@Z 2014b620 f   Monster_Grunt.obj
 0001:0014a670       ?AdjustHealthByDamage@rvMonsterGrunt@@UAEXH@Z 2014b670 f   Monster_Grunt.obj
 0001:0014a6c0       ?CheckActions@rvMonsterGrunt@@MAE_NXZ 2014b6c0 f   Monster_Grunt.obj
 0001:0014a810       ?OnTacticalChange@rvMonsterGrunt@@MAEXW4aiTactical_t@@@Z 2014b810 f   Monster_Grunt.obj
 0001:0014a830       ?OnDeath@rvMonsterGrunt@@MAEXXZ 2014b830 f   Monster_Grunt.obj
 0001:0014a840       ?RageStart@rvMonsterGrunt@@AAEXXZ 2014b840 f   Monster_Grunt.obj
 0001:0014a8b0       ?RageStop@rvMonsterGrunt@@AAEXXZ 2014b8b0 f   Monster_Grunt.obj
 0001:0014a8c0       ?State_Torso_Enrage@rvMonsterGrunt@@AAE?AW4stateResult_t@@ABUstateParms_t@@@Z 2014b8c0 f   Monster_Grunt.obj
 0001:0014a930       ?State_Torso_Pain@rvMonsterGrunt@@AAE?AW4stateResult_t@@ABUstateParms_t@@@Z 2014b930 f   Monster_Grunt.obj
 0001:0014a960       ?State_Torso_LeapAttack@rvMonsterGrunt@@AAE?AW4stateResult_t@@ABUstateParms_t@@@Z 2014b960 f   Monster_Grunt.obj
 0001:0014aa10       ?Register_rvMonsterGrunt@@YAXXZ 2014ba10 f   Monster_Grunt.obj
 0001:0014aa20       ??_GrvMonsterGrunt@@UAEPAXI@Z 2014ba20 f i Monster_Grunt.obj
 0001:0014aa20       ??_ErvMonsterGrunt@@UAEPAXI@Z 2014ba20 f i Monster_Grunt.obj
 0001:0014aa20       ??_GrvMonsterStroggFlyer@@UAEPAXI@Z 2014ba20 f i Monster_StroggFlyer.obj
 0001:0014aa20       ??_ErvMonsterStroggFlyer@@UAEPAXI@Z 2014ba20 f i Monster_StroggFlyer.obj
 0001:0014aa90       ?RegisterClassA@rvMonsterGunner@@SAXXZ 2014ba90 f   Monster_Gunner.obj
 0001:0014ab20       ?CreateInstance@rvMonsterGunner@@SAPAVidClass@@XZ 2014bb20 f   Monster_Gunner.obj
 0001:0014abc0       ?GetClassType@rvMonsterGunner@@SAAAVidTypeInfo@@XZ 2014bbc0 f   Monster_Gunner.obj
 0001:0014abd0       ?GetType@rvMonsterGunner@@UBEPAVidTypeInfo@@XZ 2014bbd0 f   Monster_Gunner.obj
 0001:0014abe0       ??0rvMonsterGunner@@QAE@XZ 2014bbe0 f   Monster_Gunner.obj
 0001:0014aca0       ?InitSpawnArgsVariables@rvMonsterGunner@@QAEXXZ 2014bca0 f   Monster_Gunner.obj
 0001:0014ad90       ?Spawn@rvMonsterGunner@@QAEXXZ 2014bd90 f   Monster_Gunner.obj
 0001:0014ae10       ?Save@rvMonsterGunner@@QBEXPAVidSaveGame@@@Z 2014be10 f   Monster_Gunner.obj
 0001:0014ae90       ?Restore@rvMonsterGunner@@QAEXPAVidRestoreGame@@@Z 2014be90 f   Monster_Gunner.obj
 0001:0014af20       ?GetDebugInfo@rvMonsterGunner@@UAEXP6AXPBD00PAX@Z1@Z 2014bf20 f   Monster_Gunner.obj
 0001:0014afb0       ?Pain@rvMonsterGunner@@UAE_NPAVidEntity@@0HABVidVec3@@H@Z 2014bfb0 f   Monster_Gunner.obj
 0001:0014b000       ?OnStopMoving@rvMonsterGunner@@MAEXW4aiMoveCommand_t@@@Z 2014c000 f   Monster_Gunner.obj
 0001:0014b100       ?UpdateRunStatus@rvMonsterGunner@@MAE_NXZ 2014c100 f   Monster_Gunner.obj
 0001:0014b120       ?FilterTactical@rvMonsterGunner@@MAEHH@Z 2014c120 f   Monster_Gunner.obj
 0001:0014b1c0       ?CheckActions@rvMonsterGunner@@MAE_NXZ 2014c1c0 f   Monster_Gunner.obj
 0001:0014b2b0       ?OnTacticalChange@rvMonsterGunner@@MAEXW4aiTactical_t@@@Z 2014c2b0 f   Monster_Gunner.obj
 0001:0014b2f0       ?CheckAction_SideStepLeft@rvMonsterGunner@@AAE_NPAVrvAIAction@@H@Z 2014c2f0 f   Monster_Gunner.obj
 0001:0014b380       ?CheckAction_SideStepRight@rvMonsterGunner@@AAE_NPAVrvAIAction@@H@Z 2014c380 f   Monster_Gunner.obj
 0001:0014b410       ?State_Torso_NailgunAttack@rvMonsterGunner@@AAE?AW4stateResult_t@@ABUstateParms_t@@@Z 2014c410 f   Monster_Gunner.obj
 0001:0014b6a0       ?State_Torso_MovingRangedAttack@rvMonsterGunner@@AAE?AW4stateResult_t@@ABUstateParms_t@@@Z 2014c6a0 f   Monster_Gunner.obj
 0001:0014b840       ?Register_rvMonsterGunner@@YAXXZ 2014c840 f   Monster_Gunner.obj
 0001:0014b850       ??1rvMonsterGunner@@UAE@XZ 2014c850 f i Monster_Gunner.obj
 0001:0014b8e0       ??_ErvMonsterGunner@@UAEPAXI@Z 2014c8e0 f i Monster_Gunner.obj
 0001:0014b8e0       ??_GrvMonsterGunner@@UAEPAXI@Z 2014c8e0 f i Monster_Gunner.obj
 0001:0014b910       ?RegisterClassA@rvMonsterHarvester@@SAXXZ 2014c910 f   Monster_Harvester.obj
 0001:0014b9a0       ?CreateInstance@rvMonsterHarvester@@SAPAVidClass@@XZ 2014c9a0 f   Monster_Harvester.obj
 0001:0014ba40       ?GetClassType@rvMonsterHarvester@@SAAAVidTypeInfo@@XZ 2014ca40 f   Monster_Harvester.obj
 0001:0014ba50       ?GetType@rvMonsterHarvester@@UBEPAVidTypeInfo@@XZ 2014ca50 f   Monster_Harvester.obj
 0001:0014ba60       ??0rvMonsterHarvester@@QAE@XZ 2014ca60 f   Monster_Harvester.obj
 0001:0014bb60       ?InitSpawnArgsVariables@rvMonsterHarvester@@QAEXXZ 2014cb60 f   Monster_Harvester.obj
 0001:0014bd70       ?Spawn@rvMonsterHarvester@@QAEXXZ 2014cd70 f   Monster_Harvester.obj
 0001:0014be50       ?Save@rvMonsterHarvester@@QBEXPAVidSaveGame@@@Z 2014ce50 f   Monster_Harvester.obj
 0001:0014bf20       ?Restore@rvMonsterHarvester@@QAEXPAVidRestoreGame@@@Z 2014cf20 f   Monster_Harvester.obj
 0001:0014bfe0       ?Attack@rvMonsterHarvester@@UAE_NPBDW4jointHandle_t@@PAVidEntity@@ABVidVec3@@@Z 2014cfe0 f   Monster_Harvester.obj
 0001:0014c020       ?UpdateAnimationControllers@rvMonsterHarvester@@UAE_NXZ 2014d020 f   Monster_Harvester.obj
 0001:0014c030       ?CanTurn@rvMonsterHarvester@@UBE_NXZ 2014d030 f   Monster_Harvester.obj
 0001:0014c080       ?GetDamageForLocation@rvMonsterHarvester@@UAEHHH@Z 2014d080 f   Monster_Harvester.obj
 0001:0014c240       ?Damage@rvMonsterHarvester@@UAEXPAVidEntity@@0ABVidVec3@@PBDMH@Z 2014d240 f   Monster_Harvester.obj
 0001:0014c270       ?SkipImpulse@rvMonsterHarvester@@UAE_NPAVidEntity@@H@Z 2014d270 f   Monster_Harvester.obj
 0001:0014c280       ?DestroyPart@rvMonsterHarvester@@IAEXH@Z 2014d280 f   Monster_Harvester.obj
 0001:0014c550       ?CheckActions@rvMonsterHarvester@@MAE_NXZ 2014d550 f   Monster_Harvester.obj
 0001:0014c760       ?FilterTactical@rvMonsterHarvester@@MAEHH@Z 2014d760 f   Monster_Harvester.obj
 0001:0014c770       ?GetMeleeAttackAnim@rvMonsterHarvester@@IAEPBDABVidVec3@@@Z 2014d770 f   Monster_Harvester.obj
 0001:0014c9f0       ?PlayMeleeAttackAnim@rvMonsterHarvester@@IAE_NABVidVec3@@H@Z 2014d9f0 f   Monster_Harvester.obj
 0001:0014ca20       ?GetRangedAttackAnim@rvMonsterHarvester@@IAEPBDABVidVec3@@@Z 2014da20 f   Monster_Harvester.obj
 0001:0014cc40       ?PlayRangedAttackAnim@rvMonsterHarvester@@IAE_NABVidVec3@@H@Z 2014dc40 f   Monster_Harvester.obj
 0001:0014cc90       ?DropLeg@rvMonsterHarvester@@AAEXH@Z 2014dc90 f   Monster_Harvester.obj
 0001:0014d320       ?CheckAction_WhipAttack@rvMonsterHarvester@@AAE_NPAVrvAIAction@@H@Z 2014e320 f   Monster_Harvester.obj
 0001:0014d350       ?CheckAction_MeleeAttack@rvMonsterHarvester@@EAE_NPAVrvAIAction@@H@Z 2014e350 f   Monster_Harvester.obj
 0001:0014d430       ?CheckAction_RangedAttack@rvMonsterHarvester@@EAE_NPAVrvAIAction@@H@Z 2014e430 f   Monster_Harvester.obj
 0001:0014d4c0       ?CheckAction_SprayAttack@rvMonsterHarvester@@AAE_NPAVrvAIAction@@H@Z 2014e4c0 f   Monster_Harvester.obj
 0001:0014d6f0       ?CheckAction_RocketAttack@rvMonsterHarvester@@AAE_NPAVrvAIAction@@H@Z 2014e6f0 f   Monster_Harvester.obj
 0001:0014d860       ?CheckAction_GrenadeAttack@rvMonsterHarvester@@AAE_NPAVrvAIAction@@H@Z 2014e860 f   Monster_Harvester.obj
 0001:0014da20       ?State_Killed@rvMonsterHarvester@@AAE?AW4stateResult_t@@ABUstateParms_t@@@Z 2014ea20 f   Monster_Harvester.obj
 0001:0014da90       ?State_Dead@rvMonsterHarvester@@AAE?AW4stateResult_t@@ABUstateParms_t@@@Z 2014ea90 f   Monster_Harvester.obj
 0001:0014db00       ?State_Torso_WhipAttack@rvMonsterHarvester@@AAE?AW4stateResult_t@@ABUstateParms_t@@@Z 2014eb00 f   Monster_Harvester.obj
 0001:0014dd40       ?State_Torso_ClawAttack@rvMonsterHarvester@@AAE?AW4stateResult_t@@ABUstateParms_t@@@Z 2014ed40 f   Monster_Harvester.obj
 0001:0014de10       ?State_Torso_RangedAttack@rvMonsterHarvester@@AAE?AW4stateResult_t@@ABUstateParms_t@@@Z 2014ee10 f   Monster_Harvester.obj
 0001:0014dfd0       ?State_Torso_TurnRight90@rvMonsterHarvester@@AAE?AW4stateResult_t@@ABUstateParms_t@@@Z 2014efd0 f   Monster_Harvester.obj
 0001:0014e320       ?State_Torso_TurnLeft90@rvMonsterHarvester@@AAE?AW4stateResult_t@@ABUstateParms_t@@@Z 2014f320 f   Monster_Harvester.obj
 0001:0014e670       ?State_Torso_SprayAttack@rvMonsterHarvester@@AAE?AW4stateResult_t@@ABUstateParms_t@@@Z 2014f670 f   Monster_Harvester.obj
 0001:0014e790       ?State_Torso_RocketAttack@rvMonsterHarvester@@AAE?AW4stateResult_t@@ABUstateParms_t@@@Z 2014f790 f   Monster_Harvester.obj
 0001:0014e9f0       ?Register_rvMonsterHarvester@@YAXXZ 2014f9f0 f   Monster_Harvester.obj
 0001:0014ea00       ??1rvMonsterHarvester@@UAE@XZ 2014fa00 f i Monster_Harvester.obj
 0001:0014ead0       ??_ErvMonsterHarvester@@UAEPAXI@Z 2014fad0 f i Monster_Harvester.obj
 0001:0014ead0       ??_GrvMonsterHarvester@@UAEPAXI@Z 2014fad0 f i Monster_Harvester.obj
 0001:0014eb00       ?RegisterClassA@rvMonsterHarvesterDispersal@@SAXXZ 2014fb00 f   Monster_HarvesterDispersal.obj
 0001:0014eb90       ?CreateInstance@rvMonsterHarvesterDispersal@@SAPAVidClass@@XZ 2014fb90 f   Monster_HarvesterDispersal.obj
 0001:0014ec30       ?GetClassType@rvMonsterHarvesterDispersal@@SAAAVidTypeInfo@@XZ 2014fc30 f   Monster_HarvesterDispersal.obj
 0001:0014ec40       ?GetType@rvMonsterHarvesterDispersal@@UBEPAVidTypeInfo@@XZ 2014fc40 f   Monster_HarvesterDispersal.obj
 0001:0014ec50       ??0rvMonsterHarvesterDispersal@@QAE@XZ 2014fc50 f   Monster_HarvesterDispersal.obj
 0001:0014eca0       ?InitSpawnArgsVariables@rvMonsterHarvesterDispersal@@QAEXXZ 2014fca0 f   Monster_HarvesterDispersal.obj
 0001:0014ed20       ?Spawn@rvMonsterHarvesterDispersal@@QAEXXZ 2014fd20 f   Monster_HarvesterDispersal.obj
 0001:0014ed60       ?Save@rvMonsterHarvesterDispersal@@QBEXPAVidSaveGame@@@Z 2014fd60 f   Monster_HarvesterDispersal.obj
 0001:0014edb0       ?Restore@rvMonsterHarvesterDispersal@@QAEXPAVidRestoreGame@@@Z 2014fdb0 f   Monster_HarvesterDispersal.obj
 0001:0014ee00       ?CanTurn@rvMonsterHarvesterDispersal@@UBE_NXZ 2014fe00 f   Monster_HarvesterDispersal.obj
 0001:0014ee10       ?SkipImpulse@rvMonsterHarvesterDispersal@@UAE_NPAVidEntity@@H@Z 2014fe10 f   Monster_HarvesterDispersal.obj
 0001:0014ee20       ?CheckActions@rvMonsterHarvesterDispersal@@MAE_NXZ 2014fe20 f   Monster_HarvesterDispersal.obj
 0001:0014ee60       ?FilterTactical@rvMonsterHarvesterDispersal@@MAEHH@Z 2014fe60 f   Monster_HarvesterDispersal.obj
 0001:0014ee70       ?CheckAction_SprayScream@rvMonsterHarvesterDispersal@@EAE_NPAVrvAIAction@@H@Z 2014fe70 f   Monster_HarvesterDispersal.obj
 0001:0014ef20       ?CheckAction_RangedAttack@rvMonsterHarvesterDispersal@@EAE_NPAVrvAIAction@@H@Z 2014ff20 f   Monster_HarvesterDispersal.obj
 0001:0014efc0       ?State_Torso_RangedAttack@rvMonsterHarvesterDispersal@@AAE?AW4stateResult_t@@ABUstateParms_t@@@Z 2014ffc0 f   Monster_HarvesterDispersal.obj
 0001:0014f160       ?State_Torso_TurnRight90@rvMonsterHarvesterDispersal@@AAE?AW4stateResult_t@@ABUstateParms_t@@@Z 20150160 f   Monster_HarvesterDispersal.obj
 0001:0014f230       ?State_Torso_TurnLeft90@rvMonsterHarvesterDispersal@@AAE?AW4stateResult_t@@ABUstateParms_t@@@Z 20150230 f   Monster_HarvesterDispersal.obj
 0001:0014f300       ?State_SprayScream@rvMonsterHarvesterDispersal@@AAE?AW4stateResult_t@@ABUstateParms_t@@@Z 20150300 f   Monster_HarvesterDispersal.obj
 0001:0014f550       ?Register_rvMonsterHarvesterDispersal@@YAXXZ 20150550 f   Monster_HarvesterDispersal.obj
 0001:0014f560       ??_GrvMonsterHarvesterDispersal@@UAEPAXI@Z 20150560 f i Monster_HarvesterDispersal.obj
 0001:0014f560       ??_ErvMonsterHarvesterDispersal@@UAEPAXI@Z 20150560 f i Monster_HarvesterDispersal.obj
 0001:0014f5d0       ?RegisterClassA@rvMonsterHeavyHoverTank@@SAXXZ 201505d0 f   Monster_HeavyHoverTank.obj
 0001:0014f660       ?CreateInstance@rvMonsterHeavyHoverTank@@SAPAVidClass@@XZ 20150660 f   Monster_HeavyHoverTank.obj
 0001:0014f700       ?GetClassType@rvMonsterHeavyHoverTank@@SAAAVidTypeInfo@@XZ 20150700 f   Monster_HeavyHoverTank.obj
 0001:0014f710       ?GetType@rvMonsterHeavyHoverTank@@UBEPAVidTypeInfo@@XZ 20150710 f   Monster_HeavyHoverTank.obj
 0001:0014f720       ??0rvMonsterHeavyHoverTank@@QAE@XZ 20150720 f   Monster_HeavyHoverTank.obj
 0001:0014f7f0       ?InitSpawnArgsVariables@rvMonsterHeavyHoverTank@@QAEXXZ 201507f0 f   Monster_HeavyHoverTank.obj
 0001:0014f870       ?Spawn@rvMonsterHeavyHoverTank@@QAEXXZ 20150870 f   Monster_HeavyHoverTank.obj
 0001:0014f930       ?Save@rvMonsterHeavyHoverTank@@QBEXPAVidSaveGame@@@Z 20150930 f   Monster_HeavyHoverTank.obj
 0001:0014f9c0       ?Restore@rvMonsterHeavyHoverTank@@QAEXPAVidRestoreGame@@@Z 201509c0 f   Monster_HeavyHoverTank.obj
 0001:0014fa50       ?Think@rvMonsterHeavyHoverTank@@UAEXXZ 20150a50 f   Monster_HeavyHoverTank.obj
 0001:0014fdc0       ?Damage@rvMonsterHeavyHoverTank@@UAEXPAVidEntity@@0ABVidVec3@@PBDMH@Z 20150dc0 f   Monster_HeavyHoverTank.obj
 0001:0014ff10       ?OnDeath@rvMonsterHeavyHoverTank@@UAEXXZ 20150f10 f   Monster_HeavyHoverTank.obj
 0001:0014fff0       ?CheckActions@rvMonsterHeavyHoverTank@@MAE_NXZ 20150ff0 f   Monster_HeavyHoverTank.obj
 0001:00150080       ?OnEnemyChange@rvMonsterHeavyHoverTank@@MAEXPAVidEntity@@@Z 20151080 f   Monster_HeavyHoverTank.obj
 0001:00150110       ?CheckAction_Strafe@rvMonsterHeavyHoverTank@@AAE_NPAVrvAIAction@@H@Z 20151110 f   Monster_HeavyHoverTank.obj
 0001:00150170       ?State_Torso_BlasterAttack@rvMonsterHeavyHoverTank@@AAE?AW4stateResult_t@@ABUstateParms_t@@@Z 20151170 f   Monster_HeavyHoverTank.obj
 0001:00150320       ?State_Torso_RocketAttack@rvMonsterHeavyHoverTank@@AAE?AW4stateResult_t@@ABUstateParms_t@@@Z 20151320 f   Monster_HeavyHoverTank.obj
 0001:001503d0       ?State_Torso_ChangeWeaponState@rvMonsterHeavyHoverTank@@AAE?AW4stateResult_t@@ABUstateParms_t@@@Z 201513d0 f   Monster_HeavyHoverTank.obj
 0001:001504a0       ?State_Torso_EvadeLeft@rvMonsterHeavyHoverTank@@AAE?AW4stateResult_t@@ABUstateParms_t@@@Z 201514a0 f   Monster_HeavyHoverTank.obj
 0001:001505a0       ?State_Torso_EvadeRight@rvMonsterHeavyHoverTank@@AAE?AW4stateResult_t@@ABUstateParms_t@@@Z 201515a0 f   Monster_HeavyHoverTank.obj
 0001:001506a0       ?State_Torso_Strafe@rvMonsterHeavyHoverTank@@AAE?AW4stateResult_t@@ABUstateParms_t@@@Z 201516a0 f   Monster_HeavyHoverTank.obj
 0001:00150710       ?Register_rvMonsterHeavyHoverTank@@YAXXZ 20151710 f   Monster_HeavyHoverTank.obj
 0001:00150720       ??_GrvMonsterHeavyHoverTank@@UAEPAXI@Z 20151720 f i Monster_HeavyHoverTank.obj
 0001:00150720       ??_ErvMonsterHeavyHoverTank@@UAEPAXI@Z 20151720 f i Monster_HeavyHoverTank.obj
 0001:001507a0       ?RegisterClassA@rvMonsterIronMaiden@@SAXXZ 201517a0 f   Monster_IronMaiden.obj
 0001:00150830       ?CreateInstance@rvMonsterIronMaiden@@SAPAVidClass@@XZ 20151830 f   Monster_IronMaiden.obj
 0001:001508d0       ?GetClassType@rvMonsterIronMaiden@@SAAAVidTypeInfo@@XZ 201518d0 f   Monster_IronMaiden.obj
 0001:001508e0       ?GetType@rvMonsterIronMaiden@@UBEPAVidTypeInfo@@XZ 201518e0 f   Monster_IronMaiden.obj
 0001:001508f0       ??0rvMonsterIronMaiden@@QAE@XZ 201518f0 f   Monster_IronMaiden.obj
 0001:00150960       ?InitSpawnArgsVariables@rvMonsterIronMaiden@@QAEXXZ 20151960 f   Monster_IronMaiden.obj
 0001:001509b0       ?Spawn@rvMonsterIronMaiden@@QAEXXZ 201519b0 f   Monster_IronMaiden.obj
 0001:00150a40       ?Save@rvMonsterIronMaiden@@QBEXPAVidSaveGame@@@Z 20151a40 f   Monster_IronMaiden.obj
 0001:00150a80       ?Restore@rvMonsterIronMaiden@@QAEXPAVidRestoreGame@@@Z 20151a80 f   Monster_IronMaiden.obj
 0001:00150ac0       ?GetDebugInfo@rvMonsterIronMaiden@@UAEXP6AXPBD00PAX@Z1@Z 20151ac0 f   Monster_IronMaiden.obj
 0001:00150b00       ?FilterTactical@rvMonsterIronMaiden@@UAEHH@Z 20151b00 f   Monster_IronMaiden.obj
 0001:00150b20       ?CheckActions@rvMonsterIronMaiden@@MAE_NXZ 20151b20 f   Monster_IronMaiden.obj
 0001:00150b70       ?PhaseOut@rvMonsterIronMaiden@@IAEXXZ 20151b70 f   Monster_IronMaiden.obj
 0001:00150c50       ?PhaseIn@rvMonsterIronMaiden@@IAEXXZ 20151c50 f   Monster_IronMaiden.obj
 0001:00150d50       ?OnDeath@rvMonsterIronMaiden@@MAEXXZ 20151d50 f   Monster_IronMaiden.obj
 0001:00150d80       ?CheckAction_BansheeAttack@rvMonsterIronMaiden@@AAE_NPAVrvAIAction@@H@Z 20151d80 f   Monster_IronMaiden.obj
 0001:00150d90       ?PerformAction_PhaseOut@rvMonsterIronMaiden@@AAE_NXZ 20151d90 f   Monster_IronMaiden.obj
 0001:00150df0       ?PerformAction_PhaseIn@rvMonsterIronMaiden@@AAE_NXZ 20151df0 f   Monster_IronMaiden.obj
 0001:00150e40       ?State_Phased@rvMonsterIronMaiden@@AAE?AW4stateResult_t@@ABUstateParms_t@@@Z 20151e40 f   Monster_IronMaiden.obj
 0001:00150ee0       ?State_Torso_PhaseIn@rvMonsterIronMaiden@@AAE?AW4stateResult_t@@ABUstateParms_t@@@Z 20151ee0 f   Monster_IronMaiden.obj
 0001:00150f80       ?State_Torso_PhaseOut@rvMonsterIronMaiden@@AAE?AW4stateResult_t@@ABUstateParms_t@@@Z 20151f80 f   Monster_IronMaiden.obj
 0001:00150fe0       ?State_Torso_BansheeAttack@rvMonsterIronMaiden@@AAE?AW4stateResult_t@@ABUstateParms_t@@@Z 20151fe0 f   Monster_IronMaiden.obj
 0001:00151080       ?State_Torso_BansheeAttackDone@rvMonsterIronMaiden@@AAE?AW4stateResult_t@@ABUstateParms_t@@@Z 20152080 f   Monster_IronMaiden.obj
 0001:001510a0       ?Frame_PhaseIn@rvMonsterIronMaiden@@AAE?AW4stateResult_t@@ABUstateParms_t@@@Z 201520a0 f   Monster_IronMaiden.obj
 0001:001510b0       ?Frame_PhaseOut@rvMonsterIronMaiden@@AAE?AW4stateResult_t@@ABUstateParms_t@@@Z 201520b0 f   Monster_IronMaiden.obj
 0001:001510c0       ?Frame_BansheeAttack@rvMonsterIronMaiden@@AAE?AW4stateResult_t@@ABUstateParms_t@@@Z 201520c0 f   Monster_IronMaiden.obj
 0001:001512e0       ?Frame_EndBansheeAttack@rvMonsterIronMaiden@@AAE?AW4stateResult_t@@ABUstateParms_t@@@Z 201522e0 f   Monster_IronMaiden.obj
 0001:00151300       ?Register_rvMonsterIronMaiden@@YAXXZ 20152300 f   Monster_IronMaiden.obj
 0001:00151310       ??_ErvMonsterSlimyTransfer@@UAEPAXI@Z 20152310 f i Monster_SlimyTransfer.obj
 0001:00151310       ??_ErvMonsterIronMaiden@@UAEPAXI@Z 20152310 f i Monster_IronMaiden.obj
 0001:00151310       ??_GrvMonsterSlimyTransfer@@UAEPAXI@Z 20152310 f i Monster_SlimyTransfer.obj
 0001:00151310       ??_GrvMonsterIronMaiden@@UAEPAXI@Z 20152310 f i Monster_IronMaiden.obj
 0001:00151380       ?RegisterClassA@rvMonsterLightTank@@SAXXZ 20152380 f   Monster_LightTank.obj
 0001:00151410       ?CreateInstance@rvMonsterLightTank@@SAPAVidClass@@XZ 20152410 f   Monster_LightTank.obj
 0001:001514b0       ?GetClassType@rvMonsterLightTank@@SAAAVidTypeInfo@@XZ 201524b0 f   Monster_LightTank.obj
 0001:001514c0       ?GetType@rvMonsterLightTank@@UBEPAVidTypeInfo@@XZ 201524c0 f   Monster_LightTank.obj
 0001:001514d0       ??0rvMonsterLightTank@@QAE@XZ 201524d0 f   Monster_LightTank.obj
 0001:00151560       ?Spawn@rvMonsterLightTank@@QAEXXZ 20152560 f   Monster_LightTank.obj
 0001:00151610       ?Save@rvMonsterLightTank@@QBEXPAVidSaveGame@@@Z 20152610 f   Monster_LightTank.obj
 0001:001516a0       ?Restore@rvMonsterLightTank@@QAEXPAVidRestoreGame@@@Z 201526a0 f   Monster_LightTank.obj
 0001:00151730       ?Pain@rvMonsterLightTank@@UAE_NPAVidEntity@@0HABVidVec3@@H@Z 20152730 f   Monster_LightTank.obj
 0001:00151780       ?GetDamageForLocation@rvMonsterLightTank@@UAEHHH@Z 20152780 f   Monster_LightTank.obj
 0001:001517f0       ?DamageFeedback@rvMonsterLightTank@@UAEXPAVidEntity@@0AAH@Z 201527f0 f   Monster_LightTank.obj
 0001:00151870       ?OnStopMoving@rvMonsterLightTank@@MAEXW4aiMoveCommand_t@@@Z 20152870 f   Monster_LightTank.obj
 0001:00151910       ?CheckActions@rvMonsterLightTank@@MAE_NXZ 20152910 f   Monster_LightTank.obj
 0001:00151a80       ?OnTacticalChange@rvMonsterLightTank@@MAEXW4aiTactical_t@@@Z 20152a80 f   Monster_LightTank.obj
 0001:00151ab0       ?UpdateRunStatus@rvMonsterLightTank@@MAE_NXZ 20152ab0 f   Monster_LightTank.obj
 0001:00151af0       ?FilterTactical@rvMonsterLightTank@@MAEHH@Z 20152af0 f   Monster_LightTank.obj
 0001:00151b50       ?DestroyFlamethrower@rvMonsterLightTank@@IAEXXZ 20152b50 f   Monster_LightTank.obj
 0001:00151db0       ?CheckAction_PowerUp@rvMonsterLightTank@@AAE_NPAVrvAIAction@@H@Z 20152db0 f   Monster_LightTank.obj
 0001:00151df0       ?CheckAction_EvadeLeft@rvMonsterLightTank@@EAE_NPAVrvAIAction@@H@Z 20152df0 f   Monster_LightTank.obj
 0001:00151e20       ?CheckAction_EvadeRight@rvMonsterLightTank@@EAE_NPAVrvAIAction@@H@Z 20152e20 f   Monster_LightTank.obj
 0001:00151e50       ?CheckAction_ChargeAttack@rvMonsterLightTank@@AAE_NPAVrvAIAction@@H@Z 20152e50 f   Monster_LightTank.obj
 0001:00151f10       ?State_Killed@rvMonsterLightTank@@AAE?AW4stateResult_t@@ABUstateParms_t@@@Z 20152f10 f   Monster_LightTank.obj
 0001:00151f40       ?State_Torso_FlameThrower@rvMonsterLightTank@@AAE?AW4stateResult_t@@ABUstateParms_t@@@Z 20152f40 f   Monster_LightTank.obj
 0001:00151fd0       ?State_Torso_FlameThrowerThink@rvMonsterLightTank@@AAE?AW4stateResult_t@@ABUstateParms_t@@@Z 20152fd0 f   Monster_LightTank.obj
 0001:00152010       ?State_Torso_Pain@rvMonsterLightTank@@AAE?AW4stateResult_t@@ABUstateParms_t@@@Z 20153010 f   Monster_LightTank.obj
 0001:00152040       ?State_Torso_RangedAttack@rvMonsterLightTank@@AAE?AW4stateResult_t@@ABUstateParms_t@@@Z 20153040 f   Monster_LightTank.obj
 0001:001520d0       ?State_Torso_PowerUp@rvMonsterLightTank@@AAE?AW4stateResult_t@@ABUstateParms_t@@@Z 201530d0 f   Monster_LightTank.obj
 0001:001521f0       ?Register_rvMonsterLightTank@@YAXXZ 201531f0 f   Monster_LightTank.obj
 0001:00152200       ??_GrvMonsterLightTank@@UAEPAXI@Z 20153200 f i Monster_LightTank.obj
 0001:00152200       ??_ErvMonsterLightTank@@UAEPAXI@Z 20153200 f i Monster_LightTank.obj
 0001:00152290       ?RegisterClassA@rvMonsterNetworkGuardian@@SAXXZ 20153290 f   Monster_NetworkGuardian.obj
 0001:00152320       ?CreateInstance@rvMonsterNetworkGuardian@@SAPAVidClass@@XZ 20153320 f   Monster_NetworkGuardian.obj
 0001:001523c0       ?GetClassType@rvMonsterNetworkGuardian@@SAAAVidTypeInfo@@XZ 201533c0 f   Monster_NetworkGuardian.obj
 0001:001523d0       ?GetType@rvMonsterNetworkGuardian@@UBEPAVidTypeInfo@@XZ 201533d0 f   Monster_NetworkGuardian.obj
 0001:001523e0       ??0rvMonsterNetworkGuardian@@QAE@XZ 201533e0 f   Monster_NetworkGuardian.obj
 0001:001524c0       ?Spawn@rvMonsterNetworkGuardian@@QAEXXZ 201534c0 f   Monster_NetworkGuardian.obj
 0001:001525b0       ?Save@rvMonsterNetworkGuardian@@QBEXPAVidSaveGame@@@Z 201535b0 f   Monster_NetworkGuardian.obj
 0001:00152670       ?Restore@rvMonsterNetworkGuardian@@QAEXPAVidRestoreGame@@@Z 20153670 f   Monster_NetworkGuardian.obj
 0001:00152730       ?CheckActions@rvMonsterNetworkGuardian@@MAE_NXZ 20153730 f   Monster_NetworkGuardian.obj
 0001:00152b00       ?State_Wait_Flying@rvMonsterNetworkGuardian@@AAE?AW4stateResult_t@@ABUstateParms_t@@@Z 20153b00 f   Monster_NetworkGuardian.obj
 0001:00152b20       ?State_Torso_ShotgunRocket@rvMonsterNetworkGuardian@@AAE?AW4stateResult_t@@ABUstateParms_t@@@Z 20153b20 f   Monster_NetworkGuardian.obj
 0001:00152b80       ?State_Torso_BlasterSweepGround@rvMonsterNetworkGuardian@@AAE?AW4stateResult_t@@ABUstateParms_t@@@Z 20153b80 f   Monster_NetworkGuardian.obj
 0001:00152be0       ?State_Torso_BlasterAttack@rvMonsterNetworkGuardian@@AAE?AW4stateResult_t@@ABUstateParms_t@@@Z 20153be0 f   Monster_NetworkGuardian.obj
 0001:00152d60       ?State_Torso_MIRVAttack@rvMonsterNetworkGuardian@@AAE?AW4stateResult_t@@ABUstateParms_t@@@Z 20153d60 f   Monster_NetworkGuardian.obj
 0001:00152dc0       ?State_Torso_EvadeLeft@rvMonsterNetworkGuardian@@AAE?AW4stateResult_t@@ABUstateParms_t@@@Z 20153dc0 f   Monster_NetworkGuardian.obj
 0001:00152ec0       ?State_Torso_EvadeRight@rvMonsterNetworkGuardian@@AAE?AW4stateResult_t@@ABUstateParms_t@@@Z 20153ec0 f   Monster_NetworkGuardian.obj
 0001:00152fc0       ?State_Torso_FlyingRanged@rvMonsterNetworkGuardian@@AAE?AW4stateResult_t@@ABUstateParms_t@@@Z 20153fc0 f   Monster_NetworkGuardian.obj
 0001:00153020       ?State_Torso_FlyingSweep@rvMonsterNetworkGuardian@@AAE?AW4stateResult_t@@ABUstateParms_t@@@Z 20154020 f   Monster_NetworkGuardian.obj
 0001:00153080       ?State_Torso_LiftOff@rvMonsterNetworkGuardian@@AAE?AW4stateResult_t@@ABUstateParms_t@@@Z 20154080 f   Monster_NetworkGuardian.obj
 0001:00153170       ?State_Torso_Fall@rvMonsterNetworkGuardian@@AAE?AW4stateResult_t@@ABUstateParms_t@@@Z 20154170 f   Monster_NetworkGuardian.obj
 0001:00153280       ?State_Torso_TurnRight90@rvMonsterNetworkGuardian@@AAE?AW4stateResult_t@@ABUstateParms_t@@@Z 20154280 f   Monster_NetworkGuardian.obj
 0001:00153320       ?State_Torso_TurnLeft90@rvMonsterNetworkGuardian@@AAE?AW4stateResult_t@@ABUstateParms_t@@@Z 20154320 f   Monster_NetworkGuardian.obj
 0001:001533c0       ?Event_ForceWalkMode@rvMonsterNetworkGuardian@@AAEXXZ 201543c0 f   Monster_NetworkGuardian.obj
 0001:00153410       ?Event_ForceLanding@rvMonsterNetworkGuardian@@AAEXXZ 20154410 f   Monster_NetworkGuardian.obj
 0001:00153480       ?Event_ForceTakeoff@rvMonsterNetworkGuardian@@AAEXXZ 20154480 f   Monster_NetworkGuardian.obj
 0001:001534d0       ?Event_AllowAutopilot@rvMonsterNetworkGuardian@@AAEXM@Z 201544d0 f   Monster_NetworkGuardian.obj
 0001:00153500       ?Event_SetBattleStage@rvMonsterNetworkGuardian@@AAEXM@Z 20154500 f   Monster_NetworkGuardian.obj
 0001:00153520       ?Register_rvMonsterNetworkGuardian@@YAXXZ 20154520 f   Monster_NetworkGuardian.obj
 0001:00153530       ??1rvMonsterNetworkGuardian@@UAE@XZ 20154530 f i Monster_NetworkGuardian.obj
 0001:001535e0       ??_ErvMonsterNetworkGuardian@@UAEPAXI@Z 201545e0 f i Monster_NetworkGuardian.obj
 0001:001535e0       ??_GrvMonsterNetworkGuardian@@UAEPAXI@Z 201545e0 f i Monster_NetworkGuardian.obj
 0001:00153610       ?Save@repairBotArm_t@@QBEXPAVidSaveGame@@@Z 20154610 f   Monster_RepairBot.obj
 0001:00153660       ?Restore@repairBotArm_t@@QAEXPAVidRestoreGame@@@Z 20154660 f   Monster_RepairBot.obj
 0001:001536b0       ?RegisterClassA@rvMonsterRepairBot@@SAXXZ 201546b0 f   Monster_RepairBot.obj
 0001:00153740       ?CreateInstance@rvMonsterRepairBot@@SAPAVidClass@@XZ 20154740 f   Monster_RepairBot.obj
 0001:001537e0       ?GetClassType@rvMonsterRepairBot@@SAAAVidTypeInfo@@XZ 201547e0 f   Monster_RepairBot.obj
 0001:001537f0       ?GetType@rvMonsterRepairBot@@UBEPAVidTypeInfo@@XZ 201547f0 f   Monster_RepairBot.obj
 0001:00153800       ??0rvMonsterRepairBot@@QAE@XZ 20154800 f   Monster_RepairBot.obj
 0001:00153850       ?InitSpawnArgsVariables@rvMonsterRepairBot@@QAEXXZ 20154850 f   Monster_RepairBot.obj
 0001:00153900       ?Spawn@rvMonsterRepairBot@@QAEXXZ 20154900 f   Monster_RepairBot.obj
 0001:00153910       ?Save@rvMonsterRepairBot@@QBEXPAVidSaveGame@@@Z 20154910 f   Monster_RepairBot.obj
 0001:00153950       ?Restore@rvMonsterRepairBot@@QAEXPAVidRestoreGame@@@Z 20154950 f   Monster_RepairBot.obj
 0001:00153990       ?Think@rvMonsterRepairBot@@UAEXXZ 20154990 f   Monster_RepairBot.obj
 0001:001539c0       ?GetDebugInfo@rvMonsterRepairBot@@UAEXP6AXPBD00PAX@Z1@Z 201549c0 f   Monster_RepairBot.obj
 0001:001539d0       ?CheckActions@rvMonsterRepairBot@@MAE_NXZ 201549d0 f   Monster_RepairBot.obj
 0001:001539e0       ?OnDeath@rvMonsterRepairBot@@MAEXXZ 201549e0 f   Monster_RepairBot.obj
 0001:00153a60       ?UpdateRepairs@rvMonsterRepairBot@@AAEXAAVrepairBotArm_t@@@Z 20154a60 f   Monster_RepairBot.obj
 0001:00153ec0       ?StopRepairs@rvMonsterRepairBot@@AAEXAAVrepairBotArm_t@@@Z 20154ec0 f   Monster_RepairBot.obj
 0001:00153f90       ?State_Legs_Move@rvMonsterRepairBot@@AAE?AW4stateResult_t@@ABUstateParms_t@@@Z 20154f90 f   Monster_RepairBot.obj
 0001:00154090       ?State_TorsoAction_Repair@rvMonsterRepairBot@@AAE?AW4stateResult_t@@ABUstateParms_t@@@Z 20155090 f   Monster_RepairBot.obj
 0001:00154180       ?State_TorsoAction_RepairDone@rvMonsterRepairBot@@AAE?AW4stateResult_t@@ABUstateParms_t@@@Z 20155180 f   Monster_RepairBot.obj
 0001:001541b0       ?Register_rvMonsterRepairBot@@YAXXZ 201551b0 f   Monster_RepairBot.obj
 0001:001541c0       ?RegisterClassA@rvMonsterScientist@@SAXXZ 201551c0 f   Monster_Scientist.obj
 0001:00154250       ?CreateInstance@rvMonsterScientist@@SAPAVidClass@@XZ 20155250 f   Monster_Scientist.obj
 0001:001542f0       ?GetClassType@rvMonsterScientist@@SAAAVidTypeInfo@@XZ 201552f0 f   Monster_Scientist.obj
 0001:00154300       ?GetType@rvMonsterScientist@@UBEPAVidTypeInfo@@XZ 20155300 f   Monster_Scientist.obj
 0001:00154310       ??0rvMonsterScientist@@QAE@XZ 20155310 f   Monster_Scientist.obj
 0001:00154330       ?Spawn@rvMonsterScientist@@QAEXXZ 20155330 f   Monster_Scientist.obj
 0001:00154380       ?OnDeath@rvMonsterScientist@@UAEXXZ 20155380 f   Monster_Scientist.obj
 0001:001543a0       ?GetDebugInfo@rvMonsterScientist@@UAEXP6AXPBD00PAX@Z1@Z 201553a0 f   Monster_Scientist.obj
 0001:001543b0       ?Register_rvMonsterScientist@@YAXXZ 201553b0 f   Monster_Scientist.obj
 0001:001543c0       ??_GrvMonsterScientist@@UAEPAXI@Z 201553c0 f i Monster_Scientist.obj
 0001:001543c0       ??_ErvMonsterFailedTransfer@@UAEPAXI@Z 201553c0 f i Monster_FailedTransfer.obj
 0001:001543c0       ??_GidAI@@UAEPAXI@Z        201553c0 f i AI.obj
 0001:001543c0       ??_EidAI@@UAEPAXI@Z        201553c0 f i AI.obj
 0001:001543c0       ??_GrvMonsterRepairBot@@UAEPAXI@Z 201553c0 f i Monster_RepairBot.obj
 0001:001543c0       ??_GrvMonsterFailedTransfer@@UAEPAXI@Z 201553c0 f i Monster_FailedTransfer.obj
 0001:001543c0       ??_ErvMonsterScientist@@UAEPAXI@Z 201553c0 f i Monster_Scientist.obj
 0001:001543c0       ??_ErvMonsterRepairBot@@UAEPAXI@Z 201553c0 f i Monster_RepairBot.obj
 0001:001543f0       ?RegisterClassA@rvMonsterSentry@@SAXXZ 201553f0 f   Monster_Sentry.obj
 0001:00154480       ?CreateInstance@rvMonsterSentry@@SAPAVidClass@@XZ 20155480 f   Monster_Sentry.obj
 0001:00154520       ?GetClassType@rvMonsterSentry@@SAAAVidTypeInfo@@XZ 20155520 f   Monster_Sentry.obj
 0001:00154530       ?GetType@rvMonsterSentry@@UBEPAVidTypeInfo@@XZ 20155530 f   Monster_Sentry.obj
 0001:00154540       ??0rvMonsterSentry@@QAE@XZ 20155540 f   Monster_Sentry.obj
 0001:001545c0       ?InitSpawnArgsVariables@rvMonsterSentry@@QAEXXZ 201555c0 f   Monster_Sentry.obj
 0001:00154640       ?Spawn@rvMonsterSentry@@QAEXXZ 20155640 f   Monster_Sentry.obj
 0001:001546f0       ?Save@rvMonsterSentry@@QBEXPAVidSaveGame@@@Z 201556f0 f   Monster_Sentry.obj
 0001:00154770       ?Restore@rvMonsterSentry@@QAEXPAVidRestoreGame@@@Z 20155770 f   Monster_Sentry.obj
 0001:00154800       ?Think@rvMonsterSentry@@UAEXXZ 20155800 f   Monster_Sentry.obj
 0001:00154830       ?Pain@rvMonsterSentry@@UAE_NPAVidEntity@@0HABVidVec3@@H@Z 20155830 f   Monster_Sentry.obj
 0001:00154980       ?GetDebugInfo@rvMonsterSentry@@UAEXP6AXPBD00PAX@Z1@Z 20155980 f   Monster_Sentry.obj
 0001:00154a60       ?CheckActions@rvMonsterSentry@@MAE_NXZ 20155a60 f   Monster_Sentry.obj
 0001:00154ad0       ?FilterTactical@rvMonsterSentry@@MAEHH@Z 20155ad0 f   Monster_Sentry.obj
 0001:00154b00       ?OnDeath@rvMonsterSentry@@MAEXXZ 20155b00 f   Monster_Sentry.obj
